
origin_O0.elf:     file format elf32-littleriscv


Disassembly of section .text:

00010094 <exit>:
   10094:	ff010113          	add	sp,sp,-16
   10098:	00000593          	li	a1,0
   1009c:	00812423          	sw	s0,8(sp)
   100a0:	00112623          	sw	ra,12(sp)
   100a4:	00050413          	mv	s0,a0
   100a8:	6bc010ef          	jal	11764 <__call_exitprocs>
   100ac:	f4c1a783          	lw	a5,-180(gp) # 2491c <__stdio_exit_handler>
   100b0:	00078463          	beqz	a5,100b8 <exit+0x24>
   100b4:	000780e7          	jalr	a5
   100b8:	00040513          	mv	a0,s0
   100bc:	5500e0ef          	jal	1e60c <_exit>

000100c0 <register_fini>:
   100c0:	00000793          	li	a5,0
   100c4:	00078863          	beqz	a5,100d4 <register_fini+0x14>
   100c8:	00001517          	auipc	a0,0x1
   100cc:	45050513          	add	a0,a0,1104 # 11518 <__libc_fini_array>
   100d0:	24d0006f          	j	10b1c <atexit>
   100d4:	00008067          	ret

000100d8 <_start>:
   100d8:	00015197          	auipc	gp,0x15
   100dc:	8f818193          	add	gp,gp,-1800 # 249d0 <__global_pointer$>
   100e0:	f4818513          	add	a0,gp,-184 # 24918 <completed.1>
   100e4:	54018613          	add	a2,gp,1344 # 24f10 <__BSS_END__>
   100e8:	40a60633          	sub	a2,a2,a0
   100ec:	00000593          	li	a1,0
   100f0:	4b4010ef          	jal	115a4 <memset>
   100f4:	00001517          	auipc	a0,0x1
   100f8:	42450513          	add	a0,a0,1060 # 11518 <__libc_fini_array>
   100fc:	221000ef          	jal	10b1c <atexit>
   10100:	384010ef          	jal	11484 <__libc_init_array>
   10104:	00012503          	lw	a0,0(sp)
   10108:	00410593          	add	a1,sp,4
   1010c:	00000613          	li	a2,0
   10110:	141000ef          	jal	10a50 <main>
   10114:	f81ff06f          	j	10094 <exit>

00010118 <__do_global_dtors_aux>:
   10118:	ff010113          	add	sp,sp,-16
   1011c:	00812423          	sw	s0,8(sp)
   10120:	f4818413          	add	s0,gp,-184 # 24918 <completed.1>
   10124:	00044783          	lbu	a5,0(s0)
   10128:	00112623          	sw	ra,12(sp)
   1012c:	02079263          	bnez	a5,10150 <__do_global_dtors_aux+0x38>
   10130:	00000793          	li	a5,0
   10134:	00078a63          	beqz	a5,10148 <__do_global_dtors_aux+0x30>
   10138:	00014517          	auipc	a0,0x14
   1013c:	ecc50513          	add	a0,a0,-308 # 24004 <__EH_FRAME_BEGIN__>
   10140:	00000097          	auipc	ra,0x0
   10144:	000000e7          	jalr	zero # 0 <exit-0x10094>
   10148:	00100793          	li	a5,1
   1014c:	00f40023          	sb	a5,0(s0)
   10150:	00c12083          	lw	ra,12(sp)
   10154:	00812403          	lw	s0,8(sp)
   10158:	01010113          	add	sp,sp,16
   1015c:	00008067          	ret

00010160 <frame_dummy>:
   10160:	00000793          	li	a5,0
   10164:	00078c63          	beqz	a5,1017c <frame_dummy+0x1c>
   10168:	f9018593          	add	a1,gp,-112 # 24960 <object.0>
   1016c:	00014517          	auipc	a0,0x14
   10170:	e9850513          	add	a0,a0,-360 # 24004 <__EH_FRAME_BEGIN__>
   10174:	00000317          	auipc	t1,0x0
   10178:	00000067          	jr	zero # 0 <exit-0x10094>
   1017c:	00008067          	ret

00010180 <count_leading_zeros>:
   10180:	f7010113          	add	sp,sp,-144
   10184:	08812623          	sw	s0,140(sp)
   10188:	09212423          	sw	s2,136(sp)
   1018c:	09312223          	sw	s3,132(sp)
   10190:	09412023          	sw	s4,128(sp)
   10194:	07512e23          	sw	s5,124(sp)
   10198:	07612c23          	sw	s6,120(sp)
   1019c:	07712a23          	sw	s7,116(sp)
   101a0:	07812823          	sw	s8,112(sp)
   101a4:	07912623          	sw	s9,108(sp)
   101a8:	07a12423          	sw	s10,104(sp)
   101ac:	07b12223          	sw	s11,100(sp)
   101b0:	09010413          	add	s0,sp,144
   101b4:	fca42423          	sw	a0,-56(s0)
   101b8:	fcb42623          	sw	a1,-52(s0)
   101bc:	fcc42783          	lw	a5,-52(s0)
   101c0:	01f79713          	sll	a4,a5,0x1f
   101c4:	fc842783          	lw	a5,-56(s0)
   101c8:	0017d613          	srl	a2,a5,0x1
   101cc:	00c76633          	or	a2,a4,a2
   101d0:	fcc42783          	lw	a5,-52(s0)
   101d4:	0017d693          	srl	a3,a5,0x1
   101d8:	fc842783          	lw	a5,-56(s0)
   101dc:	00c7ee33          	or	t3,a5,a2
   101e0:	fcc42783          	lw	a5,-52(s0)
   101e4:	00d7eeb3          	or	t4,a5,a3
   101e8:	fdc42423          	sw	t3,-56(s0)
   101ec:	fdd42623          	sw	t4,-52(s0)
   101f0:	fcc42783          	lw	a5,-52(s0)
   101f4:	01e79713          	sll	a4,a5,0x1e
   101f8:	fc842783          	lw	a5,-56(s0)
   101fc:	0027d813          	srl	a6,a5,0x2
   10200:	01076833          	or	a6,a4,a6
   10204:	fcc42783          	lw	a5,-52(s0)
   10208:	0027d893          	srl	a7,a5,0x2
   1020c:	fc842783          	lw	a5,-56(s0)
   10210:	0107e7b3          	or	a5,a5,a6
   10214:	f8f42823          	sw	a5,-112(s0)
   10218:	fcc42783          	lw	a5,-52(s0)
   1021c:	0117e7b3          	or	a5,a5,a7
   10220:	f8f42a23          	sw	a5,-108(s0)
   10224:	f9042783          	lw	a5,-112(s0)
   10228:	f9442803          	lw	a6,-108(s0)
   1022c:	fcf42423          	sw	a5,-56(s0)
   10230:	fd042623          	sw	a6,-52(s0)
   10234:	fcc42783          	lw	a5,-52(s0)
   10238:	01c79713          	sll	a4,a5,0x1c
   1023c:	fc842783          	lw	a5,-56(s0)
   10240:	0047d313          	srl	t1,a5,0x4
   10244:	00676333          	or	t1,a4,t1
   10248:	fcc42783          	lw	a5,-52(s0)
   1024c:	0047d393          	srl	t2,a5,0x4
   10250:	fc842783          	lw	a5,-56(s0)
   10254:	0067e7b3          	or	a5,a5,t1
   10258:	f8f42423          	sw	a5,-120(s0)
   1025c:	fcc42783          	lw	a5,-52(s0)
   10260:	0077e7b3          	or	a5,a5,t2
   10264:	f8f42623          	sw	a5,-116(s0)
   10268:	f8842783          	lw	a5,-120(s0)
   1026c:	f8c42803          	lw	a6,-116(s0)
   10270:	fcf42423          	sw	a5,-56(s0)
   10274:	fd042623          	sw	a6,-52(s0)
   10278:	fcc42783          	lw	a5,-52(s0)
   1027c:	01879713          	sll	a4,a5,0x18
   10280:	fc842783          	lw	a5,-56(s0)
   10284:	0087d913          	srl	s2,a5,0x8
   10288:	01276933          	or	s2,a4,s2
   1028c:	fcc42783          	lw	a5,-52(s0)
   10290:	0087d993          	srl	s3,a5,0x8
   10294:	fc842783          	lw	a5,-56(s0)
   10298:	0127e7b3          	or	a5,a5,s2
   1029c:	f8f42023          	sw	a5,-128(s0)
   102a0:	fcc42783          	lw	a5,-52(s0)
   102a4:	0137e7b3          	or	a5,a5,s3
   102a8:	f8f42223          	sw	a5,-124(s0)
   102ac:	f8042783          	lw	a5,-128(s0)
   102b0:	f8442803          	lw	a6,-124(s0)
   102b4:	fcf42423          	sw	a5,-56(s0)
   102b8:	fd042623          	sw	a6,-52(s0)
   102bc:	fcc42783          	lw	a5,-52(s0)
   102c0:	01079713          	sll	a4,a5,0x10
   102c4:	fc842783          	lw	a5,-56(s0)
   102c8:	0107d793          	srl	a5,a5,0x10
   102cc:	fcf42023          	sw	a5,-64(s0)
   102d0:	fc042783          	lw	a5,-64(s0)
   102d4:	00f767b3          	or	a5,a4,a5
   102d8:	fcf42023          	sw	a5,-64(s0)
   102dc:	fcc42783          	lw	a5,-52(s0)
   102e0:	0107d793          	srl	a5,a5,0x10
   102e4:	fcf42223          	sw	a5,-60(s0)
   102e8:	fc842783          	lw	a5,-56(s0)
   102ec:	fc042603          	lw	a2,-64(s0)
   102f0:	fc442683          	lw	a3,-60(s0)
   102f4:	00060713          	mv	a4,a2
   102f8:	00e7e7b3          	or	a5,a5,a4
   102fc:	f6f42c23          	sw	a5,-136(s0)
   10300:	fcc42783          	lw	a5,-52(s0)
   10304:	00068713          	mv	a4,a3
   10308:	00e7e7b3          	or	a5,a5,a4
   1030c:	f6f42e23          	sw	a5,-132(s0)
   10310:	f7842783          	lw	a5,-136(s0)
   10314:	f7c42803          	lw	a6,-132(s0)
   10318:	fcf42423          	sw	a5,-56(s0)
   1031c:	fd042623          	sw	a6,-52(s0)
   10320:	fcc42783          	lw	a5,-52(s0)
   10324:	0007d793          	srl	a5,a5,0x0
   10328:	faf42c23          	sw	a5,-72(s0)
   1032c:	fa042e23          	sw	zero,-68(s0)
   10330:	fc842783          	lw	a5,-56(s0)
   10334:	fb842603          	lw	a2,-72(s0)
   10338:	fbc42683          	lw	a3,-68(s0)
   1033c:	00060713          	mv	a4,a2
   10340:	00e7e7b3          	or	a5,a5,a4
   10344:	f6f42823          	sw	a5,-144(s0)
   10348:	fcc42783          	lw	a5,-52(s0)
   1034c:	00068713          	mv	a4,a3
   10350:	00e7e7b3          	or	a5,a5,a4
   10354:	f6f42a23          	sw	a5,-140(s0)
   10358:	f7042783          	lw	a5,-144(s0)
   1035c:	f7442803          	lw	a6,-140(s0)
   10360:	fcf42423          	sw	a5,-56(s0)
   10364:	fd042623          	sw	a6,-52(s0)
   10368:	fcc42783          	lw	a5,-52(s0)
   1036c:	01f79793          	sll	a5,a5,0x1f
   10370:	fc842703          	lw	a4,-56(s0)
   10374:	00175d13          	srl	s10,a4,0x1
   10378:	01a7ed33          	or	s10,a5,s10
   1037c:	fcc42783          	lw	a5,-52(s0)
   10380:	0017dd93          	srl	s11,a5,0x1
   10384:	555557b7          	lui	a5,0x55555
   10388:	55578793          	add	a5,a5,1365 # 55555555 <__BSS_END__+0x55530645>
   1038c:	00fd77b3          	and	a5,s10,a5
   10390:	faf42823          	sw	a5,-80(s0)
   10394:	555557b7          	lui	a5,0x55555
   10398:	55578793          	add	a5,a5,1365 # 55555555 <__BSS_END__+0x55530645>
   1039c:	00fdf7b3          	and	a5,s11,a5
   103a0:	faf42a23          	sw	a5,-76(s0)
   103a4:	fc842603          	lw	a2,-56(s0)
   103a8:	fcc42683          	lw	a3,-52(s0)
   103ac:	fb042803          	lw	a6,-80(s0)
   103b0:	fb442883          	lw	a7,-76(s0)
   103b4:	00080593          	mv	a1,a6
   103b8:	40b60733          	sub	a4,a2,a1
   103bc:	00070593          	mv	a1,a4
   103c0:	00b635b3          	sltu	a1,a2,a1
   103c4:	00088513          	mv	a0,a7
   103c8:	40a687b3          	sub	a5,a3,a0
   103cc:	40b786b3          	sub	a3,a5,a1
   103d0:	00068793          	mv	a5,a3
   103d4:	fce42423          	sw	a4,-56(s0)
   103d8:	fcf42623          	sw	a5,-52(s0)
   103dc:	fcc42783          	lw	a5,-52(s0)
   103e0:	01e79793          	sll	a5,a5,0x1e
   103e4:	fc842703          	lw	a4,-56(s0)
   103e8:	00275c13          	srl	s8,a4,0x2
   103ec:	0187ec33          	or	s8,a5,s8
   103f0:	fcc42783          	lw	a5,-52(s0)
   103f4:	0027dc93          	srl	s9,a5,0x2
   103f8:	333337b7          	lui	a5,0x33333
   103fc:	33378793          	add	a5,a5,819 # 33333333 <__BSS_END__+0x3330e423>
   10400:	00fc77b3          	and	a5,s8,a5
   10404:	faf42423          	sw	a5,-88(s0)
   10408:	333337b7          	lui	a5,0x33333
   1040c:	33378793          	add	a5,a5,819 # 33333333 <__BSS_END__+0x3330e423>
   10410:	00fcf7b3          	and	a5,s9,a5
   10414:	faf42623          	sw	a5,-84(s0)
   10418:	fc842703          	lw	a4,-56(s0)
   1041c:	333337b7          	lui	a5,0x33333
   10420:	33378793          	add	a5,a5,819 # 33333333 <__BSS_END__+0x3330e423>
   10424:	00f777b3          	and	a5,a4,a5
   10428:	faf42023          	sw	a5,-96(s0)
   1042c:	fcc42703          	lw	a4,-52(s0)
   10430:	333337b7          	lui	a5,0x33333
   10434:	33378793          	add	a5,a5,819 # 33333333 <__BSS_END__+0x3330e423>
   10438:	00f777b3          	and	a5,a4,a5
   1043c:	faf42223          	sw	a5,-92(s0)
   10440:	fa842503          	lw	a0,-88(s0)
   10444:	fac42583          	lw	a1,-84(s0)
   10448:	00050693          	mv	a3,a0
   1044c:	fa042803          	lw	a6,-96(s0)
   10450:	fa442883          	lw	a7,-92(s0)
   10454:	00080613          	mv	a2,a6
   10458:	00c68733          	add	a4,a3,a2
   1045c:	00070693          	mv	a3,a4
   10460:	00050613          	mv	a2,a0
   10464:	00c6b6b3          	sltu	a3,a3,a2
   10468:	00058613          	mv	a2,a1
   1046c:	00088593          	mv	a1,a7
   10470:	00b607b3          	add	a5,a2,a1
   10474:	00f686b3          	add	a3,a3,a5
   10478:	00068793          	mv	a5,a3
   1047c:	fce42423          	sw	a4,-56(s0)
   10480:	fcf42623          	sw	a5,-52(s0)
   10484:	fcc42783          	lw	a5,-52(s0)
   10488:	01c79793          	sll	a5,a5,0x1c
   1048c:	fc842703          	lw	a4,-56(s0)
   10490:	00475f13          	srl	t5,a4,0x4
   10494:	01e7ef33          	or	t5,a5,t5
   10498:	fcc42783          	lw	a5,-52(s0)
   1049c:	0047df93          	srl	t6,a5,0x4
   104a0:	fc842603          	lw	a2,-56(s0)
   104a4:	fcc42683          	lw	a3,-52(s0)
   104a8:	00cf0733          	add	a4,t5,a2
   104ac:	00070593          	mv	a1,a4
   104b0:	01e5b5b3          	sltu	a1,a1,t5
   104b4:	00df87b3          	add	a5,t6,a3
   104b8:	00f586b3          	add	a3,a1,a5
   104bc:	00068793          	mv	a5,a3
   104c0:	0f0f16b7          	lui	a3,0xf0f1
   104c4:	f0f68693          	add	a3,a3,-241 # f0f0f0f <__BSS_END__+0xf0cbfff>
   104c8:	00d776b3          	and	a3,a4,a3
   104cc:	fcd42423          	sw	a3,-56(s0)
   104d0:	0f0f16b7          	lui	a3,0xf0f1
   104d4:	f0f68693          	add	a3,a3,-241 # f0f0f0f <__BSS_END__+0xf0cbfff>
   104d8:	00d7f7b3          	and	a5,a5,a3
   104dc:	fcf42623          	sw	a5,-52(s0)
   104e0:	fcc42783          	lw	a5,-52(s0)
   104e4:	01879793          	sll	a5,a5,0x18
   104e8:	fc842703          	lw	a4,-56(s0)
   104ec:	00875b13          	srl	s6,a4,0x8
   104f0:	0167eb33          	or	s6,a5,s6
   104f4:	fcc42783          	lw	a5,-52(s0)
   104f8:	0087db93          	srl	s7,a5,0x8
   104fc:	fc842603          	lw	a2,-56(s0)
   10500:	fcc42683          	lw	a3,-52(s0)
   10504:	01660733          	add	a4,a2,s6
   10508:	00070593          	mv	a1,a4
   1050c:	00c5b5b3          	sltu	a1,a1,a2
   10510:	017687b3          	add	a5,a3,s7
   10514:	00f586b3          	add	a3,a1,a5
   10518:	00068793          	mv	a5,a3
   1051c:	fce42423          	sw	a4,-56(s0)
   10520:	fcf42623          	sw	a5,-52(s0)
   10524:	fcc42783          	lw	a5,-52(s0)
   10528:	01079793          	sll	a5,a5,0x10
   1052c:	fc842703          	lw	a4,-56(s0)
   10530:	01075a13          	srl	s4,a4,0x10
   10534:	0147ea33          	or	s4,a5,s4
   10538:	fcc42783          	lw	a5,-52(s0)
   1053c:	0107da93          	srl	s5,a5,0x10
   10540:	fc842603          	lw	a2,-56(s0)
   10544:	fcc42683          	lw	a3,-52(s0)
   10548:	01460733          	add	a4,a2,s4
   1054c:	00070593          	mv	a1,a4
   10550:	00c5b5b3          	sltu	a1,a1,a2
   10554:	015687b3          	add	a5,a3,s5
   10558:	00f586b3          	add	a3,a1,a5
   1055c:	00068793          	mv	a5,a3
   10560:	fce42423          	sw	a4,-56(s0)
   10564:	fcf42623          	sw	a5,-52(s0)
   10568:	fcc42783          	lw	a5,-52(s0)
   1056c:	0007d793          	srl	a5,a5,0x0
   10570:	f8f42c23          	sw	a5,-104(s0)
   10574:	f8042e23          	sw	zero,-100(s0)
   10578:	fc842603          	lw	a2,-56(s0)
   1057c:	fcc42683          	lw	a3,-52(s0)
   10580:	f9842803          	lw	a6,-104(s0)
   10584:	f9c42883          	lw	a7,-100(s0)
   10588:	00080593          	mv	a1,a6
   1058c:	00b60733          	add	a4,a2,a1
   10590:	00070593          	mv	a1,a4
   10594:	00c5b5b3          	sltu	a1,a1,a2
   10598:	00088513          	mv	a0,a7
   1059c:	00a687b3          	add	a5,a3,a0
   105a0:	00f586b3          	add	a3,a1,a5
   105a4:	00068793          	mv	a5,a3
   105a8:	fce42423          	sw	a4,-56(s0)
   105ac:	fcf42623          	sw	a5,-52(s0)
   105b0:	fc845783          	lhu	a5,-56(s0)
   105b4:	07f7f793          	and	a5,a5,127
   105b8:	01079793          	sll	a5,a5,0x10
   105bc:	0107d793          	srl	a5,a5,0x10
   105c0:	04000713          	li	a4,64
   105c4:	40f707b3          	sub	a5,a4,a5
   105c8:	01079793          	sll	a5,a5,0x10
   105cc:	0107d793          	srl	a5,a5,0x10
   105d0:	00078513          	mv	a0,a5
   105d4:	08c12403          	lw	s0,140(sp)
   105d8:	08812903          	lw	s2,136(sp)
   105dc:	08412983          	lw	s3,132(sp)
   105e0:	08012a03          	lw	s4,128(sp)
   105e4:	07c12a83          	lw	s5,124(sp)
   105e8:	07812b03          	lw	s6,120(sp)
   105ec:	07412b83          	lw	s7,116(sp)
   105f0:	07012c03          	lw	s8,112(sp)
   105f4:	06c12c83          	lw	s9,108(sp)
   105f8:	06812d03          	lw	s10,104(sp)
   105fc:	06412d83          	lw	s11,100(sp)
   10600:	09010113          	add	sp,sp,144
   10604:	00008067          	ret

00010608 <palindrome_detected>:
   10608:	f7010113          	add	sp,sp,-144
   1060c:	08812623          	sw	s0,140(sp)
   10610:	09212423          	sw	s2,136(sp)
   10614:	09312223          	sw	s3,132(sp)
   10618:	09412023          	sw	s4,128(sp)
   1061c:	07512e23          	sw	s5,124(sp)
   10620:	07612c23          	sw	s6,120(sp)
   10624:	07712a23          	sw	s7,116(sp)
   10628:	07812823          	sw	s8,112(sp)
   1062c:	07912623          	sw	s9,108(sp)
   10630:	07a12423          	sw	s10,104(sp)
   10634:	07b12223          	sw	s11,100(sp)
   10638:	09010413          	add	s0,sp,144
   1063c:	f8a42423          	sw	a0,-120(s0)
   10640:	f8b42623          	sw	a1,-116(s0)
   10644:	f8c42223          	sw	a2,-124(s0)
   10648:	04000613          	li	a2,64
   1064c:	f8442683          	lw	a3,-124(s0)
   10650:	40d606b3          	sub	a3,a2,a3
   10654:	fad42823          	sw	a3,-80(s0)
   10658:	41f6d693          	sra	a3,a3,0x1f
   1065c:	fad42a23          	sw	a3,-76(s0)
   10660:	fb042683          	lw	a3,-80(s0)
   10664:	0016f713          	and	a4,a3,1
   10668:	fb442683          	lw	a3,-76(s0)
   1066c:	0006f793          	and	a5,a3,0
   10670:	fae42423          	sw	a4,-88(s0)
   10674:	faf42623          	sw	a5,-84(s0)
   10678:	fb042703          	lw	a4,-80(s0)
   1067c:	fb442783          	lw	a5,-76(s0)
   10680:	01f79693          	sll	a3,a5,0x1f
   10684:	00175d13          	srl	s10,a4,0x1
   10688:	01a6ed33          	or	s10,a3,s10
   1068c:	0017dd93          	srl	s11,a5,0x1
   10690:	000d0793          	mv	a5,s10
   10694:	fe078713          	add	a4,a5,-32
   10698:	00074a63          	bltz	a4,106ac <palindrome_detected+0xa4>
   1069c:	f8c42783          	lw	a5,-116(s0)
   106a0:	00e7da33          	srl	s4,a5,a4
   106a4:	00000a93          	li	s5,0
   106a8:	02c0006f          	j	106d4 <palindrome_detected+0xcc>
   106ac:	f8c42703          	lw	a4,-116(s0)
   106b0:	00171693          	sll	a3,a4,0x1
   106b4:	01f00713          	li	a4,31
   106b8:	40f70733          	sub	a4,a4,a5
   106bc:	00e69733          	sll	a4,a3,a4
   106c0:	f8842683          	lw	a3,-120(s0)
   106c4:	00f6da33          	srl	s4,a3,a5
   106c8:	01476a33          	or	s4,a4,s4
   106cc:	f8c42703          	lw	a4,-116(s0)
   106d0:	00f75ab3          	srl	s5,a4,a5
   106d4:	fb442023          	sw	s4,-96(s0)
   106d8:	fb542223          	sw	s5,-92(s0)
   106dc:	fa842783          	lw	a5,-88(s0)
   106e0:	fe078713          	add	a4,a5,-32
   106e4:	00074a63          	bltz	a4,106f8 <palindrome_detected+0xf0>
   106e8:	fa442783          	lw	a5,-92(s0)
   106ec:	00e7d933          	srl	s2,a5,a4
   106f0:	00000993          	li	s3,0
   106f4:	02c0006f          	j	10720 <palindrome_detected+0x118>
   106f8:	fa442703          	lw	a4,-92(s0)
   106fc:	00171693          	sll	a3,a4,0x1
   10700:	01f00713          	li	a4,31
   10704:	40f70733          	sub	a4,a4,a5
   10708:	00e69733          	sll	a4,a3,a4
   1070c:	fa042683          	lw	a3,-96(s0)
   10710:	00f6d933          	srl	s2,a3,a5
   10714:	01276933          	or	s2,a4,s2
   10718:	fa442703          	lw	a4,-92(s0)
   1071c:	00f759b3          	srl	s3,a4,a5
   10720:	fb242023          	sw	s2,-96(s0)
   10724:	fb342223          	sw	s3,-92(s0)
   10728:	fb042703          	lw	a4,-80(s0)
   1072c:	fb442783          	lw	a5,-76(s0)
   10730:	01f79693          	sll	a3,a5,0x1f
   10734:	00175813          	srl	a6,a4,0x1
   10738:	0106e833          	or	a6,a3,a6
   1073c:	0017d893          	srl	a7,a5,0x1
   10740:	fa842603          	lw	a2,-88(s0)
   10744:	fac42683          	lw	a3,-84(s0)
   10748:	00c80733          	add	a4,a6,a2
   1074c:	00070593          	mv	a1,a4
   10750:	0105b5b3          	sltu	a1,a1,a6
   10754:	00d887b3          	add	a5,a7,a3
   10758:	00f586b3          	add	a3,a1,a5
   1075c:	00068793          	mv	a5,a3
   10760:	00070613          	mv	a2,a4
   10764:	00078693          	mv	a3,a5
   10768:	fb042503          	lw	a0,-80(s0)
   1076c:	fb442583          	lw	a1,-76(s0)
   10770:	40a60733          	sub	a4,a2,a0
   10774:	00070813          	mv	a6,a4
   10778:	01063833          	sltu	a6,a2,a6
   1077c:	40b687b3          	sub	a5,a3,a1
   10780:	410786b3          	sub	a3,a5,a6
   10784:	00068793          	mv	a5,a3
   10788:	00070613          	mv	a2,a4
   1078c:	00078693          	mv	a3,a5
   10790:	04000513          	li	a0,64
   10794:	00000593          	li	a1,0
   10798:	00a60733          	add	a4,a2,a0
   1079c:	00070813          	mv	a6,a4
   107a0:	00c83833          	sltu	a6,a6,a2
   107a4:	00b687b3          	add	a5,a3,a1
   107a8:	00f806b3          	add	a3,a6,a5
   107ac:	00068793          	mv	a5,a3
   107b0:	f8e42c23          	sw	a4,-104(s0)
   107b4:	f8f42e23          	sw	a5,-100(s0)
   107b8:	f9842783          	lw	a5,-104(s0)
   107bc:	fe078713          	add	a4,a5,-32
   107c0:	00074a63          	bltz	a4,107d4 <palindrome_detected+0x1cc>
   107c4:	f8842783          	lw	a5,-120(s0)
   107c8:	00e79fb3          	sll	t6,a5,a4
   107cc:	00000f13          	li	t5,0
   107d0:	02c0006f          	j	107fc <palindrome_detected+0x1f4>
   107d4:	f8842703          	lw	a4,-120(s0)
   107d8:	00175693          	srl	a3,a4,0x1
   107dc:	01f00713          	li	a4,31
   107e0:	40f70733          	sub	a4,a4,a5
   107e4:	00e6d733          	srl	a4,a3,a4
   107e8:	f8c42683          	lw	a3,-116(s0)
   107ec:	00f69fb3          	sll	t6,a3,a5
   107f0:	01f76fb3          	or	t6,a4,t6
   107f4:	f8842703          	lw	a4,-120(s0)
   107f8:	00f71f33          	sll	t5,a4,a5
   107fc:	f9e42823          	sw	t5,-112(s0)
   10800:	f9f42a23          	sw	t6,-108(s0)
   10804:	f9842783          	lw	a5,-104(s0)
   10808:	fe078713          	add	a4,a5,-32
   1080c:	00074a63          	bltz	a4,10820 <palindrome_detected+0x218>
   10810:	f9442783          	lw	a5,-108(s0)
   10814:	00e7de33          	srl	t3,a5,a4
   10818:	00000e93          	li	t4,0
   1081c:	02c0006f          	j	10848 <palindrome_detected+0x240>
   10820:	f9442703          	lw	a4,-108(s0)
   10824:	00171693          	sll	a3,a4,0x1
   10828:	01f00713          	li	a4,31
   1082c:	40f70733          	sub	a4,a4,a5
   10830:	00e69733          	sll	a4,a3,a4
   10834:	f9042683          	lw	a3,-112(s0)
   10838:	00f6de33          	srl	t3,a3,a5
   1083c:	01c76e33          	or	t3,a4,t3
   10840:	f9442703          	lw	a4,-108(s0)
   10844:	00f75eb3          	srl	t4,a4,a5
   10848:	f9c42823          	sw	t3,-112(s0)
   1084c:	f9d42a23          	sw	t4,-108(s0)
   10850:	00000793          	li	a5,0
   10854:	00000813          	li	a6,0
   10858:	fcf42423          	sw	a5,-56(s0)
   1085c:	fd042623          	sw	a6,-52(s0)
   10860:	fa042703          	lw	a4,-96(s0)
   10864:	fa442783          	lw	a5,-92(s0)
   10868:	fce42023          	sw	a4,-64(s0)
   1086c:	fcf42223          	sw	a5,-60(s0)
   10870:	fa042e23          	sw	zero,-68(s0)
   10874:	0a80006f          	j	1091c <palindrome_detected+0x314>
   10878:	fc842783          	lw	a5,-56(s0)
   1087c:	01f7d793          	srl	a5,a5,0x1f
   10880:	fcc42703          	lw	a4,-52(s0)
   10884:	00171b93          	sll	s7,a4,0x1
   10888:	0177ebb3          	or	s7,a5,s7
   1088c:	fc842783          	lw	a5,-56(s0)
   10890:	00179b13          	sll	s6,a5,0x1
   10894:	fd642423          	sw	s6,-56(s0)
   10898:	fd742623          	sw	s7,-52(s0)
   1089c:	fc042783          	lw	a5,-64(s0)
   108a0:	0017f793          	and	a5,a5,1
   108a4:	f6f42c23          	sw	a5,-136(s0)
   108a8:	fc442783          	lw	a5,-60(s0)
   108ac:	0007f793          	and	a5,a5,0
   108b0:	f6f42e23          	sw	a5,-132(s0)
   108b4:	fc842783          	lw	a5,-56(s0)
   108b8:	f7842603          	lw	a2,-136(s0)
   108bc:	f7c42683          	lw	a3,-132(s0)
   108c0:	00060713          	mv	a4,a2
   108c4:	00e7e7b3          	or	a5,a5,a4
   108c8:	f6f42823          	sw	a5,-144(s0)
   108cc:	fcc42783          	lw	a5,-52(s0)
   108d0:	00068713          	mv	a4,a3
   108d4:	00e7e7b3          	or	a5,a5,a4
   108d8:	f6f42a23          	sw	a5,-140(s0)
   108dc:	f7042783          	lw	a5,-144(s0)
   108e0:	f7442803          	lw	a6,-140(s0)
   108e4:	fcf42423          	sw	a5,-56(s0)
   108e8:	fd042623          	sw	a6,-52(s0)
   108ec:	fc442783          	lw	a5,-60(s0)
   108f0:	01f79793          	sll	a5,a5,0x1f
   108f4:	fc042703          	lw	a4,-64(s0)
   108f8:	00175c13          	srl	s8,a4,0x1
   108fc:	0187ec33          	or	s8,a5,s8
   10900:	fc442783          	lw	a5,-60(s0)
   10904:	0017dc93          	srl	s9,a5,0x1
   10908:	fd842023          	sw	s8,-64(s0)
   1090c:	fd942223          	sw	s9,-60(s0)
   10910:	fbc42783          	lw	a5,-68(s0)
   10914:	00178793          	add	a5,a5,1
   10918:	faf42e23          	sw	a5,-68(s0)
   1091c:	fbc42703          	lw	a4,-68(s0)
   10920:	03f00793          	li	a5,63
   10924:	f4e7dae3          	bge	a5,a4,10878 <palindrome_detected+0x270>
   10928:	f9842783          	lw	a5,-104(s0)
   1092c:	fe078713          	add	a4,a5,-32
   10930:	00074a63          	bltz	a4,10944 <palindrome_detected+0x33c>
   10934:	fcc42783          	lw	a5,-52(s0)
   10938:	00e7d333          	srl	t1,a5,a4
   1093c:	00000393          	li	t2,0
   10940:	02c0006f          	j	1096c <palindrome_detected+0x364>
   10944:	fcc42703          	lw	a4,-52(s0)
   10948:	00171693          	sll	a3,a4,0x1
   1094c:	01f00713          	li	a4,31
   10950:	40f70733          	sub	a4,a4,a5
   10954:	00e69733          	sll	a4,a3,a4
   10958:	fc842683          	lw	a3,-56(s0)
   1095c:	00f6d333          	srl	t1,a3,a5
   10960:	00676333          	or	t1,a4,t1
   10964:	fcc42703          	lw	a4,-52(s0)
   10968:	00f753b3          	srl	t2,a4,a5
   1096c:	fc642423          	sw	t1,-56(s0)
   10970:	fc742623          	sw	t2,-52(s0)
   10974:	fc842703          	lw	a4,-56(s0)
   10978:	f9042783          	lw	a5,-112(s0)
   1097c:	00f71c63          	bne	a4,a5,10994 <palindrome_detected+0x38c>
   10980:	fcc42703          	lw	a4,-52(s0)
   10984:	f9442783          	lw	a5,-108(s0)
   10988:	00f71663          	bne	a4,a5,10994 <palindrome_detected+0x38c>
   1098c:	00100793          	li	a5,1
   10990:	0080006f          	j	10998 <palindrome_detected+0x390>
   10994:	00000793          	li	a5,0
   10998:	00078513          	mv	a0,a5
   1099c:	08c12403          	lw	s0,140(sp)
   109a0:	08812903          	lw	s2,136(sp)
   109a4:	08412983          	lw	s3,132(sp)
   109a8:	08012a03          	lw	s4,128(sp)
   109ac:	07c12a83          	lw	s5,124(sp)
   109b0:	07812b03          	lw	s6,120(sp)
   109b4:	07412b83          	lw	s7,116(sp)
   109b8:	07012c03          	lw	s8,112(sp)
   109bc:	06c12c83          	lw	s9,108(sp)
   109c0:	06812d03          	lw	s10,104(sp)
   109c4:	06412d83          	lw	s11,100(sp)
   109c8:	09010113          	add	sp,sp,144
   109cc:	00008067          	ret

000109d0 <getticks>:
   109d0:	fd010113          	add	sp,sp,-48
   109d4:	02812623          	sw	s0,44(sp)
   109d8:	03010413          	add	s0,sp,48
   109dc:	c8002373          	rdcycleh	t1
   109e0:	c00028f3          	rdcycle	a7
   109e4:	c8002873          	rdcycleh	a6
   109e8:	41030333          	sub	t1,t1,a6
   109ec:	00133313          	seqz	t1,t1
   109f0:	40600333          	neg	t1,t1
   109f4:	0068f8b3          	and	a7,a7,t1
   109f8:	fe642623          	sw	t1,-20(s0)
   109fc:	ff142423          	sw	a7,-24(s0)
   10a00:	ff042223          	sw	a6,-28(s0)
   10a04:	fec42803          	lw	a6,-20(s0)
   10a08:	00080513          	mv	a0,a6
   10a0c:	00000593          	li	a1,0
   10a10:	00051793          	sll	a5,a0,0x0
   10a14:	00000713          	li	a4,0
   10a18:	fe842583          	lw	a1,-24(s0)
   10a1c:	00058613          	mv	a2,a1
   10a20:	00000693          	li	a3,0
   10a24:	00c765b3          	or	a1,a4,a2
   10a28:	fcb42c23          	sw	a1,-40(s0)
   10a2c:	00d7e7b3          	or	a5,a5,a3
   10a30:	fcf42e23          	sw	a5,-36(s0)
   10a34:	fd842703          	lw	a4,-40(s0)
   10a38:	fdc42783          	lw	a5,-36(s0)
   10a3c:	00070513          	mv	a0,a4
   10a40:	00078593          	mv	a1,a5
   10a44:	02c12403          	lw	s0,44(sp)
   10a48:	03010113          	add	sp,sp,48
   10a4c:	00008067          	ret

00010a50 <main>:
   10a50:	fd010113          	add	sp,sp,-48
   10a54:	02112623          	sw	ra,44(sp)
   10a58:	02812423          	sw	s0,40(sp)
   10a5c:	03010413          	add	s0,sp,48
   10a60:	00300713          	li	a4,3
   10a64:	000017b7          	lui	a5,0x1
   10a68:	c0078793          	add	a5,a5,-1024 # c00 <exit-0xf494>
   10a6c:	fee42423          	sw	a4,-24(s0)
   10a70:	fef42623          	sw	a5,-20(s0)
   10a74:	f5dff0ef          	jal	109d0 <getticks>
   10a78:	fea42023          	sw	a0,-32(s0)
   10a7c:	feb42223          	sw	a1,-28(s0)
   10a80:	fe842503          	lw	a0,-24(s0)
   10a84:	fec42583          	lw	a1,-20(s0)
   10a88:	ef8ff0ef          	jal	10180 <count_leading_zeros>
   10a8c:	00050793          	mv	a5,a0
   10a90:	00078613          	mv	a2,a5
   10a94:	fe842503          	lw	a0,-24(s0)
   10a98:	fec42583          	lw	a1,-20(s0)
   10a9c:	b6dff0ef          	jal	10608 <palindrome_detected>
   10aa0:	00050793          	mv	a5,a0
   10aa4:	00078593          	mv	a1,a5
   10aa8:	000227b7          	lui	a5,0x22
   10aac:	23078513          	add	a0,a5,560 # 22230 <__clzsi2+0x8c>
   10ab0:	5f4000ef          	jal	110a4 <printf>
   10ab4:	f1dff0ef          	jal	109d0 <getticks>
   10ab8:	fca42c23          	sw	a0,-40(s0)
   10abc:	fcb42e23          	sw	a1,-36(s0)
   10ac0:	fd842703          	lw	a4,-40(s0)
   10ac4:	fdc42783          	lw	a5,-36(s0)
   10ac8:	fe042503          	lw	a0,-32(s0)
   10acc:	fe442583          	lw	a1,-28(s0)
   10ad0:	40a70633          	sub	a2,a4,a0
   10ad4:	00060813          	mv	a6,a2
   10ad8:	01073833          	sltu	a6,a4,a6
   10adc:	40b786b3          	sub	a3,a5,a1
   10ae0:	410687b3          	sub	a5,a3,a6
   10ae4:	00078693          	mv	a3,a5
   10ae8:	00060713          	mv	a4,a2
   10aec:	00068793          	mv	a5,a3
   10af0:	00070613          	mv	a2,a4
   10af4:	00078693          	mv	a3,a5
   10af8:	000227b7          	lui	a5,0x22
   10afc:	23478513          	add	a0,a5,564 # 22234 <__clzsi2+0x90>
   10b00:	5a4000ef          	jal	110a4 <printf>
   10b04:	00000793          	li	a5,0
   10b08:	00078513          	mv	a0,a5
   10b0c:	02c12083          	lw	ra,44(sp)
   10b10:	02812403          	lw	s0,40(sp)
   10b14:	03010113          	add	sp,sp,48
   10b18:	00008067          	ret

00010b1c <atexit>:
   10b1c:	00050593          	mv	a1,a0
   10b20:	00000693          	li	a3,0
   10b24:	00000613          	li	a2,0
   10b28:	00000513          	li	a0,0
   10b2c:	3550006f          	j	11680 <__register_exitproc>

00010b30 <stdio_exit_handler>:
   10b30:	00013617          	auipc	a2,0x13
   10b34:	6a060613          	add	a2,a2,1696 # 241d0 <__sglue>
   10b38:	00006597          	auipc	a1,0x6
   10b3c:	13458593          	add	a1,a1,308 # 16c6c <_fclose_r>
   10b40:	00013517          	auipc	a0,0x13
   10b44:	6a050513          	add	a0,a0,1696 # 241e0 <_impure_data>
   10b48:	4680006f          	j	10fb0 <_fwalk_sglue>

00010b4c <cleanup_stdio>:
   10b4c:	00452583          	lw	a1,4(a0)
   10b50:	ff010113          	add	sp,sp,-16
   10b54:	00812423          	sw	s0,8(sp)
   10b58:	00112623          	sw	ra,12(sp)
   10b5c:	fa818793          	add	a5,gp,-88 # 24978 <__sf>
   10b60:	00050413          	mv	s0,a0
   10b64:	00f58463          	beq	a1,a5,10b6c <cleanup_stdio+0x20>
   10b68:	104060ef          	jal	16c6c <_fclose_r>
   10b6c:	00842583          	lw	a1,8(s0)
   10b70:	01018793          	add	a5,gp,16 # 249e0 <__global_pointer$+0x10>
   10b74:	00f58663          	beq	a1,a5,10b80 <cleanup_stdio+0x34>
   10b78:	00040513          	mv	a0,s0
   10b7c:	0f0060ef          	jal	16c6c <_fclose_r>
   10b80:	00c42583          	lw	a1,12(s0)
   10b84:	07818793          	add	a5,gp,120 # 24a48 <__global_pointer$+0x78>
   10b88:	00f58c63          	beq	a1,a5,10ba0 <cleanup_stdio+0x54>
   10b8c:	00040513          	mv	a0,s0
   10b90:	00812403          	lw	s0,8(sp)
   10b94:	00c12083          	lw	ra,12(sp)
   10b98:	01010113          	add	sp,sp,16
   10b9c:	0d00606f          	j	16c6c <_fclose_r>
   10ba0:	00c12083          	lw	ra,12(sp)
   10ba4:	00812403          	lw	s0,8(sp)
   10ba8:	01010113          	add	sp,sp,16
   10bac:	00008067          	ret

00010bb0 <__fp_lock>:
   10bb0:	0645a783          	lw	a5,100(a1)
   10bb4:	0017f793          	and	a5,a5,1
   10bb8:	00079863          	bnez	a5,10bc8 <__fp_lock+0x18>
   10bbc:	00c5d783          	lhu	a5,12(a1)
   10bc0:	2007f793          	and	a5,a5,512
   10bc4:	00078663          	beqz	a5,10bd0 <__fp_lock+0x20>
   10bc8:	00000513          	li	a0,0
   10bcc:	00008067          	ret
   10bd0:	0585a503          	lw	a0,88(a1)
   10bd4:	ff010113          	add	sp,sp,-16
   10bd8:	00112623          	sw	ra,12(sp)
   10bdc:	1ad000ef          	jal	11588 <__retarget_lock_acquire_recursive>
   10be0:	00c12083          	lw	ra,12(sp)
   10be4:	00000513          	li	a0,0
   10be8:	01010113          	add	sp,sp,16
   10bec:	00008067          	ret

00010bf0 <__fp_unlock>:
   10bf0:	0645a783          	lw	a5,100(a1)
   10bf4:	0017f793          	and	a5,a5,1
   10bf8:	00079863          	bnez	a5,10c08 <__fp_unlock+0x18>
   10bfc:	00c5d783          	lhu	a5,12(a1)
   10c00:	2007f793          	and	a5,a5,512
   10c04:	00078663          	beqz	a5,10c10 <__fp_unlock+0x20>
   10c08:	00000513          	li	a0,0
   10c0c:	00008067          	ret
   10c10:	0585a503          	lw	a0,88(a1)
   10c14:	ff010113          	add	sp,sp,-16
   10c18:	00112623          	sw	ra,12(sp)
   10c1c:	185000ef          	jal	115a0 <__retarget_lock_release_recursive>
   10c20:	00c12083          	lw	ra,12(sp)
   10c24:	00000513          	li	a0,0
   10c28:	01010113          	add	sp,sp,16
   10c2c:	00008067          	ret

00010c30 <global_stdio_init.part.0>:
   10c30:	fe010113          	add	sp,sp,-32
   10c34:	00000797          	auipc	a5,0x0
   10c38:	efc78793          	add	a5,a5,-260 # 10b30 <stdio_exit_handler>
   10c3c:	00112e23          	sw	ra,28(sp)
   10c40:	00812c23          	sw	s0,24(sp)
   10c44:	00912a23          	sw	s1,20(sp)
   10c48:	fa818413          	add	s0,gp,-88 # 24978 <__sf>
   10c4c:	01212823          	sw	s2,16(sp)
   10c50:	01312623          	sw	s3,12(sp)
   10c54:	01412423          	sw	s4,8(sp)
   10c58:	00800613          	li	a2,8
   10c5c:	00000593          	li	a1,0
   10c60:	f4f1a623          	sw	a5,-180(gp) # 2491c <__stdio_exit_handler>
   10c64:	00418513          	add	a0,gp,4 # 249d4 <__global_pointer$+0x4>
   10c68:	00400793          	li	a5,4
   10c6c:	00f42623          	sw	a5,12(s0)
   10c70:	00042023          	sw	zero,0(s0)
   10c74:	00042223          	sw	zero,4(s0)
   10c78:	00042423          	sw	zero,8(s0)
   10c7c:	06042223          	sw	zero,100(s0)
   10c80:	00042823          	sw	zero,16(s0)
   10c84:	00042a23          	sw	zero,20(s0)
   10c88:	00042c23          	sw	zero,24(s0)
   10c8c:	119000ef          	jal	115a4 <memset>
   10c90:	00000a17          	auipc	s4,0x0
   10c94:	460a0a13          	add	s4,s4,1120 # 110f0 <__sread>
   10c98:	00000997          	auipc	s3,0x0
   10c9c:	4bc98993          	add	s3,s3,1212 # 11154 <__swrite>
   10ca0:	00000917          	auipc	s2,0x0
   10ca4:	53c90913          	add	s2,s2,1340 # 111dc <__sseek>
   10ca8:	00000497          	auipc	s1,0x0
   10cac:	5ac48493          	add	s1,s1,1452 # 11254 <__sclose>
   10cb0:	00018513          	mv	a0,gp
   10cb4:	03442023          	sw	s4,32(s0)
   10cb8:	03342223          	sw	s3,36(s0)
   10cbc:	03242423          	sw	s2,40(s0)
   10cc0:	02942623          	sw	s1,44(s0)
   10cc4:	00842e23          	sw	s0,28(s0)
   10cc8:	0b1000ef          	jal	11578 <__retarget_lock_init_recursive>
   10ccc:	000107b7          	lui	a5,0x10
   10cd0:	00978793          	add	a5,a5,9 # 10009 <exit-0x8b>
   10cd4:	00800613          	li	a2,8
   10cd8:	00000593          	li	a1,0
   10cdc:	06c18513          	add	a0,gp,108 # 24a3c <__global_pointer$+0x6c>
   10ce0:	06f42a23          	sw	a5,116(s0)
   10ce4:	06042423          	sw	zero,104(s0)
   10ce8:	06042623          	sw	zero,108(s0)
   10cec:	06042823          	sw	zero,112(s0)
   10cf0:	0c042623          	sw	zero,204(s0)
   10cf4:	06042c23          	sw	zero,120(s0)
   10cf8:	06042e23          	sw	zero,124(s0)
   10cfc:	08042023          	sw	zero,128(s0)
   10d00:	0a5000ef          	jal	115a4 <memset>
   10d04:	01018793          	add	a5,gp,16 # 249e0 <__global_pointer$+0x10>
   10d08:	06818513          	add	a0,gp,104 # 24a38 <__global_pointer$+0x68>
   10d0c:	08f42223          	sw	a5,132(s0)
   10d10:	09442423          	sw	s4,136(s0)
   10d14:	09342623          	sw	s3,140(s0)
   10d18:	09242823          	sw	s2,144(s0)
   10d1c:	08942a23          	sw	s1,148(s0)
   10d20:	059000ef          	jal	11578 <__retarget_lock_init_recursive>
   10d24:	000207b7          	lui	a5,0x20
   10d28:	01278793          	add	a5,a5,18 # 20012 <__divdf3+0x14e>
   10d2c:	00800613          	li	a2,8
   10d30:	00000593          	li	a1,0
   10d34:	0d418513          	add	a0,gp,212 # 24aa4 <__global_pointer$+0xd4>
   10d38:	0cf42e23          	sw	a5,220(s0)
   10d3c:	0c042823          	sw	zero,208(s0)
   10d40:	0c042a23          	sw	zero,212(s0)
   10d44:	0c042c23          	sw	zero,216(s0)
   10d48:	12042a23          	sw	zero,308(s0)
   10d4c:	0e042023          	sw	zero,224(s0)
   10d50:	0e042223          	sw	zero,228(s0)
   10d54:	0e042423          	sw	zero,232(s0)
   10d58:	04d000ef          	jal	115a4 <memset>
   10d5c:	07818793          	add	a5,gp,120 # 24a48 <__global_pointer$+0x78>
   10d60:	0f442823          	sw	s4,240(s0)
   10d64:	0f342a23          	sw	s3,244(s0)
   10d68:	0f242c23          	sw	s2,248(s0)
   10d6c:	0e942e23          	sw	s1,252(s0)
   10d70:	0ef42623          	sw	a5,236(s0)
   10d74:	01812403          	lw	s0,24(sp)
   10d78:	01c12083          	lw	ra,28(sp)
   10d7c:	01412483          	lw	s1,20(sp)
   10d80:	01012903          	lw	s2,16(sp)
   10d84:	00c12983          	lw	s3,12(sp)
   10d88:	00812a03          	lw	s4,8(sp)
   10d8c:	0d018513          	add	a0,gp,208 # 24aa0 <__global_pointer$+0xd0>
   10d90:	02010113          	add	sp,sp,32
   10d94:	7e40006f          	j	11578 <__retarget_lock_init_recursive>

00010d98 <__sfp>:
   10d98:	fe010113          	add	sp,sp,-32
   10d9c:	01312623          	sw	s3,12(sp)
   10da0:	00050993          	mv	s3,a0
   10da4:	f7018513          	add	a0,gp,-144 # 24940 <__lock___sfp_recursive_mutex>
   10da8:	00112e23          	sw	ra,28(sp)
   10dac:	00812c23          	sw	s0,24(sp)
   10db0:	00912a23          	sw	s1,20(sp)
   10db4:	01212823          	sw	s2,16(sp)
   10db8:	7d0000ef          	jal	11588 <__retarget_lock_acquire_recursive>
   10dbc:	f4c1a783          	lw	a5,-180(gp) # 2491c <__stdio_exit_handler>
   10dc0:	10078063          	beqz	a5,10ec0 <__sfp+0x128>
   10dc4:	00013917          	auipc	s2,0x13
   10dc8:	40c90913          	add	s2,s2,1036 # 241d0 <__sglue>
   10dcc:	fff00493          	li	s1,-1
   10dd0:	00492783          	lw	a5,4(s2)
   10dd4:	00892403          	lw	s0,8(s2)
   10dd8:	fff78793          	add	a5,a5,-1
   10ddc:	0007d863          	bgez	a5,10dec <__sfp+0x54>
   10de0:	0900006f          	j	10e70 <__sfp+0xd8>
   10de4:	06840413          	add	s0,s0,104
   10de8:	08978463          	beq	a5,s1,10e70 <__sfp+0xd8>
   10dec:	00c41703          	lh	a4,12(s0)
   10df0:	fff78793          	add	a5,a5,-1
   10df4:	fe0718e3          	bnez	a4,10de4 <__sfp+0x4c>
   10df8:	ffff07b7          	lui	a5,0xffff0
   10dfc:	00178793          	add	a5,a5,1 # ffff0001 <__BSS_END__+0xfffcb0f1>
   10e00:	00f42623          	sw	a5,12(s0)
   10e04:	05840513          	add	a0,s0,88
   10e08:	06042223          	sw	zero,100(s0)
   10e0c:	76c000ef          	jal	11578 <__retarget_lock_init_recursive>
   10e10:	f7018513          	add	a0,gp,-144 # 24940 <__lock___sfp_recursive_mutex>
   10e14:	78c000ef          	jal	115a0 <__retarget_lock_release_recursive>
   10e18:	00800613          	li	a2,8
   10e1c:	00042023          	sw	zero,0(s0)
   10e20:	00042423          	sw	zero,8(s0)
   10e24:	00042223          	sw	zero,4(s0)
   10e28:	00042823          	sw	zero,16(s0)
   10e2c:	00042a23          	sw	zero,20(s0)
   10e30:	00042c23          	sw	zero,24(s0)
   10e34:	00000593          	li	a1,0
   10e38:	05c40513          	add	a0,s0,92
   10e3c:	768000ef          	jal	115a4 <memset>
   10e40:	02042823          	sw	zero,48(s0)
   10e44:	02042a23          	sw	zero,52(s0)
   10e48:	04042223          	sw	zero,68(s0)
   10e4c:	04042423          	sw	zero,72(s0)
   10e50:	01c12083          	lw	ra,28(sp)
   10e54:	00040513          	mv	a0,s0
   10e58:	01812403          	lw	s0,24(sp)
   10e5c:	01412483          	lw	s1,20(sp)
   10e60:	01012903          	lw	s2,16(sp)
   10e64:	00c12983          	lw	s3,12(sp)
   10e68:	02010113          	add	sp,sp,32
   10e6c:	00008067          	ret
   10e70:	00092403          	lw	s0,0(s2)
   10e74:	00040663          	beqz	s0,10e80 <__sfp+0xe8>
   10e78:	00040913          	mv	s2,s0
   10e7c:	f55ff06f          	j	10dd0 <__sfp+0x38>
   10e80:	1ac00593          	li	a1,428
   10e84:	00098513          	mv	a0,s3
   10e88:	669000ef          	jal	11cf0 <_malloc_r>
   10e8c:	00050413          	mv	s0,a0
   10e90:	02050c63          	beqz	a0,10ec8 <__sfp+0x130>
   10e94:	00c50513          	add	a0,a0,12
   10e98:	00400793          	li	a5,4
   10e9c:	00042023          	sw	zero,0(s0)
   10ea0:	00f42223          	sw	a5,4(s0)
   10ea4:	00a42423          	sw	a0,8(s0)
   10ea8:	1a000613          	li	a2,416
   10eac:	00000593          	li	a1,0
   10eb0:	6f4000ef          	jal	115a4 <memset>
   10eb4:	00892023          	sw	s0,0(s2)
   10eb8:	00040913          	mv	s2,s0
   10ebc:	f15ff06f          	j	10dd0 <__sfp+0x38>
   10ec0:	d71ff0ef          	jal	10c30 <global_stdio_init.part.0>
   10ec4:	f01ff06f          	j	10dc4 <__sfp+0x2c>
   10ec8:	00092023          	sw	zero,0(s2)
   10ecc:	f7018513          	add	a0,gp,-144 # 24940 <__lock___sfp_recursive_mutex>
   10ed0:	6d0000ef          	jal	115a0 <__retarget_lock_release_recursive>
   10ed4:	00c00793          	li	a5,12
   10ed8:	00f9a023          	sw	a5,0(s3)
   10edc:	f75ff06f          	j	10e50 <__sfp+0xb8>

00010ee0 <__sinit>:
   10ee0:	ff010113          	add	sp,sp,-16
   10ee4:	00812423          	sw	s0,8(sp)
   10ee8:	00050413          	mv	s0,a0
   10eec:	f7018513          	add	a0,gp,-144 # 24940 <__lock___sfp_recursive_mutex>
   10ef0:	00112623          	sw	ra,12(sp)
   10ef4:	694000ef          	jal	11588 <__retarget_lock_acquire_recursive>
   10ef8:	03442783          	lw	a5,52(s0)
   10efc:	00079c63          	bnez	a5,10f14 <__sinit+0x34>
   10f00:	00000797          	auipc	a5,0x0
   10f04:	c4c78793          	add	a5,a5,-948 # 10b4c <cleanup_stdio>
   10f08:	02f42a23          	sw	a5,52(s0)
   10f0c:	f4c1a783          	lw	a5,-180(gp) # 2491c <__stdio_exit_handler>
   10f10:	00078c63          	beqz	a5,10f28 <__sinit+0x48>
   10f14:	00812403          	lw	s0,8(sp)
   10f18:	00c12083          	lw	ra,12(sp)
   10f1c:	f7018513          	add	a0,gp,-144 # 24940 <__lock___sfp_recursive_mutex>
   10f20:	01010113          	add	sp,sp,16
   10f24:	67c0006f          	j	115a0 <__retarget_lock_release_recursive>
   10f28:	d09ff0ef          	jal	10c30 <global_stdio_init.part.0>
   10f2c:	00812403          	lw	s0,8(sp)
   10f30:	00c12083          	lw	ra,12(sp)
   10f34:	f7018513          	add	a0,gp,-144 # 24940 <__lock___sfp_recursive_mutex>
   10f38:	01010113          	add	sp,sp,16
   10f3c:	6640006f          	j	115a0 <__retarget_lock_release_recursive>

00010f40 <__sfp_lock_acquire>:
   10f40:	f7018513          	add	a0,gp,-144 # 24940 <__lock___sfp_recursive_mutex>
   10f44:	6440006f          	j	11588 <__retarget_lock_acquire_recursive>

00010f48 <__sfp_lock_release>:
   10f48:	f7018513          	add	a0,gp,-144 # 24940 <__lock___sfp_recursive_mutex>
   10f4c:	6540006f          	j	115a0 <__retarget_lock_release_recursive>

00010f50 <__fp_lock_all>:
   10f50:	ff010113          	add	sp,sp,-16
   10f54:	f7018513          	add	a0,gp,-144 # 24940 <__lock___sfp_recursive_mutex>
   10f58:	00112623          	sw	ra,12(sp)
   10f5c:	62c000ef          	jal	11588 <__retarget_lock_acquire_recursive>
   10f60:	00c12083          	lw	ra,12(sp)
   10f64:	00013617          	auipc	a2,0x13
   10f68:	26c60613          	add	a2,a2,620 # 241d0 <__sglue>
   10f6c:	00000597          	auipc	a1,0x0
   10f70:	c4458593          	add	a1,a1,-956 # 10bb0 <__fp_lock>
   10f74:	00000513          	li	a0,0
   10f78:	01010113          	add	sp,sp,16
   10f7c:	0340006f          	j	10fb0 <_fwalk_sglue>

00010f80 <__fp_unlock_all>:
   10f80:	ff010113          	add	sp,sp,-16
   10f84:	00013617          	auipc	a2,0x13
   10f88:	24c60613          	add	a2,a2,588 # 241d0 <__sglue>
   10f8c:	00000597          	auipc	a1,0x0
   10f90:	c6458593          	add	a1,a1,-924 # 10bf0 <__fp_unlock>
   10f94:	00000513          	li	a0,0
   10f98:	00112623          	sw	ra,12(sp)
   10f9c:	014000ef          	jal	10fb0 <_fwalk_sglue>
   10fa0:	00c12083          	lw	ra,12(sp)
   10fa4:	f7018513          	add	a0,gp,-144 # 24940 <__lock___sfp_recursive_mutex>
   10fa8:	01010113          	add	sp,sp,16
   10fac:	5f40006f          	j	115a0 <__retarget_lock_release_recursive>

00010fb0 <_fwalk_sglue>:
   10fb0:	fd010113          	add	sp,sp,-48
   10fb4:	03212023          	sw	s2,32(sp)
   10fb8:	01312e23          	sw	s3,28(sp)
   10fbc:	01412c23          	sw	s4,24(sp)
   10fc0:	01512a23          	sw	s5,20(sp)
   10fc4:	01612823          	sw	s6,16(sp)
   10fc8:	01712623          	sw	s7,12(sp)
   10fcc:	02112623          	sw	ra,44(sp)
   10fd0:	02812423          	sw	s0,40(sp)
   10fd4:	02912223          	sw	s1,36(sp)
   10fd8:	00050b13          	mv	s6,a0
   10fdc:	00058b93          	mv	s7,a1
   10fe0:	00060a93          	mv	s5,a2
   10fe4:	00000a13          	li	s4,0
   10fe8:	00100993          	li	s3,1
   10fec:	fff00913          	li	s2,-1
   10ff0:	004aa483          	lw	s1,4(s5)
   10ff4:	008aa403          	lw	s0,8(s5)
   10ff8:	fff48493          	add	s1,s1,-1
   10ffc:	0204c863          	bltz	s1,1102c <_fwalk_sglue+0x7c>
   11000:	00c45783          	lhu	a5,12(s0)
   11004:	00f9fe63          	bgeu	s3,a5,11020 <_fwalk_sglue+0x70>
   11008:	00e41783          	lh	a5,14(s0)
   1100c:	00040593          	mv	a1,s0
   11010:	000b0513          	mv	a0,s6
   11014:	01278663          	beq	a5,s2,11020 <_fwalk_sglue+0x70>
   11018:	000b80e7          	jalr	s7
   1101c:	00aa6a33          	or	s4,s4,a0
   11020:	fff48493          	add	s1,s1,-1
   11024:	06840413          	add	s0,s0,104
   11028:	fd249ce3          	bne	s1,s2,11000 <_fwalk_sglue+0x50>
   1102c:	000aaa83          	lw	s5,0(s5)
   11030:	fc0a90e3          	bnez	s5,10ff0 <_fwalk_sglue+0x40>
   11034:	02c12083          	lw	ra,44(sp)
   11038:	02812403          	lw	s0,40(sp)
   1103c:	02412483          	lw	s1,36(sp)
   11040:	02012903          	lw	s2,32(sp)
   11044:	01c12983          	lw	s3,28(sp)
   11048:	01412a83          	lw	s5,20(sp)
   1104c:	01012b03          	lw	s6,16(sp)
   11050:	00c12b83          	lw	s7,12(sp)
   11054:	000a0513          	mv	a0,s4
   11058:	01812a03          	lw	s4,24(sp)
   1105c:	03010113          	add	sp,sp,48
   11060:	00008067          	ret

00011064 <_printf_r>:
   11064:	fc010113          	add	sp,sp,-64
   11068:	02c12423          	sw	a2,40(sp)
   1106c:	02d12623          	sw	a3,44(sp)
   11070:	02e12823          	sw	a4,48(sp)
   11074:	02f12a23          	sw	a5,52(sp)
   11078:	03012c23          	sw	a6,56(sp)
   1107c:	03112e23          	sw	a7,60(sp)
   11080:	00058613          	mv	a2,a1
   11084:	00852583          	lw	a1,8(a0)
   11088:	02810693          	add	a3,sp,40
   1108c:	00112e23          	sw	ra,28(sp)
   11090:	00d12623          	sw	a3,12(sp)
   11094:	434010ef          	jal	124c8 <_vfprintf_r>
   11098:	01c12083          	lw	ra,28(sp)
   1109c:	04010113          	add	sp,sp,64
   110a0:	00008067          	ret

000110a4 <printf>:
   110a4:	fc010113          	add	sp,sp,-64
   110a8:	02c12423          	sw	a2,40(sp)
   110ac:	02d12623          	sw	a3,44(sp)
   110b0:	f341a303          	lw	t1,-204(gp) # 24904 <_impure_ptr>
   110b4:	02b12223          	sw	a1,36(sp)
   110b8:	02e12823          	sw	a4,48(sp)
   110bc:	02f12a23          	sw	a5,52(sp)
   110c0:	03012c23          	sw	a6,56(sp)
   110c4:	03112e23          	sw	a7,60(sp)
   110c8:	00832583          	lw	a1,8(t1) # 1017c <frame_dummy+0x1c>
   110cc:	02410693          	add	a3,sp,36
   110d0:	00050613          	mv	a2,a0
   110d4:	00030513          	mv	a0,t1
   110d8:	00112e23          	sw	ra,28(sp)
   110dc:	00d12623          	sw	a3,12(sp)
   110e0:	3e8010ef          	jal	124c8 <_vfprintf_r>
   110e4:	01c12083          	lw	ra,28(sp)
   110e8:	04010113          	add	sp,sp,64
   110ec:	00008067          	ret

000110f0 <__sread>:
   110f0:	ff010113          	add	sp,sp,-16
   110f4:	00812423          	sw	s0,8(sp)
   110f8:	00058413          	mv	s0,a1
   110fc:	00e59583          	lh	a1,14(a1)
   11100:	00112623          	sw	ra,12(sp)
   11104:	2c8000ef          	jal	113cc <_read_r>
   11108:	02054063          	bltz	a0,11128 <__sread+0x38>
   1110c:	05042783          	lw	a5,80(s0)
   11110:	00c12083          	lw	ra,12(sp)
   11114:	00a787b3          	add	a5,a5,a0
   11118:	04f42823          	sw	a5,80(s0)
   1111c:	00812403          	lw	s0,8(sp)
   11120:	01010113          	add	sp,sp,16
   11124:	00008067          	ret
   11128:	00c45783          	lhu	a5,12(s0)
   1112c:	fffff737          	lui	a4,0xfffff
   11130:	fff70713          	add	a4,a4,-1 # ffffefff <__BSS_END__+0xfffda0ef>
   11134:	00e7f7b3          	and	a5,a5,a4
   11138:	00c12083          	lw	ra,12(sp)
   1113c:	00f41623          	sh	a5,12(s0)
   11140:	00812403          	lw	s0,8(sp)
   11144:	01010113          	add	sp,sp,16
   11148:	00008067          	ret

0001114c <__seofread>:
   1114c:	00000513          	li	a0,0
   11150:	00008067          	ret

00011154 <__swrite>:
   11154:	00c59783          	lh	a5,12(a1)
   11158:	fe010113          	add	sp,sp,-32
   1115c:	00812c23          	sw	s0,24(sp)
   11160:	00912a23          	sw	s1,20(sp)
   11164:	01212823          	sw	s2,16(sp)
   11168:	01312623          	sw	s3,12(sp)
   1116c:	00112e23          	sw	ra,28(sp)
   11170:	1007f713          	and	a4,a5,256
   11174:	00058413          	mv	s0,a1
   11178:	00050493          	mv	s1,a0
   1117c:	00060913          	mv	s2,a2
   11180:	00068993          	mv	s3,a3
   11184:	04071063          	bnez	a4,111c4 <__swrite+0x70>
   11188:	fffff737          	lui	a4,0xfffff
   1118c:	fff70713          	add	a4,a4,-1 # ffffefff <__BSS_END__+0xfffda0ef>
   11190:	00e7f7b3          	and	a5,a5,a4
   11194:	00e41583          	lh	a1,14(s0)
   11198:	00f41623          	sh	a5,12(s0)
   1119c:	01812403          	lw	s0,24(sp)
   111a0:	01c12083          	lw	ra,28(sp)
   111a4:	00098693          	mv	a3,s3
   111a8:	00090613          	mv	a2,s2
   111ac:	00c12983          	lw	s3,12(sp)
   111b0:	01012903          	lw	s2,16(sp)
   111b4:	00048513          	mv	a0,s1
   111b8:	01412483          	lw	s1,20(sp)
   111bc:	02010113          	add	sp,sp,32
   111c0:	2680006f          	j	11428 <_write_r>
   111c4:	00e59583          	lh	a1,14(a1)
   111c8:	00200693          	li	a3,2
   111cc:	00000613          	li	a2,0
   111d0:	1a0000ef          	jal	11370 <_lseek_r>
   111d4:	00c41783          	lh	a5,12(s0)
   111d8:	fb1ff06f          	j	11188 <__swrite+0x34>

000111dc <__sseek>:
   111dc:	ff010113          	add	sp,sp,-16
   111e0:	00812423          	sw	s0,8(sp)
   111e4:	00058413          	mv	s0,a1
   111e8:	00e59583          	lh	a1,14(a1)
   111ec:	00112623          	sw	ra,12(sp)
   111f0:	180000ef          	jal	11370 <_lseek_r>
   111f4:	fff00793          	li	a5,-1
   111f8:	02f50863          	beq	a0,a5,11228 <__sseek+0x4c>
   111fc:	00c45783          	lhu	a5,12(s0)
   11200:	00001737          	lui	a4,0x1
   11204:	00c12083          	lw	ra,12(sp)
   11208:	00e7e7b3          	or	a5,a5,a4
   1120c:	01079793          	sll	a5,a5,0x10
   11210:	4107d793          	sra	a5,a5,0x10
   11214:	04a42823          	sw	a0,80(s0)
   11218:	00f41623          	sh	a5,12(s0)
   1121c:	00812403          	lw	s0,8(sp)
   11220:	01010113          	add	sp,sp,16
   11224:	00008067          	ret
   11228:	00c45783          	lhu	a5,12(s0)
   1122c:	fffff737          	lui	a4,0xfffff
   11230:	fff70713          	add	a4,a4,-1 # ffffefff <__BSS_END__+0xfffda0ef>
   11234:	00e7f7b3          	and	a5,a5,a4
   11238:	01079793          	sll	a5,a5,0x10
   1123c:	4107d793          	sra	a5,a5,0x10
   11240:	00c12083          	lw	ra,12(sp)
   11244:	00f41623          	sh	a5,12(s0)
   11248:	00812403          	lw	s0,8(sp)
   1124c:	01010113          	add	sp,sp,16
   11250:	00008067          	ret

00011254 <__sclose>:
   11254:	00e59583          	lh	a1,14(a1)
   11258:	0040006f          	j	1125c <_close_r>

0001125c <_close_r>:
   1125c:	ff010113          	add	sp,sp,-16
   11260:	00812423          	sw	s0,8(sp)
   11264:	00050413          	mv	s0,a0
   11268:	00058513          	mv	a0,a1
   1126c:	f401a823          	sw	zero,-176(gp) # 24920 <errno>
   11270:	00112623          	sw	ra,12(sp)
   11274:	3540d0ef          	jal	1e5c8 <_close>
   11278:	fff00793          	li	a5,-1
   1127c:	00f50a63          	beq	a0,a5,11290 <_close_r+0x34>
   11280:	00c12083          	lw	ra,12(sp)
   11284:	00812403          	lw	s0,8(sp)
   11288:	01010113          	add	sp,sp,16
   1128c:	00008067          	ret
   11290:	f501a783          	lw	a5,-176(gp) # 24920 <errno>
   11294:	fe0786e3          	beqz	a5,11280 <_close_r+0x24>
   11298:	00c12083          	lw	ra,12(sp)
   1129c:	00f42023          	sw	a5,0(s0)
   112a0:	00812403          	lw	s0,8(sp)
   112a4:	01010113          	add	sp,sp,16
   112a8:	00008067          	ret

000112ac <_reclaim_reent>:
   112ac:	f341a783          	lw	a5,-204(gp) # 24904 <_impure_ptr>
   112b0:	0aa78e63          	beq	a5,a0,1136c <_reclaim_reent+0xc0>
   112b4:	04452583          	lw	a1,68(a0)
   112b8:	fe010113          	add	sp,sp,-32
   112bc:	00912a23          	sw	s1,20(sp)
   112c0:	00112e23          	sw	ra,28(sp)
   112c4:	00050493          	mv	s1,a0
   112c8:	04058c63          	beqz	a1,11320 <_reclaim_reent+0x74>
   112cc:	01212823          	sw	s2,16(sp)
   112d0:	01312623          	sw	s3,12(sp)
   112d4:	00812c23          	sw	s0,24(sp)
   112d8:	00000913          	li	s2,0
   112dc:	08000993          	li	s3,128
   112e0:	012587b3          	add	a5,a1,s2
   112e4:	0007a403          	lw	s0,0(a5)
   112e8:	00040e63          	beqz	s0,11304 <_reclaim_reent+0x58>
   112ec:	00040593          	mv	a1,s0
   112f0:	00042403          	lw	s0,0(s0)
   112f4:	00048513          	mv	a0,s1
   112f8:	6f4000ef          	jal	119ec <_free_r>
   112fc:	fe0418e3          	bnez	s0,112ec <_reclaim_reent+0x40>
   11300:	0444a583          	lw	a1,68(s1)
   11304:	00490913          	add	s2,s2,4
   11308:	fd391ce3          	bne	s2,s3,112e0 <_reclaim_reent+0x34>
   1130c:	00048513          	mv	a0,s1
   11310:	6dc000ef          	jal	119ec <_free_r>
   11314:	01812403          	lw	s0,24(sp)
   11318:	01012903          	lw	s2,16(sp)
   1131c:	00c12983          	lw	s3,12(sp)
   11320:	0384a583          	lw	a1,56(s1)
   11324:	00058663          	beqz	a1,11330 <_reclaim_reent+0x84>
   11328:	00048513          	mv	a0,s1
   1132c:	6c0000ef          	jal	119ec <_free_r>
   11330:	04c4a583          	lw	a1,76(s1)
   11334:	00058663          	beqz	a1,11340 <_reclaim_reent+0x94>
   11338:	00048513          	mv	a0,s1
   1133c:	6b0000ef          	jal	119ec <_free_r>
   11340:	0344a783          	lw	a5,52(s1)
   11344:	00078c63          	beqz	a5,1135c <_reclaim_reent+0xb0>
   11348:	01c12083          	lw	ra,28(sp)
   1134c:	00048513          	mv	a0,s1
   11350:	01412483          	lw	s1,20(sp)
   11354:	02010113          	add	sp,sp,32
   11358:	00078067          	jr	a5
   1135c:	01c12083          	lw	ra,28(sp)
   11360:	01412483          	lw	s1,20(sp)
   11364:	02010113          	add	sp,sp,32
   11368:	00008067          	ret
   1136c:	00008067          	ret

00011370 <_lseek_r>:
   11370:	ff010113          	add	sp,sp,-16
   11374:	00058713          	mv	a4,a1
   11378:	00812423          	sw	s0,8(sp)
   1137c:	00060593          	mv	a1,a2
   11380:	00050413          	mv	s0,a0
   11384:	00068613          	mv	a2,a3
   11388:	00070513          	mv	a0,a4
   1138c:	f401a823          	sw	zero,-176(gp) # 24920 <errno>
   11390:	00112623          	sw	ra,12(sp)
   11394:	3740d0ef          	jal	1e708 <_lseek>
   11398:	fff00793          	li	a5,-1
   1139c:	00f50a63          	beq	a0,a5,113b0 <_lseek_r+0x40>
   113a0:	00c12083          	lw	ra,12(sp)
   113a4:	00812403          	lw	s0,8(sp)
   113a8:	01010113          	add	sp,sp,16
   113ac:	00008067          	ret
   113b0:	f501a783          	lw	a5,-176(gp) # 24920 <errno>
   113b4:	fe0786e3          	beqz	a5,113a0 <_lseek_r+0x30>
   113b8:	00c12083          	lw	ra,12(sp)
   113bc:	00f42023          	sw	a5,0(s0)
   113c0:	00812403          	lw	s0,8(sp)
   113c4:	01010113          	add	sp,sp,16
   113c8:	00008067          	ret

000113cc <_read_r>:
   113cc:	ff010113          	add	sp,sp,-16
   113d0:	00058713          	mv	a4,a1
   113d4:	00812423          	sw	s0,8(sp)
   113d8:	00060593          	mv	a1,a2
   113dc:	00050413          	mv	s0,a0
   113e0:	00068613          	mv	a2,a3
   113e4:	00070513          	mv	a0,a4
   113e8:	f401a823          	sw	zero,-176(gp) # 24920 <errno>
   113ec:	00112623          	sw	ra,12(sp)
   113f0:	35c0d0ef          	jal	1e74c <_read>
   113f4:	fff00793          	li	a5,-1
   113f8:	00f50a63          	beq	a0,a5,1140c <_read_r+0x40>
   113fc:	00c12083          	lw	ra,12(sp)
   11400:	00812403          	lw	s0,8(sp)
   11404:	01010113          	add	sp,sp,16
   11408:	00008067          	ret
   1140c:	f501a783          	lw	a5,-176(gp) # 24920 <errno>
   11410:	fe0786e3          	beqz	a5,113fc <_read_r+0x30>
   11414:	00c12083          	lw	ra,12(sp)
   11418:	00f42023          	sw	a5,0(s0)
   1141c:	00812403          	lw	s0,8(sp)
   11420:	01010113          	add	sp,sp,16
   11424:	00008067          	ret

00011428 <_write_r>:
   11428:	ff010113          	add	sp,sp,-16
   1142c:	00058713          	mv	a4,a1
   11430:	00812423          	sw	s0,8(sp)
   11434:	00060593          	mv	a1,a2
   11438:	00050413          	mv	s0,a0
   1143c:	00068613          	mv	a2,a3
   11440:	00070513          	mv	a0,a4
   11444:	f401a823          	sw	zero,-176(gp) # 24920 <errno>
   11448:	00112623          	sw	ra,12(sp)
   1144c:	3c00d0ef          	jal	1e80c <_write>
   11450:	fff00793          	li	a5,-1
   11454:	00f50a63          	beq	a0,a5,11468 <_write_r+0x40>
   11458:	00c12083          	lw	ra,12(sp)
   1145c:	00812403          	lw	s0,8(sp)
   11460:	01010113          	add	sp,sp,16
   11464:	00008067          	ret
   11468:	f501a783          	lw	a5,-176(gp) # 24920 <errno>
   1146c:	fe0786e3          	beqz	a5,11458 <_write_r+0x30>
   11470:	00c12083          	lw	ra,12(sp)
   11474:	00f42023          	sw	a5,0(s0)
   11478:	00812403          	lw	s0,8(sp)
   1147c:	01010113          	add	sp,sp,16
   11480:	00008067          	ret

00011484 <__libc_init_array>:
   11484:	ff010113          	add	sp,sp,-16
   11488:	00812423          	sw	s0,8(sp)
   1148c:	01212023          	sw	s2,0(sp)
   11490:	00013797          	auipc	a5,0x13
   11494:	d3478793          	add	a5,a5,-716 # 241c4 <__init_array_start>
   11498:	00013417          	auipc	s0,0x13
   1149c:	d2c40413          	add	s0,s0,-724 # 241c4 <__init_array_start>
   114a0:	00112623          	sw	ra,12(sp)
   114a4:	00912223          	sw	s1,4(sp)
   114a8:	40878933          	sub	s2,a5,s0
   114ac:	02878063          	beq	a5,s0,114cc <__libc_init_array+0x48>
   114b0:	40295913          	sra	s2,s2,0x2
   114b4:	00000493          	li	s1,0
   114b8:	00042783          	lw	a5,0(s0)
   114bc:	00148493          	add	s1,s1,1
   114c0:	00440413          	add	s0,s0,4
   114c4:	000780e7          	jalr	a5
   114c8:	ff24e8e3          	bltu	s1,s2,114b8 <__libc_init_array+0x34>
   114cc:	00013797          	auipc	a5,0x13
   114d0:	d0078793          	add	a5,a5,-768 # 241cc <__do_global_dtors_aux_fini_array_entry>
   114d4:	00013417          	auipc	s0,0x13
   114d8:	cf040413          	add	s0,s0,-784 # 241c4 <__init_array_start>
   114dc:	40878933          	sub	s2,a5,s0
   114e0:	40295913          	sra	s2,s2,0x2
   114e4:	00878e63          	beq	a5,s0,11500 <__libc_init_array+0x7c>
   114e8:	00000493          	li	s1,0
   114ec:	00042783          	lw	a5,0(s0)
   114f0:	00148493          	add	s1,s1,1
   114f4:	00440413          	add	s0,s0,4
   114f8:	000780e7          	jalr	a5
   114fc:	ff24e8e3          	bltu	s1,s2,114ec <__libc_init_array+0x68>
   11500:	00c12083          	lw	ra,12(sp)
   11504:	00812403          	lw	s0,8(sp)
   11508:	00412483          	lw	s1,4(sp)
   1150c:	00012903          	lw	s2,0(sp)
   11510:	01010113          	add	sp,sp,16
   11514:	00008067          	ret

00011518 <__libc_fini_array>:
   11518:	ff010113          	add	sp,sp,-16
   1151c:	00812423          	sw	s0,8(sp)
   11520:	00013797          	auipc	a5,0x13
   11524:	cac78793          	add	a5,a5,-852 # 241cc <__do_global_dtors_aux_fini_array_entry>
   11528:	00013417          	auipc	s0,0x13
   1152c:	ca840413          	add	s0,s0,-856 # 241d0 <__sglue>
   11530:	40f40433          	sub	s0,s0,a5
   11534:	00912223          	sw	s1,4(sp)
   11538:	00112623          	sw	ra,12(sp)
   1153c:	40245493          	sra	s1,s0,0x2
   11540:	02048063          	beqz	s1,11560 <__libc_fini_array+0x48>
   11544:	ffc40413          	add	s0,s0,-4
   11548:	00f40433          	add	s0,s0,a5
   1154c:	00042783          	lw	a5,0(s0)
   11550:	fff48493          	add	s1,s1,-1
   11554:	ffc40413          	add	s0,s0,-4
   11558:	000780e7          	jalr	a5
   1155c:	fe0498e3          	bnez	s1,1154c <__libc_fini_array+0x34>
   11560:	00c12083          	lw	ra,12(sp)
   11564:	00812403          	lw	s0,8(sp)
   11568:	00412483          	lw	s1,4(sp)
   1156c:	01010113          	add	sp,sp,16
   11570:	00008067          	ret

00011574 <__retarget_lock_init>:
   11574:	00008067          	ret

00011578 <__retarget_lock_init_recursive>:
   11578:	00008067          	ret

0001157c <__retarget_lock_close>:
   1157c:	00008067          	ret

00011580 <__retarget_lock_close_recursive>:
   11580:	00008067          	ret

00011584 <__retarget_lock_acquire>:
   11584:	00008067          	ret

00011588 <__retarget_lock_acquire_recursive>:
   11588:	00008067          	ret

0001158c <__retarget_lock_try_acquire>:
   1158c:	00100513          	li	a0,1
   11590:	00008067          	ret

00011594 <__retarget_lock_try_acquire_recursive>:
   11594:	00100513          	li	a0,1
   11598:	00008067          	ret

0001159c <__retarget_lock_release>:
   1159c:	00008067          	ret

000115a0 <__retarget_lock_release_recursive>:
   115a0:	00008067          	ret

000115a4 <memset>:
   115a4:	00f00313          	li	t1,15
   115a8:	00050713          	mv	a4,a0
   115ac:	02c37e63          	bgeu	t1,a2,115e8 <memset+0x44>
   115b0:	00f77793          	and	a5,a4,15
   115b4:	0a079063          	bnez	a5,11654 <memset+0xb0>
   115b8:	08059263          	bnez	a1,1163c <memset+0x98>
   115bc:	ff067693          	and	a3,a2,-16
   115c0:	00f67613          	and	a2,a2,15
   115c4:	00e686b3          	add	a3,a3,a4
   115c8:	00b72023          	sw	a1,0(a4)
   115cc:	00b72223          	sw	a1,4(a4)
   115d0:	00b72423          	sw	a1,8(a4)
   115d4:	00b72623          	sw	a1,12(a4)
   115d8:	01070713          	add	a4,a4,16
   115dc:	fed766e3          	bltu	a4,a3,115c8 <memset+0x24>
   115e0:	00061463          	bnez	a2,115e8 <memset+0x44>
   115e4:	00008067          	ret
   115e8:	40c306b3          	sub	a3,t1,a2
   115ec:	00269693          	sll	a3,a3,0x2
   115f0:	00000297          	auipc	t0,0x0
   115f4:	005686b3          	add	a3,a3,t0
   115f8:	00c68067          	jr	12(a3)
   115fc:	00b70723          	sb	a1,14(a4)
   11600:	00b706a3          	sb	a1,13(a4)
   11604:	00b70623          	sb	a1,12(a4)
   11608:	00b705a3          	sb	a1,11(a4)
   1160c:	00b70523          	sb	a1,10(a4)
   11610:	00b704a3          	sb	a1,9(a4)
   11614:	00b70423          	sb	a1,8(a4)
   11618:	00b703a3          	sb	a1,7(a4)
   1161c:	00b70323          	sb	a1,6(a4)
   11620:	00b702a3          	sb	a1,5(a4)
   11624:	00b70223          	sb	a1,4(a4)
   11628:	00b701a3          	sb	a1,3(a4)
   1162c:	00b70123          	sb	a1,2(a4)
   11630:	00b700a3          	sb	a1,1(a4)
   11634:	00b70023          	sb	a1,0(a4)
   11638:	00008067          	ret
   1163c:	0ff5f593          	zext.b	a1,a1
   11640:	00859693          	sll	a3,a1,0x8
   11644:	00d5e5b3          	or	a1,a1,a3
   11648:	01059693          	sll	a3,a1,0x10
   1164c:	00d5e5b3          	or	a1,a1,a3
   11650:	f6dff06f          	j	115bc <memset+0x18>
   11654:	00279693          	sll	a3,a5,0x2
   11658:	00000297          	auipc	t0,0x0
   1165c:	005686b3          	add	a3,a3,t0
   11660:	00008293          	mv	t0,ra
   11664:	fa0680e7          	jalr	-96(a3)
   11668:	00028093          	mv	ra,t0
   1166c:	ff078793          	add	a5,a5,-16
   11670:	40f70733          	sub	a4,a4,a5
   11674:	00f60633          	add	a2,a2,a5
   11678:	f6c378e3          	bgeu	t1,a2,115e8 <memset+0x44>
   1167c:	f3dff06f          	j	115b8 <memset+0x14>

00011680 <__register_exitproc>:
   11680:	fe010113          	add	sp,sp,-32
   11684:	01212823          	sw	s2,16(sp)
   11688:	f3818913          	add	s2,gp,-200 # 24908 <__atexit_recursive_mutex>
   1168c:	00812c23          	sw	s0,24(sp)
   11690:	00050413          	mv	s0,a0
   11694:	00092503          	lw	a0,0(s2)
   11698:	00912a23          	sw	s1,20(sp)
   1169c:	01312623          	sw	s3,12(sp)
   116a0:	01412423          	sw	s4,8(sp)
   116a4:	00112e23          	sw	ra,28(sp)
   116a8:	00058493          	mv	s1,a1
   116ac:	00060a13          	mv	s4,a2
   116b0:	00068993          	mv	s3,a3
   116b4:	ed5ff0ef          	jal	11588 <__retarget_lock_acquire_recursive>
   116b8:	f7418713          	add	a4,gp,-140 # 24944 <__atexit>
   116bc:	00072783          	lw	a5,0(a4)
   116c0:	08078663          	beqz	a5,1174c <__register_exitproc+0xcc>
   116c4:	0047a703          	lw	a4,4(a5)
   116c8:	01f00593          	li	a1,31
   116cc:	00092503          	lw	a0,0(s2)
   116d0:	08e5c463          	blt	a1,a4,11758 <__register_exitproc+0xd8>
   116d4:	00271593          	sll	a1,a4,0x2
   116d8:	02041e63          	bnez	s0,11714 <__register_exitproc+0x94>
   116dc:	00170713          	add	a4,a4,1
   116e0:	00e7a223          	sw	a4,4(a5)
   116e4:	00b787b3          	add	a5,a5,a1
   116e8:	0097a423          	sw	s1,8(a5)
   116ec:	eb5ff0ef          	jal	115a0 <__retarget_lock_release_recursive>
   116f0:	00000513          	li	a0,0
   116f4:	01c12083          	lw	ra,28(sp)
   116f8:	01812403          	lw	s0,24(sp)
   116fc:	01412483          	lw	s1,20(sp)
   11700:	01012903          	lw	s2,16(sp)
   11704:	00c12983          	lw	s3,12(sp)
   11708:	00812a03          	lw	s4,8(sp)
   1170c:	02010113          	add	sp,sp,32
   11710:	00008067          	ret
   11714:	00b78833          	add	a6,a5,a1
   11718:	09482423          	sw	s4,136(a6)
   1171c:	1887a683          	lw	a3,392(a5)
   11720:	00100613          	li	a2,1
   11724:	00e61633          	sll	a2,a2,a4
   11728:	00c6e6b3          	or	a3,a3,a2
   1172c:	18d7a423          	sw	a3,392(a5)
   11730:	11382423          	sw	s3,264(a6)
   11734:	00200693          	li	a3,2
   11738:	fad412e3          	bne	s0,a3,116dc <__register_exitproc+0x5c>
   1173c:	18c7a683          	lw	a3,396(a5)
   11740:	00c6e6b3          	or	a3,a3,a2
   11744:	18d7a623          	sw	a3,396(a5)
   11748:	f95ff06f          	j	116dc <__register_exitproc+0x5c>
   1174c:	0e018793          	add	a5,gp,224 # 24ab0 <__atexit0>
   11750:	00f72023          	sw	a5,0(a4)
   11754:	f71ff06f          	j	116c4 <__register_exitproc+0x44>
   11758:	e49ff0ef          	jal	115a0 <__retarget_lock_release_recursive>
   1175c:	fff00513          	li	a0,-1
   11760:	f95ff06f          	j	116f4 <__register_exitproc+0x74>

00011764 <__call_exitprocs>:
   11764:	fd010113          	add	sp,sp,-48
   11768:	01712623          	sw	s7,12(sp)
   1176c:	f3818b93          	add	s7,gp,-200 # 24908 <__atexit_recursive_mutex>
   11770:	01612823          	sw	s6,16(sp)
   11774:	00050b13          	mv	s6,a0
   11778:	000ba503          	lw	a0,0(s7)
   1177c:	01412c23          	sw	s4,24(sp)
   11780:	f7418a13          	add	s4,gp,-140 # 24944 <__atexit>
   11784:	03212023          	sw	s2,32(sp)
   11788:	01812423          	sw	s8,8(sp)
   1178c:	02112623          	sw	ra,44(sp)
   11790:	00058c13          	mv	s8,a1
   11794:	df5ff0ef          	jal	11588 <__retarget_lock_acquire_recursive>
   11798:	000a2903          	lw	s2,0(s4)
   1179c:	08090c63          	beqz	s2,11834 <__call_exitprocs+0xd0>
   117a0:	01312e23          	sw	s3,28(sp)
   117a4:	01512a23          	sw	s5,20(sp)
   117a8:	02812423          	sw	s0,40(sp)
   117ac:	02912223          	sw	s1,36(sp)
   117b0:	01912223          	sw	s9,4(sp)
   117b4:	fff00993          	li	s3,-1
   117b8:	00100a93          	li	s5,1
   117bc:	00492483          	lw	s1,4(s2)
   117c0:	fff48413          	add	s0,s1,-1
   117c4:	04044e63          	bltz	s0,11820 <__call_exitprocs+0xbc>
   117c8:	00249493          	sll	s1,s1,0x2
   117cc:	009904b3          	add	s1,s2,s1
   117d0:	080c1463          	bnez	s8,11858 <__call_exitprocs+0xf4>
   117d4:	00492783          	lw	a5,4(s2)
   117d8:	0044a683          	lw	a3,4(s1)
   117dc:	fff78793          	add	a5,a5,-1
   117e0:	0c878063          	beq	a5,s0,118a0 <__call_exitprocs+0x13c>
   117e4:	0004a223          	sw	zero,4(s1)
   117e8:	02068663          	beqz	a3,11814 <__call_exitprocs+0xb0>
   117ec:	18892783          	lw	a5,392(s2)
   117f0:	008a9733          	sll	a4,s5,s0
   117f4:	00492c83          	lw	s9,4(s2)
   117f8:	00f777b3          	and	a5,a4,a5
   117fc:	06079a63          	bnez	a5,11870 <__call_exitprocs+0x10c>
   11800:	000680e7          	jalr	a3
   11804:	00492703          	lw	a4,4(s2)
   11808:	000a2783          	lw	a5,0(s4)
   1180c:	09971463          	bne	a4,s9,11894 <__call_exitprocs+0x130>
   11810:	09279263          	bne	a5,s2,11894 <__call_exitprocs+0x130>
   11814:	fff40413          	add	s0,s0,-1
   11818:	ffc48493          	add	s1,s1,-4
   1181c:	fb341ae3          	bne	s0,s3,117d0 <__call_exitprocs+0x6c>
   11820:	02812403          	lw	s0,40(sp)
   11824:	02412483          	lw	s1,36(sp)
   11828:	01c12983          	lw	s3,28(sp)
   1182c:	01412a83          	lw	s5,20(sp)
   11830:	00412c83          	lw	s9,4(sp)
   11834:	000ba503          	lw	a0,0(s7)
   11838:	02c12083          	lw	ra,44(sp)
   1183c:	02012903          	lw	s2,32(sp)
   11840:	01812a03          	lw	s4,24(sp)
   11844:	01012b03          	lw	s6,16(sp)
   11848:	00c12b83          	lw	s7,12(sp)
   1184c:	00812c03          	lw	s8,8(sp)
   11850:	03010113          	add	sp,sp,48
   11854:	d4dff06f          	j	115a0 <__retarget_lock_release_recursive>
   11858:	1044a783          	lw	a5,260(s1)
   1185c:	f7878ce3          	beq	a5,s8,117d4 <__call_exitprocs+0x70>
   11860:	fff40413          	add	s0,s0,-1
   11864:	ffc48493          	add	s1,s1,-4
   11868:	ff3418e3          	bne	s0,s3,11858 <__call_exitprocs+0xf4>
   1186c:	fb5ff06f          	j	11820 <__call_exitprocs+0xbc>
   11870:	18c92783          	lw	a5,396(s2)
   11874:	0844a583          	lw	a1,132(s1)
   11878:	00f77733          	and	a4,a4,a5
   1187c:	02071663          	bnez	a4,118a8 <__call_exitprocs+0x144>
   11880:	000b0513          	mv	a0,s6
   11884:	000680e7          	jalr	a3
   11888:	00492703          	lw	a4,4(s2)
   1188c:	000a2783          	lw	a5,0(s4)
   11890:	f99700e3          	beq	a4,s9,11810 <__call_exitprocs+0xac>
   11894:	f80786e3          	beqz	a5,11820 <__call_exitprocs+0xbc>
   11898:	00078913          	mv	s2,a5
   1189c:	f21ff06f          	j	117bc <__call_exitprocs+0x58>
   118a0:	00892223          	sw	s0,4(s2)
   118a4:	f45ff06f          	j	117e8 <__call_exitprocs+0x84>
   118a8:	00058513          	mv	a0,a1
   118ac:	000680e7          	jalr	a3
   118b0:	f55ff06f          	j	11804 <__call_exitprocs+0xa0>

000118b4 <_malloc_trim_r>:
   118b4:	fe010113          	add	sp,sp,-32
   118b8:	00812c23          	sw	s0,24(sp)
   118bc:	00912a23          	sw	s1,20(sp)
   118c0:	01212823          	sw	s2,16(sp)
   118c4:	01312623          	sw	s3,12(sp)
   118c8:	01412423          	sw	s4,8(sp)
   118cc:	00058993          	mv	s3,a1
   118d0:	00112e23          	sw	ra,28(sp)
   118d4:	00050913          	mv	s2,a0
   118d8:	00013a17          	auipc	s4,0x13
   118dc:	a28a0a13          	add	s4,s4,-1496 # 24300 <__malloc_av_>
   118e0:	3d9000ef          	jal	124b8 <__malloc_lock>
   118e4:	008a2703          	lw	a4,8(s4)
   118e8:	000017b7          	lui	a5,0x1
   118ec:	fef78793          	add	a5,a5,-17 # fef <exit-0xf0a5>
   118f0:	00472483          	lw	s1,4(a4)
   118f4:	00001737          	lui	a4,0x1
   118f8:	ffc4f493          	and	s1,s1,-4
   118fc:	00f48433          	add	s0,s1,a5
   11900:	41340433          	sub	s0,s0,s3
   11904:	00c45413          	srl	s0,s0,0xc
   11908:	fff40413          	add	s0,s0,-1
   1190c:	00c41413          	sll	s0,s0,0xc
   11910:	00e44e63          	blt	s0,a4,1192c <_malloc_trim_r+0x78>
   11914:	00000593          	li	a1,0
   11918:	00090513          	mv	a0,s2
   1191c:	0e8070ef          	jal	18a04 <_sbrk_r>
   11920:	008a2783          	lw	a5,8(s4)
   11924:	009787b3          	add	a5,a5,s1
   11928:	02f50863          	beq	a0,a5,11958 <_malloc_trim_r+0xa4>
   1192c:	00090513          	mv	a0,s2
   11930:	391000ef          	jal	124c0 <__malloc_unlock>
   11934:	01c12083          	lw	ra,28(sp)
   11938:	01812403          	lw	s0,24(sp)
   1193c:	01412483          	lw	s1,20(sp)
   11940:	01012903          	lw	s2,16(sp)
   11944:	00c12983          	lw	s3,12(sp)
   11948:	00812a03          	lw	s4,8(sp)
   1194c:	00000513          	li	a0,0
   11950:	02010113          	add	sp,sp,32
   11954:	00008067          	ret
   11958:	408005b3          	neg	a1,s0
   1195c:	00090513          	mv	a0,s2
   11960:	0a4070ef          	jal	18a04 <_sbrk_r>
   11964:	fff00793          	li	a5,-1
   11968:	04f50863          	beq	a0,a5,119b8 <_malloc_trim_r+0x104>
   1196c:	27018713          	add	a4,gp,624 # 24c40 <__malloc_current_mallinfo>
   11970:	00072783          	lw	a5,0(a4) # 1000 <exit-0xf094>
   11974:	008a2683          	lw	a3,8(s4)
   11978:	408484b3          	sub	s1,s1,s0
   1197c:	0014e493          	or	s1,s1,1
   11980:	408787b3          	sub	a5,a5,s0
   11984:	00090513          	mv	a0,s2
   11988:	0096a223          	sw	s1,4(a3)
   1198c:	00f72023          	sw	a5,0(a4)
   11990:	331000ef          	jal	124c0 <__malloc_unlock>
   11994:	01c12083          	lw	ra,28(sp)
   11998:	01812403          	lw	s0,24(sp)
   1199c:	01412483          	lw	s1,20(sp)
   119a0:	01012903          	lw	s2,16(sp)
   119a4:	00c12983          	lw	s3,12(sp)
   119a8:	00812a03          	lw	s4,8(sp)
   119ac:	00100513          	li	a0,1
   119b0:	02010113          	add	sp,sp,32
   119b4:	00008067          	ret
   119b8:	00000593          	li	a1,0
   119bc:	00090513          	mv	a0,s2
   119c0:	044070ef          	jal	18a04 <_sbrk_r>
   119c4:	008a2703          	lw	a4,8(s4)
   119c8:	00f00693          	li	a3,15
   119cc:	40e507b3          	sub	a5,a0,a4
   119d0:	f4f6dee3          	bge	a3,a5,1192c <_malloc_trim_r+0x78>
   119d4:	f3c1a683          	lw	a3,-196(gp) # 2490c <__malloc_sbrk_base>
   119d8:	40d50533          	sub	a0,a0,a3
   119dc:	0017e793          	or	a5,a5,1
   119e0:	26a1a823          	sw	a0,624(gp) # 24c40 <__malloc_current_mallinfo>
   119e4:	00f72223          	sw	a5,4(a4)
   119e8:	f45ff06f          	j	1192c <_malloc_trim_r+0x78>

000119ec <_free_r>:
   119ec:	18058263          	beqz	a1,11b70 <_free_r+0x184>
   119f0:	ff010113          	add	sp,sp,-16
   119f4:	00812423          	sw	s0,8(sp)
   119f8:	00912223          	sw	s1,4(sp)
   119fc:	00058413          	mv	s0,a1
   11a00:	00050493          	mv	s1,a0
   11a04:	00112623          	sw	ra,12(sp)
   11a08:	2b1000ef          	jal	124b8 <__malloc_lock>
   11a0c:	ffc42583          	lw	a1,-4(s0)
   11a10:	ff840713          	add	a4,s0,-8
   11a14:	00013517          	auipc	a0,0x13
   11a18:	8ec50513          	add	a0,a0,-1812 # 24300 <__malloc_av_>
   11a1c:	ffe5f793          	and	a5,a1,-2
   11a20:	00f70633          	add	a2,a4,a5
   11a24:	00462683          	lw	a3,4(a2)
   11a28:	00852803          	lw	a6,8(a0)
   11a2c:	ffc6f693          	and	a3,a3,-4
   11a30:	1ac80263          	beq	a6,a2,11bd4 <_free_r+0x1e8>
   11a34:	00d62223          	sw	a3,4(a2)
   11a38:	0015f593          	and	a1,a1,1
   11a3c:	00d60833          	add	a6,a2,a3
   11a40:	0a059063          	bnez	a1,11ae0 <_free_r+0xf4>
   11a44:	ff842303          	lw	t1,-8(s0)
   11a48:	00482583          	lw	a1,4(a6)
   11a4c:	00013897          	auipc	a7,0x13
   11a50:	8bc88893          	add	a7,a7,-1860 # 24308 <__malloc_av_+0x8>
   11a54:	40670733          	sub	a4,a4,t1
   11a58:	00872803          	lw	a6,8(a4)
   11a5c:	006787b3          	add	a5,a5,t1
   11a60:	0015f593          	and	a1,a1,1
   11a64:	15180263          	beq	a6,a7,11ba8 <_free_r+0x1bc>
   11a68:	00c72303          	lw	t1,12(a4)
   11a6c:	00682623          	sw	t1,12(a6)
   11a70:	01032423          	sw	a6,8(t1)
   11a74:	1a058663          	beqz	a1,11c20 <_free_r+0x234>
   11a78:	0017e693          	or	a3,a5,1
   11a7c:	00d72223          	sw	a3,4(a4)
   11a80:	00f62023          	sw	a5,0(a2)
   11a84:	1ff00693          	li	a3,511
   11a88:	06f6ec63          	bltu	a3,a5,11b00 <_free_r+0x114>
   11a8c:	ff87f693          	and	a3,a5,-8
   11a90:	00868693          	add	a3,a3,8
   11a94:	00452583          	lw	a1,4(a0)
   11a98:	00d506b3          	add	a3,a0,a3
   11a9c:	0006a603          	lw	a2,0(a3)
   11aa0:	0057d813          	srl	a6,a5,0x5
   11aa4:	00100793          	li	a5,1
   11aa8:	010797b3          	sll	a5,a5,a6
   11aac:	00b7e7b3          	or	a5,a5,a1
   11ab0:	ff868593          	add	a1,a3,-8
   11ab4:	00b72623          	sw	a1,12(a4)
   11ab8:	00c72423          	sw	a2,8(a4)
   11abc:	00f52223          	sw	a5,4(a0)
   11ac0:	00e6a023          	sw	a4,0(a3)
   11ac4:	00e62623          	sw	a4,12(a2)
   11ac8:	00812403          	lw	s0,8(sp)
   11acc:	00c12083          	lw	ra,12(sp)
   11ad0:	00048513          	mv	a0,s1
   11ad4:	00412483          	lw	s1,4(sp)
   11ad8:	01010113          	add	sp,sp,16
   11adc:	1e50006f          	j	124c0 <__malloc_unlock>
   11ae0:	00482583          	lw	a1,4(a6)
   11ae4:	0015f593          	and	a1,a1,1
   11ae8:	08058663          	beqz	a1,11b74 <_free_r+0x188>
   11aec:	0017e693          	or	a3,a5,1
   11af0:	fed42e23          	sw	a3,-4(s0)
   11af4:	00f62023          	sw	a5,0(a2)
   11af8:	1ff00693          	li	a3,511
   11afc:	f8f6f8e3          	bgeu	a3,a5,11a8c <_free_r+0xa0>
   11b00:	0097d693          	srl	a3,a5,0x9
   11b04:	00400613          	li	a2,4
   11b08:	12d66063          	bltu	a2,a3,11c28 <_free_r+0x23c>
   11b0c:	0067d693          	srl	a3,a5,0x6
   11b10:	03968593          	add	a1,a3,57
   11b14:	03868613          	add	a2,a3,56
   11b18:	00359593          	sll	a1,a1,0x3
   11b1c:	00b505b3          	add	a1,a0,a1
   11b20:	0005a683          	lw	a3,0(a1)
   11b24:	ff858593          	add	a1,a1,-8
   11b28:	00d59863          	bne	a1,a3,11b38 <_free_r+0x14c>
   11b2c:	1540006f          	j	11c80 <_free_r+0x294>
   11b30:	0086a683          	lw	a3,8(a3)
   11b34:	00d58863          	beq	a1,a3,11b44 <_free_r+0x158>
   11b38:	0046a603          	lw	a2,4(a3)
   11b3c:	ffc67613          	and	a2,a2,-4
   11b40:	fec7e8e3          	bltu	a5,a2,11b30 <_free_r+0x144>
   11b44:	00c6a583          	lw	a1,12(a3)
   11b48:	00b72623          	sw	a1,12(a4)
   11b4c:	00d72423          	sw	a3,8(a4)
   11b50:	00812403          	lw	s0,8(sp)
   11b54:	00c12083          	lw	ra,12(sp)
   11b58:	00e5a423          	sw	a4,8(a1)
   11b5c:	00048513          	mv	a0,s1
   11b60:	00412483          	lw	s1,4(sp)
   11b64:	00e6a623          	sw	a4,12(a3)
   11b68:	01010113          	add	sp,sp,16
   11b6c:	1550006f          	j	124c0 <__malloc_unlock>
   11b70:	00008067          	ret
   11b74:	00d787b3          	add	a5,a5,a3
   11b78:	00012897          	auipc	a7,0x12
   11b7c:	79088893          	add	a7,a7,1936 # 24308 <__malloc_av_+0x8>
   11b80:	00862683          	lw	a3,8(a2)
   11b84:	0d168c63          	beq	a3,a7,11c5c <_free_r+0x270>
   11b88:	00c62803          	lw	a6,12(a2)
   11b8c:	0017e593          	or	a1,a5,1
   11b90:	00f70633          	add	a2,a4,a5
   11b94:	0106a623          	sw	a6,12(a3)
   11b98:	00d82423          	sw	a3,8(a6)
   11b9c:	00b72223          	sw	a1,4(a4)
   11ba0:	00f62023          	sw	a5,0(a2)
   11ba4:	ee1ff06f          	j	11a84 <_free_r+0x98>
   11ba8:	12059c63          	bnez	a1,11ce0 <_free_r+0x2f4>
   11bac:	00862583          	lw	a1,8(a2)
   11bb0:	00c62603          	lw	a2,12(a2)
   11bb4:	00f686b3          	add	a3,a3,a5
   11bb8:	0016e793          	or	a5,a3,1
   11bbc:	00c5a623          	sw	a2,12(a1)
   11bc0:	00b62423          	sw	a1,8(a2)
   11bc4:	00f72223          	sw	a5,4(a4)
   11bc8:	00d70733          	add	a4,a4,a3
   11bcc:	00d72023          	sw	a3,0(a4)
   11bd0:	ef9ff06f          	j	11ac8 <_free_r+0xdc>
   11bd4:	0015f593          	and	a1,a1,1
   11bd8:	00d786b3          	add	a3,a5,a3
   11bdc:	02059063          	bnez	a1,11bfc <_free_r+0x210>
   11be0:	ff842583          	lw	a1,-8(s0)
   11be4:	40b70733          	sub	a4,a4,a1
   11be8:	00c72783          	lw	a5,12(a4)
   11bec:	00872603          	lw	a2,8(a4)
   11bf0:	00b686b3          	add	a3,a3,a1
   11bf4:	00f62623          	sw	a5,12(a2)
   11bf8:	00c7a423          	sw	a2,8(a5)
   11bfc:	0016e793          	or	a5,a3,1
   11c00:	00f72223          	sw	a5,4(a4)
   11c04:	00e52423          	sw	a4,8(a0)
   11c08:	f401a783          	lw	a5,-192(gp) # 24910 <__malloc_trim_threshold>
   11c0c:	eaf6eee3          	bltu	a3,a5,11ac8 <_free_r+0xdc>
   11c10:	f801a583          	lw	a1,-128(gp) # 24950 <__malloc_top_pad>
   11c14:	00048513          	mv	a0,s1
   11c18:	c9dff0ef          	jal	118b4 <_malloc_trim_r>
   11c1c:	eadff06f          	j	11ac8 <_free_r+0xdc>
   11c20:	00d787b3          	add	a5,a5,a3
   11c24:	f5dff06f          	j	11b80 <_free_r+0x194>
   11c28:	01400613          	li	a2,20
   11c2c:	02d67063          	bgeu	a2,a3,11c4c <_free_r+0x260>
   11c30:	05400613          	li	a2,84
   11c34:	06d66463          	bltu	a2,a3,11c9c <_free_r+0x2b0>
   11c38:	00c7d693          	srl	a3,a5,0xc
   11c3c:	06f68593          	add	a1,a3,111
   11c40:	06e68613          	add	a2,a3,110
   11c44:	00359593          	sll	a1,a1,0x3
   11c48:	ed5ff06f          	j	11b1c <_free_r+0x130>
   11c4c:	05c68593          	add	a1,a3,92
   11c50:	05b68613          	add	a2,a3,91
   11c54:	00359593          	sll	a1,a1,0x3
   11c58:	ec5ff06f          	j	11b1c <_free_r+0x130>
   11c5c:	00e52a23          	sw	a4,20(a0)
   11c60:	00e52823          	sw	a4,16(a0)
   11c64:	0017e693          	or	a3,a5,1
   11c68:	01172623          	sw	a7,12(a4)
   11c6c:	01172423          	sw	a7,8(a4)
   11c70:	00d72223          	sw	a3,4(a4)
   11c74:	00f70733          	add	a4,a4,a5
   11c78:	00f72023          	sw	a5,0(a4)
   11c7c:	e4dff06f          	j	11ac8 <_free_r+0xdc>
   11c80:	00452803          	lw	a6,4(a0)
   11c84:	40265613          	sra	a2,a2,0x2
   11c88:	00100793          	li	a5,1
   11c8c:	00c797b3          	sll	a5,a5,a2
   11c90:	0107e7b3          	or	a5,a5,a6
   11c94:	00f52223          	sw	a5,4(a0)
   11c98:	eb1ff06f          	j	11b48 <_free_r+0x15c>
   11c9c:	15400613          	li	a2,340
   11ca0:	00d66c63          	bltu	a2,a3,11cb8 <_free_r+0x2cc>
   11ca4:	00f7d693          	srl	a3,a5,0xf
   11ca8:	07868593          	add	a1,a3,120
   11cac:	07768613          	add	a2,a3,119
   11cb0:	00359593          	sll	a1,a1,0x3
   11cb4:	e69ff06f          	j	11b1c <_free_r+0x130>
   11cb8:	55400613          	li	a2,1364
   11cbc:	00d66c63          	bltu	a2,a3,11cd4 <_free_r+0x2e8>
   11cc0:	0127d693          	srl	a3,a5,0x12
   11cc4:	07d68593          	add	a1,a3,125
   11cc8:	07c68613          	add	a2,a3,124
   11ccc:	00359593          	sll	a1,a1,0x3
   11cd0:	e4dff06f          	j	11b1c <_free_r+0x130>
   11cd4:	3f800593          	li	a1,1016
   11cd8:	07e00613          	li	a2,126
   11cdc:	e41ff06f          	j	11b1c <_free_r+0x130>
   11ce0:	0017e693          	or	a3,a5,1
   11ce4:	00d72223          	sw	a3,4(a4)
   11ce8:	00f62023          	sw	a5,0(a2)
   11cec:	dddff06f          	j	11ac8 <_free_r+0xdc>

00011cf0 <_malloc_r>:
   11cf0:	fd010113          	add	sp,sp,-48
   11cf4:	03212023          	sw	s2,32(sp)
   11cf8:	02112623          	sw	ra,44(sp)
   11cfc:	02812423          	sw	s0,40(sp)
   11d00:	02912223          	sw	s1,36(sp)
   11d04:	01312e23          	sw	s3,28(sp)
   11d08:	00b58793          	add	a5,a1,11
   11d0c:	01600713          	li	a4,22
   11d10:	00050913          	mv	s2,a0
   11d14:	08f76263          	bltu	a4,a5,11d98 <_malloc_r+0xa8>
   11d18:	01000793          	li	a5,16
   11d1c:	20b7e663          	bltu	a5,a1,11f28 <_malloc_r+0x238>
   11d20:	798000ef          	jal	124b8 <__malloc_lock>
   11d24:	01800793          	li	a5,24
   11d28:	00200593          	li	a1,2
   11d2c:	01000493          	li	s1,16
   11d30:	00012997          	auipc	s3,0x12
   11d34:	5d098993          	add	s3,s3,1488 # 24300 <__malloc_av_>
   11d38:	00f987b3          	add	a5,s3,a5
   11d3c:	0047a403          	lw	s0,4(a5)
   11d40:	ff878713          	add	a4,a5,-8
   11d44:	34e40a63          	beq	s0,a4,12098 <_malloc_r+0x3a8>
   11d48:	00442783          	lw	a5,4(s0)
   11d4c:	00c42683          	lw	a3,12(s0)
   11d50:	00842603          	lw	a2,8(s0)
   11d54:	ffc7f793          	and	a5,a5,-4
   11d58:	00f407b3          	add	a5,s0,a5
   11d5c:	0047a703          	lw	a4,4(a5)
   11d60:	00d62623          	sw	a3,12(a2)
   11d64:	00c6a423          	sw	a2,8(a3)
   11d68:	00176713          	or	a4,a4,1
   11d6c:	00090513          	mv	a0,s2
   11d70:	00e7a223          	sw	a4,4(a5)
   11d74:	74c000ef          	jal	124c0 <__malloc_unlock>
   11d78:	00840513          	add	a0,s0,8
   11d7c:	02c12083          	lw	ra,44(sp)
   11d80:	02812403          	lw	s0,40(sp)
   11d84:	02412483          	lw	s1,36(sp)
   11d88:	02012903          	lw	s2,32(sp)
   11d8c:	01c12983          	lw	s3,28(sp)
   11d90:	03010113          	add	sp,sp,48
   11d94:	00008067          	ret
   11d98:	ff87f493          	and	s1,a5,-8
   11d9c:	1807c663          	bltz	a5,11f28 <_malloc_r+0x238>
   11da0:	18b4e463          	bltu	s1,a1,11f28 <_malloc_r+0x238>
   11da4:	714000ef          	jal	124b8 <__malloc_lock>
   11da8:	1f700793          	li	a5,503
   11dac:	4097f063          	bgeu	a5,s1,121ac <_malloc_r+0x4bc>
   11db0:	0094d793          	srl	a5,s1,0x9
   11db4:	18078263          	beqz	a5,11f38 <_malloc_r+0x248>
   11db8:	00400713          	li	a4,4
   11dbc:	34f76663          	bltu	a4,a5,12108 <_malloc_r+0x418>
   11dc0:	0064d793          	srl	a5,s1,0x6
   11dc4:	03978593          	add	a1,a5,57
   11dc8:	03878813          	add	a6,a5,56
   11dcc:	00359613          	sll	a2,a1,0x3
   11dd0:	00012997          	auipc	s3,0x12
   11dd4:	53098993          	add	s3,s3,1328 # 24300 <__malloc_av_>
   11dd8:	00c98633          	add	a2,s3,a2
   11ddc:	00462403          	lw	s0,4(a2)
   11de0:	ff860613          	add	a2,a2,-8
   11de4:	02860863          	beq	a2,s0,11e14 <_malloc_r+0x124>
   11de8:	00f00513          	li	a0,15
   11dec:	0140006f          	j	11e00 <_malloc_r+0x110>
   11df0:	00c42683          	lw	a3,12(s0)
   11df4:	28075e63          	bgez	a4,12090 <_malloc_r+0x3a0>
   11df8:	00d60e63          	beq	a2,a3,11e14 <_malloc_r+0x124>
   11dfc:	00068413          	mv	s0,a3
   11e00:	00442783          	lw	a5,4(s0)
   11e04:	ffc7f793          	and	a5,a5,-4
   11e08:	40978733          	sub	a4,a5,s1
   11e0c:	fee552e3          	bge	a0,a4,11df0 <_malloc_r+0x100>
   11e10:	00080593          	mv	a1,a6
   11e14:	0109a403          	lw	s0,16(s3)
   11e18:	00012897          	auipc	a7,0x12
   11e1c:	4f088893          	add	a7,a7,1264 # 24308 <__malloc_av_+0x8>
   11e20:	27140463          	beq	s0,a7,12088 <_malloc_r+0x398>
   11e24:	00442783          	lw	a5,4(s0)
   11e28:	00f00693          	li	a3,15
   11e2c:	ffc7f793          	and	a5,a5,-4
   11e30:	40978733          	sub	a4,a5,s1
   11e34:	38e6c263          	blt	a3,a4,121b8 <_malloc_r+0x4c8>
   11e38:	0119aa23          	sw	a7,20(s3)
   11e3c:	0119a823          	sw	a7,16(s3)
   11e40:	34075663          	bgez	a4,1218c <_malloc_r+0x49c>
   11e44:	1ff00713          	li	a4,511
   11e48:	0049a503          	lw	a0,4(s3)
   11e4c:	24f76e63          	bltu	a4,a5,120a8 <_malloc_r+0x3b8>
   11e50:	ff87f713          	and	a4,a5,-8
   11e54:	00870713          	add	a4,a4,8
   11e58:	00e98733          	add	a4,s3,a4
   11e5c:	00072683          	lw	a3,0(a4)
   11e60:	0057d613          	srl	a2,a5,0x5
   11e64:	00100793          	li	a5,1
   11e68:	00c797b3          	sll	a5,a5,a2
   11e6c:	00f56533          	or	a0,a0,a5
   11e70:	ff870793          	add	a5,a4,-8
   11e74:	00f42623          	sw	a5,12(s0)
   11e78:	00d42423          	sw	a3,8(s0)
   11e7c:	00a9a223          	sw	a0,4(s3)
   11e80:	00872023          	sw	s0,0(a4)
   11e84:	0086a623          	sw	s0,12(a3)
   11e88:	4025d793          	sra	a5,a1,0x2
   11e8c:	00100613          	li	a2,1
   11e90:	00f61633          	sll	a2,a2,a5
   11e94:	0ac56a63          	bltu	a0,a2,11f48 <_malloc_r+0x258>
   11e98:	00a677b3          	and	a5,a2,a0
   11e9c:	02079463          	bnez	a5,11ec4 <_malloc_r+0x1d4>
   11ea0:	00161613          	sll	a2,a2,0x1
   11ea4:	ffc5f593          	and	a1,a1,-4
   11ea8:	00a677b3          	and	a5,a2,a0
   11eac:	00458593          	add	a1,a1,4
   11eb0:	00079a63          	bnez	a5,11ec4 <_malloc_r+0x1d4>
   11eb4:	00161613          	sll	a2,a2,0x1
   11eb8:	00a677b3          	and	a5,a2,a0
   11ebc:	00458593          	add	a1,a1,4
   11ec0:	fe078ae3          	beqz	a5,11eb4 <_malloc_r+0x1c4>
   11ec4:	00f00813          	li	a6,15
   11ec8:	00359313          	sll	t1,a1,0x3
   11ecc:	00698333          	add	t1,s3,t1
   11ed0:	00030513          	mv	a0,t1
   11ed4:	00c52783          	lw	a5,12(a0)
   11ed8:	00058e13          	mv	t3,a1
   11edc:	24f50863          	beq	a0,a5,1212c <_malloc_r+0x43c>
   11ee0:	0047a703          	lw	a4,4(a5)
   11ee4:	00078413          	mv	s0,a5
   11ee8:	00c7a783          	lw	a5,12(a5)
   11eec:	ffc77713          	and	a4,a4,-4
   11ef0:	409706b3          	sub	a3,a4,s1
   11ef4:	24d84863          	blt	a6,a3,12144 <_malloc_r+0x454>
   11ef8:	fe06c2e3          	bltz	a3,11edc <_malloc_r+0x1ec>
   11efc:	00e40733          	add	a4,s0,a4
   11f00:	00472683          	lw	a3,4(a4)
   11f04:	00842603          	lw	a2,8(s0)
   11f08:	00090513          	mv	a0,s2
   11f0c:	0016e693          	or	a3,a3,1
   11f10:	00d72223          	sw	a3,4(a4)
   11f14:	00f62623          	sw	a5,12(a2)
   11f18:	00c7a423          	sw	a2,8(a5)
   11f1c:	5a4000ef          	jal	124c0 <__malloc_unlock>
   11f20:	00840513          	add	a0,s0,8
   11f24:	e59ff06f          	j	11d7c <_malloc_r+0x8c>
   11f28:	00c00793          	li	a5,12
   11f2c:	00f92023          	sw	a5,0(s2)
   11f30:	00000513          	li	a0,0
   11f34:	e49ff06f          	j	11d7c <_malloc_r+0x8c>
   11f38:	20000613          	li	a2,512
   11f3c:	04000593          	li	a1,64
   11f40:	03f00813          	li	a6,63
   11f44:	e8dff06f          	j	11dd0 <_malloc_r+0xe0>
   11f48:	0089a403          	lw	s0,8(s3)
   11f4c:	01612823          	sw	s6,16(sp)
   11f50:	00442783          	lw	a5,4(s0)
   11f54:	ffc7fb13          	and	s6,a5,-4
   11f58:	009b6863          	bltu	s6,s1,11f68 <_malloc_r+0x278>
   11f5c:	409b0733          	sub	a4,s6,s1
   11f60:	00f00793          	li	a5,15
   11f64:	0ee7c063          	blt	a5,a4,12044 <_malloc_r+0x354>
   11f68:	01912223          	sw	s9,4(sp)
   11f6c:	f3c18c93          	add	s9,gp,-196 # 2490c <__malloc_sbrk_base>
   11f70:	000ca703          	lw	a4,0(s9)
   11f74:	01412c23          	sw	s4,24(sp)
   11f78:	01512a23          	sw	s5,20(sp)
   11f7c:	01712623          	sw	s7,12(sp)
   11f80:	f801aa83          	lw	s5,-128(gp) # 24950 <__malloc_top_pad>
   11f84:	fff00793          	li	a5,-1
   11f88:	01640a33          	add	s4,s0,s6
   11f8c:	01548ab3          	add	s5,s1,s5
   11f90:	3cf70a63          	beq	a4,a5,12364 <_malloc_r+0x674>
   11f94:	000017b7          	lui	a5,0x1
   11f98:	00f78793          	add	a5,a5,15 # 100f <exit-0xf085>
   11f9c:	00fa8ab3          	add	s5,s5,a5
   11fa0:	fffff7b7          	lui	a5,0xfffff
   11fa4:	00fafab3          	and	s5,s5,a5
   11fa8:	000a8593          	mv	a1,s5
   11fac:	00090513          	mv	a0,s2
   11fb0:	255060ef          	jal	18a04 <_sbrk_r>
   11fb4:	fff00793          	li	a5,-1
   11fb8:	00050b93          	mv	s7,a0
   11fbc:	44f50e63          	beq	a0,a5,12418 <_malloc_r+0x728>
   11fc0:	01812423          	sw	s8,8(sp)
   11fc4:	25456263          	bltu	a0,s4,12208 <_malloc_r+0x518>
   11fc8:	27018c13          	add	s8,gp,624 # 24c40 <__malloc_current_mallinfo>
   11fcc:	000c2583          	lw	a1,0(s8)
   11fd0:	00ba85b3          	add	a1,s5,a1
   11fd4:	00bc2023          	sw	a1,0(s8)
   11fd8:	00058713          	mv	a4,a1
   11fdc:	2aaa1a63          	bne	s4,a0,12290 <_malloc_r+0x5a0>
   11fe0:	01451793          	sll	a5,a0,0x14
   11fe4:	2a079663          	bnez	a5,12290 <_malloc_r+0x5a0>
   11fe8:	0089ab83          	lw	s7,8(s3)
   11fec:	015b07b3          	add	a5,s6,s5
   11ff0:	0017e793          	or	a5,a5,1
   11ff4:	00fba223          	sw	a5,4(s7)
   11ff8:	f7c18713          	add	a4,gp,-132 # 2494c <__malloc_max_sbrked_mem>
   11ffc:	00072683          	lw	a3,0(a4)
   12000:	00b6f463          	bgeu	a3,a1,12008 <_malloc_r+0x318>
   12004:	00b72023          	sw	a1,0(a4)
   12008:	f7818713          	add	a4,gp,-136 # 24948 <__malloc_max_total_mem>
   1200c:	00072683          	lw	a3,0(a4)
   12010:	00b6f463          	bgeu	a3,a1,12018 <_malloc_r+0x328>
   12014:	00b72023          	sw	a1,0(a4)
   12018:	00812c03          	lw	s8,8(sp)
   1201c:	000b8413          	mv	s0,s7
   12020:	ffc7f793          	and	a5,a5,-4
   12024:	40978733          	sub	a4,a5,s1
   12028:	3897ea63          	bltu	a5,s1,123bc <_malloc_r+0x6cc>
   1202c:	00f00793          	li	a5,15
   12030:	38e7d663          	bge	a5,a4,123bc <_malloc_r+0x6cc>
   12034:	01812a03          	lw	s4,24(sp)
   12038:	01412a83          	lw	s5,20(sp)
   1203c:	00c12b83          	lw	s7,12(sp)
   12040:	00412c83          	lw	s9,4(sp)
   12044:	0014e793          	or	a5,s1,1
   12048:	00f42223          	sw	a5,4(s0)
   1204c:	009404b3          	add	s1,s0,s1
   12050:	0099a423          	sw	s1,8(s3)
   12054:	00176713          	or	a4,a4,1
   12058:	00090513          	mv	a0,s2
   1205c:	00e4a223          	sw	a4,4(s1)
   12060:	460000ef          	jal	124c0 <__malloc_unlock>
   12064:	02c12083          	lw	ra,44(sp)
   12068:	00840513          	add	a0,s0,8
   1206c:	02812403          	lw	s0,40(sp)
   12070:	01012b03          	lw	s6,16(sp)
   12074:	02412483          	lw	s1,36(sp)
   12078:	02012903          	lw	s2,32(sp)
   1207c:	01c12983          	lw	s3,28(sp)
   12080:	03010113          	add	sp,sp,48
   12084:	00008067          	ret
   12088:	0049a503          	lw	a0,4(s3)
   1208c:	dfdff06f          	j	11e88 <_malloc_r+0x198>
   12090:	00842603          	lw	a2,8(s0)
   12094:	cc5ff06f          	j	11d58 <_malloc_r+0x68>
   12098:	00c7a403          	lw	s0,12(a5) # fffff00c <__BSS_END__+0xfffda0fc>
   1209c:	00258593          	add	a1,a1,2
   120a0:	d6878ae3          	beq	a5,s0,11e14 <_malloc_r+0x124>
   120a4:	ca5ff06f          	j	11d48 <_malloc_r+0x58>
   120a8:	0097d713          	srl	a4,a5,0x9
   120ac:	00400693          	li	a3,4
   120b0:	14e6f263          	bgeu	a3,a4,121f4 <_malloc_r+0x504>
   120b4:	01400693          	li	a3,20
   120b8:	32e6e463          	bltu	a3,a4,123e0 <_malloc_r+0x6f0>
   120bc:	05c70613          	add	a2,a4,92
   120c0:	05b70693          	add	a3,a4,91
   120c4:	00361613          	sll	a2,a2,0x3
   120c8:	00c98633          	add	a2,s3,a2
   120cc:	00062703          	lw	a4,0(a2)
   120d0:	ff860613          	add	a2,a2,-8
   120d4:	00e61863          	bne	a2,a4,120e4 <_malloc_r+0x3f4>
   120d8:	2940006f          	j	1236c <_malloc_r+0x67c>
   120dc:	00872703          	lw	a4,8(a4)
   120e0:	00e60863          	beq	a2,a4,120f0 <_malloc_r+0x400>
   120e4:	00472683          	lw	a3,4(a4)
   120e8:	ffc6f693          	and	a3,a3,-4
   120ec:	fed7e8e3          	bltu	a5,a3,120dc <_malloc_r+0x3ec>
   120f0:	00c72603          	lw	a2,12(a4)
   120f4:	00c42623          	sw	a2,12(s0)
   120f8:	00e42423          	sw	a4,8(s0)
   120fc:	00862423          	sw	s0,8(a2)
   12100:	00872623          	sw	s0,12(a4)
   12104:	d85ff06f          	j	11e88 <_malloc_r+0x198>
   12108:	01400713          	li	a4,20
   1210c:	10f77863          	bgeu	a4,a5,1221c <_malloc_r+0x52c>
   12110:	05400713          	li	a4,84
   12114:	2ef76463          	bltu	a4,a5,123fc <_malloc_r+0x70c>
   12118:	00c4d793          	srl	a5,s1,0xc
   1211c:	06f78593          	add	a1,a5,111
   12120:	06e78813          	add	a6,a5,110
   12124:	00359613          	sll	a2,a1,0x3
   12128:	ca9ff06f          	j	11dd0 <_malloc_r+0xe0>
   1212c:	001e0e13          	add	t3,t3,1
   12130:	003e7793          	and	a5,t3,3
   12134:	00850513          	add	a0,a0,8
   12138:	10078063          	beqz	a5,12238 <_malloc_r+0x548>
   1213c:	00c52783          	lw	a5,12(a0)
   12140:	d9dff06f          	j	11edc <_malloc_r+0x1ec>
   12144:	00842603          	lw	a2,8(s0)
   12148:	0014e593          	or	a1,s1,1
   1214c:	00b42223          	sw	a1,4(s0)
   12150:	00f62623          	sw	a5,12(a2)
   12154:	00c7a423          	sw	a2,8(a5)
   12158:	009404b3          	add	s1,s0,s1
   1215c:	0099aa23          	sw	s1,20(s3)
   12160:	0099a823          	sw	s1,16(s3)
   12164:	0016e793          	or	a5,a3,1
   12168:	0114a623          	sw	a7,12(s1)
   1216c:	0114a423          	sw	a7,8(s1)
   12170:	00f4a223          	sw	a5,4(s1)
   12174:	00e40733          	add	a4,s0,a4
   12178:	00090513          	mv	a0,s2
   1217c:	00d72023          	sw	a3,0(a4)
   12180:	340000ef          	jal	124c0 <__malloc_unlock>
   12184:	00840513          	add	a0,s0,8
   12188:	bf5ff06f          	j	11d7c <_malloc_r+0x8c>
   1218c:	00f407b3          	add	a5,s0,a5
   12190:	0047a703          	lw	a4,4(a5)
   12194:	00090513          	mv	a0,s2
   12198:	00176713          	or	a4,a4,1
   1219c:	00e7a223          	sw	a4,4(a5)
   121a0:	320000ef          	jal	124c0 <__malloc_unlock>
   121a4:	00840513          	add	a0,s0,8
   121a8:	bd5ff06f          	j	11d7c <_malloc_r+0x8c>
   121ac:	0034d593          	srl	a1,s1,0x3
   121b0:	00848793          	add	a5,s1,8
   121b4:	b7dff06f          	j	11d30 <_malloc_r+0x40>
   121b8:	0014e693          	or	a3,s1,1
   121bc:	00d42223          	sw	a3,4(s0)
   121c0:	009404b3          	add	s1,s0,s1
   121c4:	0099aa23          	sw	s1,20(s3)
   121c8:	0099a823          	sw	s1,16(s3)
   121cc:	00176693          	or	a3,a4,1
   121d0:	0114a623          	sw	a7,12(s1)
   121d4:	0114a423          	sw	a7,8(s1)
   121d8:	00d4a223          	sw	a3,4(s1)
   121dc:	00f407b3          	add	a5,s0,a5
   121e0:	00090513          	mv	a0,s2
   121e4:	00e7a023          	sw	a4,0(a5)
   121e8:	2d8000ef          	jal	124c0 <__malloc_unlock>
   121ec:	00840513          	add	a0,s0,8
   121f0:	b8dff06f          	j	11d7c <_malloc_r+0x8c>
   121f4:	0067d713          	srl	a4,a5,0x6
   121f8:	03970613          	add	a2,a4,57
   121fc:	03870693          	add	a3,a4,56
   12200:	00361613          	sll	a2,a2,0x3
   12204:	ec5ff06f          	j	120c8 <_malloc_r+0x3d8>
   12208:	07340c63          	beq	s0,s3,12280 <_malloc_r+0x590>
   1220c:	0089a403          	lw	s0,8(s3)
   12210:	00812c03          	lw	s8,8(sp)
   12214:	00442783          	lw	a5,4(s0)
   12218:	e09ff06f          	j	12020 <_malloc_r+0x330>
   1221c:	05c78593          	add	a1,a5,92
   12220:	05b78813          	add	a6,a5,91
   12224:	00359613          	sll	a2,a1,0x3
   12228:	ba9ff06f          	j	11dd0 <_malloc_r+0xe0>
   1222c:	00832783          	lw	a5,8(t1)
   12230:	fff58593          	add	a1,a1,-1
   12234:	26679e63          	bne	a5,t1,124b0 <_malloc_r+0x7c0>
   12238:	0035f793          	and	a5,a1,3
   1223c:	ff830313          	add	t1,t1,-8
   12240:	fe0796e3          	bnez	a5,1222c <_malloc_r+0x53c>
   12244:	0049a703          	lw	a4,4(s3)
   12248:	fff64793          	not	a5,a2
   1224c:	00e7f7b3          	and	a5,a5,a4
   12250:	00f9a223          	sw	a5,4(s3)
   12254:	00161613          	sll	a2,a2,0x1
   12258:	cec7e8e3          	bltu	a5,a2,11f48 <_malloc_r+0x258>
   1225c:	ce0606e3          	beqz	a2,11f48 <_malloc_r+0x258>
   12260:	00f67733          	and	a4,a2,a5
   12264:	00071a63          	bnez	a4,12278 <_malloc_r+0x588>
   12268:	00161613          	sll	a2,a2,0x1
   1226c:	00f67733          	and	a4,a2,a5
   12270:	004e0e13          	add	t3,t3,4
   12274:	fe070ae3          	beqz	a4,12268 <_malloc_r+0x578>
   12278:	000e0593          	mv	a1,t3
   1227c:	c4dff06f          	j	11ec8 <_malloc_r+0x1d8>
   12280:	27018c13          	add	s8,gp,624 # 24c40 <__malloc_current_mallinfo>
   12284:	000c2703          	lw	a4,0(s8)
   12288:	00ea8733          	add	a4,s5,a4
   1228c:	00ec2023          	sw	a4,0(s8)
   12290:	000ca683          	lw	a3,0(s9)
   12294:	fff00793          	li	a5,-1
   12298:	18f68663          	beq	a3,a5,12424 <_malloc_r+0x734>
   1229c:	414b87b3          	sub	a5,s7,s4
   122a0:	00e787b3          	add	a5,a5,a4
   122a4:	00fc2023          	sw	a5,0(s8)
   122a8:	007bfc93          	and	s9,s7,7
   122ac:	0c0c8c63          	beqz	s9,12384 <_malloc_r+0x694>
   122b0:	419b8bb3          	sub	s7,s7,s9
   122b4:	000017b7          	lui	a5,0x1
   122b8:	00878793          	add	a5,a5,8 # 1008 <exit-0xf08c>
   122bc:	008b8b93          	add	s7,s7,8
   122c0:	419785b3          	sub	a1,a5,s9
   122c4:	015b8ab3          	add	s5,s7,s5
   122c8:	415585b3          	sub	a1,a1,s5
   122cc:	01459593          	sll	a1,a1,0x14
   122d0:	0145da13          	srl	s4,a1,0x14
   122d4:	000a0593          	mv	a1,s4
   122d8:	00090513          	mv	a0,s2
   122dc:	728060ef          	jal	18a04 <_sbrk_r>
   122e0:	fff00793          	li	a5,-1
   122e4:	18f50063          	beq	a0,a5,12464 <_malloc_r+0x774>
   122e8:	41750533          	sub	a0,a0,s7
   122ec:	01450ab3          	add	s5,a0,s4
   122f0:	000c2703          	lw	a4,0(s8)
   122f4:	0179a423          	sw	s7,8(s3)
   122f8:	001ae793          	or	a5,s5,1
   122fc:	00ea05b3          	add	a1,s4,a4
   12300:	00bc2023          	sw	a1,0(s8)
   12304:	00fba223          	sw	a5,4(s7)
   12308:	cf3408e3          	beq	s0,s3,11ff8 <_malloc_r+0x308>
   1230c:	00f00693          	li	a3,15
   12310:	0b66f063          	bgeu	a3,s6,123b0 <_malloc_r+0x6c0>
   12314:	00442703          	lw	a4,4(s0)
   12318:	ff4b0793          	add	a5,s6,-12
   1231c:	ff87f793          	and	a5,a5,-8
   12320:	00177713          	and	a4,a4,1
   12324:	00f76733          	or	a4,a4,a5
   12328:	00e42223          	sw	a4,4(s0)
   1232c:	00500613          	li	a2,5
   12330:	00f40733          	add	a4,s0,a5
   12334:	00c72223          	sw	a2,4(a4)
   12338:	00c72423          	sw	a2,8(a4)
   1233c:	00f6e663          	bltu	a3,a5,12348 <_malloc_r+0x658>
   12340:	004ba783          	lw	a5,4(s7)
   12344:	cb5ff06f          	j	11ff8 <_malloc_r+0x308>
   12348:	00840593          	add	a1,s0,8
   1234c:	00090513          	mv	a0,s2
   12350:	e9cff0ef          	jal	119ec <_free_r>
   12354:	0089ab83          	lw	s7,8(s3)
   12358:	000c2583          	lw	a1,0(s8)
   1235c:	004ba783          	lw	a5,4(s7)
   12360:	c99ff06f          	j	11ff8 <_malloc_r+0x308>
   12364:	010a8a93          	add	s5,s5,16
   12368:	c41ff06f          	j	11fa8 <_malloc_r+0x2b8>
   1236c:	4026d693          	sra	a3,a3,0x2
   12370:	00100793          	li	a5,1
   12374:	00d797b3          	sll	a5,a5,a3
   12378:	00f56533          	or	a0,a0,a5
   1237c:	00a9a223          	sw	a0,4(s3)
   12380:	d75ff06f          	j	120f4 <_malloc_r+0x404>
   12384:	015b85b3          	add	a1,s7,s5
   12388:	40b005b3          	neg	a1,a1
   1238c:	01459593          	sll	a1,a1,0x14
   12390:	0145da13          	srl	s4,a1,0x14
   12394:	000a0593          	mv	a1,s4
   12398:	00090513          	mv	a0,s2
   1239c:	668060ef          	jal	18a04 <_sbrk_r>
   123a0:	fff00793          	li	a5,-1
   123a4:	f4f512e3          	bne	a0,a5,122e8 <_malloc_r+0x5f8>
   123a8:	00000a13          	li	s4,0
   123ac:	f45ff06f          	j	122f0 <_malloc_r+0x600>
   123b0:	00812c03          	lw	s8,8(sp)
   123b4:	00100793          	li	a5,1
   123b8:	00fba223          	sw	a5,4(s7)
   123bc:	00090513          	mv	a0,s2
   123c0:	100000ef          	jal	124c0 <__malloc_unlock>
   123c4:	00000513          	li	a0,0
   123c8:	01812a03          	lw	s4,24(sp)
   123cc:	01412a83          	lw	s5,20(sp)
   123d0:	01012b03          	lw	s6,16(sp)
   123d4:	00c12b83          	lw	s7,12(sp)
   123d8:	00412c83          	lw	s9,4(sp)
   123dc:	9a1ff06f          	j	11d7c <_malloc_r+0x8c>
   123e0:	05400693          	li	a3,84
   123e4:	04e6e463          	bltu	a3,a4,1242c <_malloc_r+0x73c>
   123e8:	00c7d713          	srl	a4,a5,0xc
   123ec:	06f70613          	add	a2,a4,111
   123f0:	06e70693          	add	a3,a4,110
   123f4:	00361613          	sll	a2,a2,0x3
   123f8:	cd1ff06f          	j	120c8 <_malloc_r+0x3d8>
   123fc:	15400713          	li	a4,340
   12400:	04f76463          	bltu	a4,a5,12448 <_malloc_r+0x758>
   12404:	00f4d793          	srl	a5,s1,0xf
   12408:	07878593          	add	a1,a5,120
   1240c:	07778813          	add	a6,a5,119
   12410:	00359613          	sll	a2,a1,0x3
   12414:	9bdff06f          	j	11dd0 <_malloc_r+0xe0>
   12418:	0089a403          	lw	s0,8(s3)
   1241c:	00442783          	lw	a5,4(s0)
   12420:	c01ff06f          	j	12020 <_malloc_r+0x330>
   12424:	017ca023          	sw	s7,0(s9)
   12428:	e81ff06f          	j	122a8 <_malloc_r+0x5b8>
   1242c:	15400693          	li	a3,340
   12430:	04e6e463          	bltu	a3,a4,12478 <_malloc_r+0x788>
   12434:	00f7d713          	srl	a4,a5,0xf
   12438:	07870613          	add	a2,a4,120
   1243c:	07770693          	add	a3,a4,119
   12440:	00361613          	sll	a2,a2,0x3
   12444:	c85ff06f          	j	120c8 <_malloc_r+0x3d8>
   12448:	55400713          	li	a4,1364
   1244c:	04f76463          	bltu	a4,a5,12494 <_malloc_r+0x7a4>
   12450:	0124d793          	srl	a5,s1,0x12
   12454:	07d78593          	add	a1,a5,125
   12458:	07c78813          	add	a6,a5,124
   1245c:	00359613          	sll	a2,a1,0x3
   12460:	971ff06f          	j	11dd0 <_malloc_r+0xe0>
   12464:	ff8c8c93          	add	s9,s9,-8
   12468:	019a8ab3          	add	s5,s5,s9
   1246c:	417a8ab3          	sub	s5,s5,s7
   12470:	00000a13          	li	s4,0
   12474:	e7dff06f          	j	122f0 <_malloc_r+0x600>
   12478:	55400693          	li	a3,1364
   1247c:	02e6e463          	bltu	a3,a4,124a4 <_malloc_r+0x7b4>
   12480:	0127d713          	srl	a4,a5,0x12
   12484:	07d70613          	add	a2,a4,125
   12488:	07c70693          	add	a3,a4,124
   1248c:	00361613          	sll	a2,a2,0x3
   12490:	c39ff06f          	j	120c8 <_malloc_r+0x3d8>
   12494:	3f800613          	li	a2,1016
   12498:	07f00593          	li	a1,127
   1249c:	07e00813          	li	a6,126
   124a0:	931ff06f          	j	11dd0 <_malloc_r+0xe0>
   124a4:	3f800613          	li	a2,1016
   124a8:	07e00693          	li	a3,126
   124ac:	c1dff06f          	j	120c8 <_malloc_r+0x3d8>
   124b0:	0049a783          	lw	a5,4(s3)
   124b4:	da1ff06f          	j	12254 <_malloc_r+0x564>

000124b8 <__malloc_lock>:
   124b8:	f6418513          	add	a0,gp,-156 # 24934 <__lock___malloc_recursive_mutex>
   124bc:	8ccff06f          	j	11588 <__retarget_lock_acquire_recursive>

000124c0 <__malloc_unlock>:
   124c0:	f6418513          	add	a0,gp,-156 # 24934 <__lock___malloc_recursive_mutex>
   124c4:	8dcff06f          	j	115a0 <__retarget_lock_release_recursive>

000124c8 <_vfprintf_r>:
   124c8:	e7010113          	add	sp,sp,-400
   124cc:	18112623          	sw	ra,396(sp)
   124d0:	00b12423          	sw	a1,8(sp)
   124d4:	00c12623          	sw	a2,12(sp)
   124d8:	00d12a23          	sw	a3,20(sp)
   124dc:	17312e23          	sw	s3,380(sp)
   124e0:	18812423          	sw	s0,392(sp)
   124e4:	00050993          	mv	s3,a0
   124e8:	50c060ef          	jal	189f4 <_localeconv_r>
   124ec:	00052783          	lw	a5,0(a0)
   124f0:	00078513          	mv	a0,a5
   124f4:	02f12a23          	sw	a5,52(sp)
   124f8:	00d060ef          	jal	18d04 <strlen>
   124fc:	00050713          	mv	a4,a0
   12500:	00800613          	li	a2,8
   12504:	00000593          	li	a1,0
   12508:	09010513          	add	a0,sp,144
   1250c:	02e12823          	sw	a4,48(sp)
   12510:	894ff0ef          	jal	115a4 <memset>
   12514:	00c12783          	lw	a5,12(sp)
   12518:	00098863          	beqz	s3,12528 <_vfprintf_r+0x60>
   1251c:	0349a703          	lw	a4,52(s3)
   12520:	00071463          	bnez	a4,12528 <_vfprintf_r+0x60>
   12524:	2990106f          	j	13fbc <_vfprintf_r+0x1af4>
   12528:	00812703          	lw	a4,8(sp)
   1252c:	06472683          	lw	a3,100(a4)
   12530:	00c71703          	lh	a4,12(a4)
   12534:	0016f693          	and	a3,a3,1
   12538:	00069863          	bnez	a3,12548 <_vfprintf_r+0x80>
   1253c:	20077693          	and	a3,a4,512
   12540:	00069463          	bnez	a3,12548 <_vfprintf_r+0x80>
   12544:	3e80106f          	j	1392c <_vfprintf_r+0x1464>
   12548:	01271693          	sll	a3,a4,0x12
   1254c:	0206c863          	bltz	a3,1257c <_vfprintf_r+0xb4>
   12550:	00812503          	lw	a0,8(sp)
   12554:	000025b7          	lui	a1,0x2
   12558:	ffffe637          	lui	a2,0xffffe
   1255c:	06452683          	lw	a3,100(a0)
   12560:	00b76733          	or	a4,a4,a1
   12564:	fff60613          	add	a2,a2,-1 # ffffdfff <__BSS_END__+0xfffd90ef>
   12568:	01071713          	sll	a4,a4,0x10
   1256c:	41075713          	sra	a4,a4,0x10
   12570:	00c6f6b3          	and	a3,a3,a2
   12574:	00e51623          	sh	a4,12(a0)
   12578:	06d52223          	sw	a3,100(a0)
   1257c:	00877693          	and	a3,a4,8
   12580:	28068e63          	beqz	a3,1281c <_vfprintf_r+0x354>
   12584:	00812683          	lw	a3,8(sp)
   12588:	0106a683          	lw	a3,16(a3)
   1258c:	28068863          	beqz	a3,1281c <_vfprintf_r+0x354>
   12590:	01a77693          	and	a3,a4,26
   12594:	00a00613          	li	a2,10
   12598:	2ac68a63          	beq	a3,a2,1284c <_vfprintf_r+0x384>
   1259c:	0ac10713          	add	a4,sp,172
   125a0:	17512a23          	sw	s5,372(sp)
   125a4:	17812423          	sw	s8,360(sp)
   125a8:	15b12e23          	sw	s11,348(sp)
   125ac:	18912223          	sw	s1,388(sp)
   125b0:	19212023          	sw	s2,384(sp)
   125b4:	17412c23          	sw	s4,376(sp)
   125b8:	17612823          	sw	s6,368(sp)
   125bc:	17712623          	sw	s7,364(sp)
   125c0:	17912223          	sw	s9,356(sp)
   125c4:	17a12023          	sw	s10,352(sp)
   125c8:	0ae12023          	sw	a4,160(sp)
   125cc:	0a012423          	sw	zero,168(sp)
   125d0:	0a012223          	sw	zero,164(sp)
   125d4:	00012c23          	sw	zero,24(sp)
   125d8:	02012423          	sw	zero,40(sp)
   125dc:	02012623          	sw	zero,44(sp)
   125e0:	00070413          	mv	s0,a4
   125e4:	02012c23          	sw	zero,56(sp)
   125e8:	04012023          	sw	zero,64(sp)
   125ec:	02012e23          	sw	zero,60(sp)
   125f0:	04012623          	sw	zero,76(sp)
   125f4:	04012423          	sw	zero,72(sp)
   125f8:	00012623          	sw	zero,12(sp)
   125fc:	d3818a93          	add	s5,gp,-712 # 24708 <__global_locale>
   12600:	02500d93          	li	s11,37
   12604:	00078c13          	mv	s8,a5
   12608:	000c0913          	mv	s2,s8
   1260c:	0e4aa483          	lw	s1,228(s5)
   12610:	3c4060ef          	jal	189d4 <__locale_mb_cur_max>
   12614:	00050693          	mv	a3,a0
   12618:	09010713          	add	a4,sp,144
   1261c:	00090613          	mv	a2,s2
   12620:	08010593          	add	a1,sp,128
   12624:	00098513          	mv	a0,s3
   12628:	000480e7          	jalr	s1
   1262c:	2c050a63          	beqz	a0,12900 <_vfprintf_r+0x438>
   12630:	2a054a63          	bltz	a0,128e4 <_vfprintf_r+0x41c>
   12634:	08012783          	lw	a5,128(sp)
   12638:	01b78663          	beq	a5,s11,12644 <_vfprintf_r+0x17c>
   1263c:	00a90933          	add	s2,s2,a0
   12640:	fcdff06f          	j	1260c <_vfprintf_r+0x144>
   12644:	00050493          	mv	s1,a0
   12648:	41890cb3          	sub	s9,s2,s8
   1264c:	2d891063          	bne	s2,s8,1290c <_vfprintf_r+0x444>
   12650:	fff00313          	li	t1,-1
   12654:	00000e93          	li	t4,0
   12658:	00194e03          	lbu	t3,1(s2)
   1265c:	06010ba3          	sb	zero,119(sp)
   12660:	00190913          	add	s2,s2,1
   12664:	00000b93          	li	s7,0
   12668:	05a00493          	li	s1,90
   1266c:	000e8a13          	mv	s4,t4
   12670:	00030b13          	mv	s6,t1
   12674:	00190913          	add	s2,s2,1
   12678:	fe0e0793          	add	a5,t3,-32
   1267c:	04f4ea63          	bltu	s1,a5,126d0 <_vfprintf_r+0x208>
   12680:	00010717          	auipc	a4,0x10
   12684:	ea870713          	add	a4,a4,-344 # 22528 <__clzsi2+0x384>
   12688:	00279793          	sll	a5,a5,0x2
   1268c:	00e787b3          	add	a5,a5,a4
   12690:	0007a783          	lw	a5,0(a5)
   12694:	00e787b3          	add	a5,a5,a4
   12698:	00078067          	jr	a5
   1269c:	00000b93          	li	s7,0
   126a0:	fd0e0713          	add	a4,t3,-48
   126a4:	00900693          	li	a3,9
   126a8:	00094e03          	lbu	t3,0(s2)
   126ac:	002b9793          	sll	a5,s7,0x2
   126b0:	017787b3          	add	a5,a5,s7
   126b4:	00179793          	sll	a5,a5,0x1
   126b8:	00f70bb3          	add	s7,a4,a5
   126bc:	fd0e0713          	add	a4,t3,-48
   126c0:	00190913          	add	s2,s2,1
   126c4:	fee6f2e3          	bgeu	a3,a4,126a8 <_vfprintf_r+0x1e0>
   126c8:	fe0e0793          	add	a5,t3,-32
   126cc:	faf4fae3          	bgeu	s1,a5,12680 <_vfprintf_r+0x1b8>
   126d0:	000a0e93          	mv	t4,s4
   126d4:	260e0a63          	beqz	t3,12948 <_vfprintf_r+0x480>
   126d8:	0fc10623          	sb	t3,236(sp)
   126dc:	06010ba3          	sb	zero,119(sp)
   126e0:	00100c93          	li	s9,1
   126e4:	00000613          	li	a2,0
   126e8:	00012823          	sw	zero,16(sp)
   126ec:	00100d13          	li	s10,1
   126f0:	00000313          	li	t1,0
   126f4:	02012223          	sw	zero,36(sp)
   126f8:	02012023          	sw	zero,32(sp)
   126fc:	00000a13          	li	s4,0
   12700:	0ec10c13          	add	s8,sp,236
   12704:	002ef293          	and	t0,t4,2
   12708:	00028463          	beqz	t0,12710 <_vfprintf_r+0x248>
   1270c:	002c8c93          	add	s9,s9,2
   12710:	084eff93          	and	t6,t4,132
   12714:	0a812483          	lw	s1,168(sp)
   12718:	000f9663          	bnez	t6,12724 <_vfprintf_r+0x25c>
   1271c:	419b8733          	sub	a4,s7,s9
   12720:	40e04663          	bgtz	a4,12b2c <_vfprintf_r+0x664>
   12724:	02060a63          	beqz	a2,12758 <_vfprintf_r+0x290>
   12728:	0a412703          	lw	a4,164(sp)
   1272c:	07710613          	add	a2,sp,119
   12730:	00148493          	add	s1,s1,1
   12734:	00170713          	add	a4,a4,1
   12738:	00100793          	li	a5,1
   1273c:	00c42023          	sw	a2,0(s0)
   12740:	00f42223          	sw	a5,4(s0)
   12744:	0a912423          	sw	s1,168(sp)
   12748:	0ae12223          	sw	a4,164(sp)
   1274c:	00700613          	li	a2,7
   12750:	00840413          	add	s0,s0,8
   12754:	4ce64863          	blt	a2,a4,12c24 <_vfprintf_r+0x75c>
   12758:	02028a63          	beqz	t0,1278c <_vfprintf_r+0x2c4>
   1275c:	0a412703          	lw	a4,164(sp)
   12760:	07810613          	add	a2,sp,120
   12764:	00c42023          	sw	a2,0(s0)
   12768:	00248493          	add	s1,s1,2
   1276c:	00200613          	li	a2,2
   12770:	00170713          	add	a4,a4,1
   12774:	00c42223          	sw	a2,4(s0)
   12778:	0a912423          	sw	s1,168(sp)
   1277c:	0ae12223          	sw	a4,164(sp)
   12780:	00700613          	li	a2,7
   12784:	00840413          	add	s0,s0,8
   12788:	5ce644e3          	blt	a2,a4,13550 <_vfprintf_r+0x1088>
   1278c:	08000713          	li	a4,128
   12790:	3aef80e3          	beq	t6,a4,13330 <_vfprintf_r+0xe68>
   12794:	41a30b33          	sub	s6,t1,s10
   12798:	4b604ae3          	bgtz	s6,1344c <_vfprintf_r+0xf84>
   1279c:	100ef713          	and	a4,t4,256
   127a0:	1a0710e3          	bnez	a4,13140 <_vfprintf_r+0xc78>
   127a4:	0a412783          	lw	a5,164(sp)
   127a8:	01a484b3          	add	s1,s1,s10
   127ac:	01842023          	sw	s8,0(s0)
   127b0:	00178793          	add	a5,a5,1
   127b4:	01a42223          	sw	s10,4(s0)
   127b8:	0a912423          	sw	s1,168(sp)
   127bc:	0af12223          	sw	a5,164(sp)
   127c0:	00700713          	li	a4,7
   127c4:	58f74c63          	blt	a4,a5,12d5c <_vfprintf_r+0x894>
   127c8:	00840413          	add	s0,s0,8
   127cc:	004eff13          	and	t5,t4,4
   127d0:	000f0663          	beqz	t5,127dc <_vfprintf_r+0x314>
   127d4:	419b8d33          	sub	s10,s7,s9
   127d8:	5ba04ce3          	bgtz	s10,13590 <_vfprintf_r+0x10c8>
   127dc:	000b8e93          	mv	t4,s7
   127e0:	019bd463          	bge	s7,s9,127e8 <_vfprintf_r+0x320>
   127e4:	000c8e93          	mv	t4,s9
   127e8:	00c12783          	lw	a5,12(sp)
   127ec:	01d787b3          	add	a5,a5,t4
   127f0:	00f12623          	sw	a5,12(sp)
   127f4:	18049663          	bnez	s1,12980 <_vfprintf_r+0x4b8>
   127f8:	01012783          	lw	a5,16(sp)
   127fc:	0a012223          	sw	zero,164(sp)
   12800:	00078863          	beqz	a5,12810 <_vfprintf_r+0x348>
   12804:	01012583          	lw	a1,16(sp)
   12808:	00098513          	mv	a0,s3
   1280c:	9e0ff0ef          	jal	119ec <_free_r>
   12810:	0ac10413          	add	s0,sp,172
   12814:	00090c13          	mv	s8,s2
   12818:	df1ff06f          	j	12608 <_vfprintf_r+0x140>
   1281c:	00812403          	lw	s0,8(sp)
   12820:	00098513          	mv	a0,s3
   12824:	00f12623          	sw	a5,12(sp)
   12828:	00040593          	mv	a1,s0
   1282c:	6cd040ef          	jal	176f8 <__swsetup_r>
   12830:	00050463          	beqz	a0,12838 <_vfprintf_r+0x370>
   12834:	5600206f          	j	14d94 <_vfprintf_r+0x28cc>
   12838:	00c41703          	lh	a4,12(s0)
   1283c:	00a00613          	li	a2,10
   12840:	00c12783          	lw	a5,12(sp)
   12844:	01a77693          	and	a3,a4,26
   12848:	d4c69ae3          	bne	a3,a2,1259c <_vfprintf_r+0xd4>
   1284c:	00812603          	lw	a2,8(sp)
   12850:	00e61683          	lh	a3,14(a2)
   12854:	d406c4e3          	bltz	a3,1259c <_vfprintf_r+0xd4>
   12858:	06462683          	lw	a3,100(a2)
   1285c:	0016f693          	and	a3,a3,1
   12860:	00069863          	bnez	a3,12870 <_vfprintf_r+0x3a8>
   12864:	20077713          	and	a4,a4,512
   12868:	00071463          	bnez	a4,12870 <_vfprintf_r+0x3a8>
   1286c:	53d0106f          	j	145a8 <_vfprintf_r+0x20e0>
   12870:	01412683          	lw	a3,20(sp)
   12874:	00812583          	lw	a1,8(sp)
   12878:	00098513          	mv	a0,s3
   1287c:	00078613          	mv	a2,a5
   12880:	0f9020ef          	jal	15178 <__sbprintf>
   12884:	18c12083          	lw	ra,396(sp)
   12888:	18812403          	lw	s0,392(sp)
   1288c:	00a12623          	sw	a0,12(sp)
   12890:	00c12503          	lw	a0,12(sp)
   12894:	17c12983          	lw	s3,380(sp)
   12898:	19010113          	add	sp,sp,400
   1289c:	00008067          	ret
   128a0:	00098513          	mv	a0,s3
   128a4:	150060ef          	jal	189f4 <_localeconv_r>
   128a8:	00452783          	lw	a5,4(a0)
   128ac:	00078513          	mv	a0,a5
   128b0:	04f12423          	sw	a5,72(sp)
   128b4:	450060ef          	jal	18d04 <strlen>
   128b8:	00050793          	mv	a5,a0
   128bc:	00098513          	mv	a0,s3
   128c0:	00078c93          	mv	s9,a5
   128c4:	04f12623          	sw	a5,76(sp)
   128c8:	12c060ef          	jal	189f4 <_localeconv_r>
   128cc:	00852703          	lw	a4,8(a0)
   128d0:	02e12e23          	sw	a4,60(sp)
   128d4:	000c8463          	beqz	s9,128dc <_vfprintf_r+0x414>
   128d8:	1ec0106f          	j	13ac4 <_vfprintf_r+0x15fc>
   128dc:	00094e03          	lbu	t3,0(s2)
   128e0:	d95ff06f          	j	12674 <_vfprintf_r+0x1ac>
   128e4:	00800613          	li	a2,8
   128e8:	00000593          	li	a1,0
   128ec:	09010513          	add	a0,sp,144
   128f0:	cb5fe0ef          	jal	115a4 <memset>
   128f4:	00100513          	li	a0,1
   128f8:	00a90933          	add	s2,s2,a0
   128fc:	d11ff06f          	j	1260c <_vfprintf_r+0x144>
   12900:	00050493          	mv	s1,a0
   12904:	41890cb3          	sub	s9,s2,s8
   12908:	05890063          	beq	s2,s8,12948 <_vfprintf_r+0x480>
   1290c:	0a812683          	lw	a3,168(sp)
   12910:	0a412703          	lw	a4,164(sp)
   12914:	01842023          	sw	s8,0(s0)
   12918:	019686b3          	add	a3,a3,s9
   1291c:	00170713          	add	a4,a4,1
   12920:	01942223          	sw	s9,4(s0)
   12924:	0ad12423          	sw	a3,168(sp)
   12928:	0ae12223          	sw	a4,164(sp)
   1292c:	00700693          	li	a3,7
   12930:	00840413          	add	s0,s0,8
   12934:	02e6c863          	blt	a3,a4,12964 <_vfprintf_r+0x49c>
   12938:	00c12783          	lw	a5,12(sp)
   1293c:	019787b3          	add	a5,a5,s9
   12940:	00f12623          	sw	a5,12(sp)
   12944:	d00496e3          	bnez	s1,12650 <_vfprintf_r+0x188>
   12948:	0a812783          	lw	a5,168(sp)
   1294c:	00078463          	beqz	a5,12954 <_vfprintf_r+0x48c>
   12950:	4090106f          	j	14558 <_vfprintf_r+0x2090>
   12954:	00812783          	lw	a5,8(sp)
   12958:	0a012223          	sw	zero,164(sp)
   1295c:	00c79783          	lh	a5,12(a5)
   12960:	0500006f          	j	129b0 <_vfprintf_r+0x4e8>
   12964:	00812583          	lw	a1,8(sp)
   12968:	0a010613          	add	a2,sp,160
   1296c:	00098513          	mv	a0,s3
   12970:	225020ef          	jal	15394 <__sprint_r>
   12974:	02051a63          	bnez	a0,129a8 <_vfprintf_r+0x4e0>
   12978:	0ac10413          	add	s0,sp,172
   1297c:	fbdff06f          	j	12938 <_vfprintf_r+0x470>
   12980:	00812583          	lw	a1,8(sp)
   12984:	0a010613          	add	a2,sp,160
   12988:	00098513          	mv	a0,s3
   1298c:	209020ef          	jal	15394 <__sprint_r>
   12990:	e60504e3          	beqz	a0,127f8 <_vfprintf_r+0x330>
   12994:	01012283          	lw	t0,16(sp)
   12998:	00028863          	beqz	t0,129a8 <_vfprintf_r+0x4e0>
   1299c:	00028593          	mv	a1,t0
   129a0:	00098513          	mv	a0,s3
   129a4:	848ff0ef          	jal	119ec <_free_r>
   129a8:	00812783          	lw	a5,8(sp)
   129ac:	00c79783          	lh	a5,12(a5)
   129b0:	00812703          	lw	a4,8(sp)
   129b4:	06472703          	lw	a4,100(a4)
   129b8:	00177713          	and	a4,a4,1
   129bc:	3c070463          	beqz	a4,12d84 <_vfprintf_r+0x8bc>
   129c0:	0407f793          	and	a5,a5,64
   129c4:	18412483          	lw	s1,388(sp)
   129c8:	18012903          	lw	s2,384(sp)
   129cc:	17812a03          	lw	s4,376(sp)
   129d0:	17412a83          	lw	s5,372(sp)
   129d4:	17012b03          	lw	s6,368(sp)
   129d8:	16c12b83          	lw	s7,364(sp)
   129dc:	16812c03          	lw	s8,360(sp)
   129e0:	16412c83          	lw	s9,356(sp)
   129e4:	16012d03          	lw	s10,352(sp)
   129e8:	15c12d83          	lw	s11,348(sp)
   129ec:	00078463          	beqz	a5,129f4 <_vfprintf_r+0x52c>
   129f0:	3d00206f          	j	14dc0 <_vfprintf_r+0x28f8>
   129f4:	18c12083          	lw	ra,396(sp)
   129f8:	18812403          	lw	s0,392(sp)
   129fc:	00c12503          	lw	a0,12(sp)
   12a00:	17c12983          	lw	s3,380(sp)
   12a04:	19010113          	add	sp,sp,400
   12a08:	00008067          	ret
   12a0c:	008a7713          	and	a4,s4,8
   12a10:	000a0e93          	mv	t4,s4
   12a14:	000b0313          	mv	t1,s6
   12a18:	00070463          	beqz	a4,12a20 <_vfprintf_r+0x558>
   12a1c:	0200106f          	j	13a3c <_vfprintf_r+0x1574>
   12a20:	01412783          	lw	a5,20(sp)
   12a24:	00778b13          	add	s6,a5,7
   12a28:	ff8b7b13          	and	s6,s6,-8
   12a2c:	000b2783          	lw	a5,0(s6)
   12a30:	02f12423          	sw	a5,40(sp)
   12a34:	004b2783          	lw	a5,4(s6)
   12a38:	02f12623          	sw	a5,44(sp)
   12a3c:	008b0793          	add	a5,s6,8
   12a40:	00f12a23          	sw	a5,20(sp)
   12a44:	02c12a03          	lw	s4,44(sp)
   12a48:	00012717          	auipc	a4,0x12
   12a4c:	e5070713          	add	a4,a4,-432 # 24898 <__SDATA_BEGIN__>
   12a50:	00072c83          	lw	s9,0(a4)
   12a54:	00472d03          	lw	s10,4(a4)
   12a58:	02812b03          	lw	s6,40(sp)
   12a5c:	001a1493          	sll	s1,s4,0x1
   12a60:	0014d493          	srl	s1,s1,0x1
   12a64:	000b0513          	mv	a0,s6
   12a68:	00048593          	mv	a1,s1
   12a6c:	000c8613          	mv	a2,s9
   12a70:	000d0693          	mv	a3,s10
   12a74:	02612223          	sw	t1,36(sp)
   12a78:	03c12023          	sw	t3,32(sp)
   12a7c:	01d12823          	sw	t4,16(sp)
   12a80:	01c0f0ef          	jal	21a9c <__unorddf2>
   12a84:	01012e83          	lw	t4,16(sp)
   12a88:	02012e03          	lw	t3,32(sp)
   12a8c:	02412303          	lw	t1,36(sp)
   12a90:	00050463          	beqz	a0,12a98 <_vfprintf_r+0x5d0>
   12a94:	4080106f          	j	13e9c <_vfprintf_r+0x19d4>
   12a98:	000b0513          	mv	a0,s6
   12a9c:	00048593          	mv	a1,s1
   12aa0:	000c8613          	mv	a2,s9
   12aa4:	000d0693          	mv	a3,s10
   12aa8:	6550d0ef          	jal	208fc <__ledf2>
   12aac:	01012e83          	lw	t4,16(sp)
   12ab0:	02012e03          	lw	t3,32(sp)
   12ab4:	02412303          	lw	t1,36(sp)
   12ab8:	00a04463          	bgtz	a0,12ac0 <_vfprintf_r+0x5f8>
   12abc:	3e00106f          	j	13e9c <_vfprintf_r+0x19d4>
   12ac0:	000b0513          	mv	a0,s6
   12ac4:	000a0593          	mv	a1,s4
   12ac8:	00000613          	li	a2,0
   12acc:	00000693          	li	a3,0
   12ad0:	62d0d0ef          	jal	208fc <__ledf2>
   12ad4:	01012e83          	lw	t4,16(sp)
   12ad8:	02012e03          	lw	t3,32(sp)
   12adc:	00055463          	bgez	a0,12ae4 <_vfprintf_r+0x61c>
   12ae0:	6650106f          	j	14944 <_vfprintf_r+0x247c>
   12ae4:	07714603          	lbu	a2,119(sp)
   12ae8:	04700713          	li	a4,71
   12aec:	0000fc17          	auipc	s8,0xf
   12af0:	764c0c13          	add	s8,s8,1892 # 22250 <__clzsi2+0xac>
   12af4:	01c74663          	blt	a4,t3,12b00 <_vfprintf_r+0x638>
   12af8:	0000fc17          	auipc	s8,0xf
   12afc:	754c0c13          	add	s8,s8,1876 # 2224c <__clzsi2+0xa8>
   12b00:	00012823          	sw	zero,16(sp)
   12b04:	02012223          	sw	zero,36(sp)
   12b08:	02012023          	sw	zero,32(sp)
   12b0c:	f7fefe93          	and	t4,t4,-129
   12b10:	00300c93          	li	s9,3
   12b14:	00300d13          	li	s10,3
   12b18:	00000313          	li	t1,0
   12b1c:	00000a13          	li	s4,0
   12b20:	be0602e3          	beqz	a2,12704 <_vfprintf_r+0x23c>
   12b24:	001c8c93          	add	s9,s9,1
   12b28:	bddff06f          	j	12704 <_vfprintf_r+0x23c>
   12b2c:	01000593          	li	a1,16
   12b30:	0a412603          	lw	a2,164(sp)
   12b34:	00010b17          	auipc	s6,0x10
   12b38:	c08b0b13          	add	s6,s6,-1016 # 2273c <blanks.1>
   12b3c:	0ae5dc63          	bge	a1,a4,12bf4 <_vfprintf_r+0x72c>
   12b40:	00040793          	mv	a5,s0
   12b44:	00048693          	mv	a3,s1
   12b48:	01000893          	li	a7,16
   12b4c:	000b0493          	mv	s1,s6
   12b50:	00700393          	li	t2,7
   12b54:	000a0b13          	mv	s6,s4
   12b58:	04512223          	sw	t0,68(sp)
   12b5c:	05f12823          	sw	t6,80(sp)
   12b60:	05d12a23          	sw	t4,84(sp)
   12b64:	05c12c23          	sw	t3,88(sp)
   12b68:	00070413          	mv	s0,a4
   12b6c:	00030a13          	mv	s4,t1
   12b70:	00c0006f          	j	12b7c <_vfprintf_r+0x6b4>
   12b74:	ff040413          	add	s0,s0,-16
   12b78:	0488da63          	bge	a7,s0,12bcc <_vfprintf_r+0x704>
   12b7c:	01068693          	add	a3,a3,16
   12b80:	00160613          	add	a2,a2,1
   12b84:	0097a023          	sw	s1,0(a5)
   12b88:	0117a223          	sw	a7,4(a5)
   12b8c:	0ad12423          	sw	a3,168(sp)
   12b90:	0ac12223          	sw	a2,164(sp)
   12b94:	00878793          	add	a5,a5,8
   12b98:	fcc3dee3          	bge	t2,a2,12b74 <_vfprintf_r+0x6ac>
   12b9c:	00812583          	lw	a1,8(sp)
   12ba0:	0a010613          	add	a2,sp,160
   12ba4:	00098513          	mv	a0,s3
   12ba8:	7ec020ef          	jal	15394 <__sprint_r>
   12bac:	de0514e3          	bnez	a0,12994 <_vfprintf_r+0x4cc>
   12bb0:	01000893          	li	a7,16
   12bb4:	ff040413          	add	s0,s0,-16
   12bb8:	0a812683          	lw	a3,168(sp)
   12bbc:	0a412603          	lw	a2,164(sp)
   12bc0:	0ac10793          	add	a5,sp,172
   12bc4:	00700393          	li	t2,7
   12bc8:	fa88cae3          	blt	a7,s0,12b7c <_vfprintf_r+0x6b4>
   12bcc:	04412283          	lw	t0,68(sp)
   12bd0:	05012f83          	lw	t6,80(sp)
   12bd4:	05412e83          	lw	t4,84(sp)
   12bd8:	05812e03          	lw	t3,88(sp)
   12bdc:	000a0313          	mv	t1,s4
   12be0:	00040713          	mv	a4,s0
   12be4:	000b0a13          	mv	s4,s6
   12be8:	00078413          	mv	s0,a5
   12bec:	00048b13          	mv	s6,s1
   12bf0:	00068493          	mv	s1,a3
   12bf4:	00e484b3          	add	s1,s1,a4
   12bf8:	00160613          	add	a2,a2,1
   12bfc:	00e42223          	sw	a4,4(s0)
   12c00:	01642023          	sw	s6,0(s0)
   12c04:	0a912423          	sw	s1,168(sp)
   12c08:	0ac12223          	sw	a2,164(sp)
   12c0c:	00700713          	li	a4,7
   12c10:	00c75463          	bge	a4,a2,12c18 <_vfprintf_r+0x750>
   12c14:	2380106f          	j	13e4c <_vfprintf_r+0x1984>
   12c18:	07714603          	lbu	a2,119(sp)
   12c1c:	00840413          	add	s0,s0,8
   12c20:	b05ff06f          	j	12724 <_vfprintf_r+0x25c>
   12c24:	00812583          	lw	a1,8(sp)
   12c28:	0a010613          	add	a2,sp,160
   12c2c:	00098513          	mv	a0,s3
   12c30:	04612e23          	sw	t1,92(sp)
   12c34:	05c12c23          	sw	t3,88(sp)
   12c38:	05d12a23          	sw	t4,84(sp)
   12c3c:	05f12823          	sw	t6,80(sp)
   12c40:	04512223          	sw	t0,68(sp)
   12c44:	750020ef          	jal	15394 <__sprint_r>
   12c48:	d40516e3          	bnez	a0,12994 <_vfprintf_r+0x4cc>
   12c4c:	0a812483          	lw	s1,168(sp)
   12c50:	05c12303          	lw	t1,92(sp)
   12c54:	05812e03          	lw	t3,88(sp)
   12c58:	05412e83          	lw	t4,84(sp)
   12c5c:	05012f83          	lw	t6,80(sp)
   12c60:	04412283          	lw	t0,68(sp)
   12c64:	0ac10413          	add	s0,sp,172
   12c68:	af1ff06f          	j	12758 <_vfprintf_r+0x290>
   12c6c:	0a412d03          	lw	s10,164(sp)
   12c70:	01812783          	lw	a5,24(sp)
   12c74:	00100693          	li	a3,1
   12c78:	01842023          	sw	s8,0(s0)
   12c7c:	00148493          	add	s1,s1,1
   12c80:	001d0d13          	add	s10,s10,1
   12c84:	00840b13          	add	s6,s0,8
   12c88:	32f6d0e3          	bge	a3,a5,137a8 <_vfprintf_r+0x12e0>
   12c8c:	00100693          	li	a3,1
   12c90:	00d42223          	sw	a3,4(s0)
   12c94:	0a912423          	sw	s1,168(sp)
   12c98:	0ba12223          	sw	s10,164(sp)
   12c9c:	00700693          	li	a3,7
   12ca0:	01a6d463          	bge	a3,s10,12ca8 <_vfprintf_r+0x7e0>
   12ca4:	0680106f          	j	13d0c <_vfprintf_r+0x1844>
   12ca8:	03012783          	lw	a5,48(sp)
   12cac:	03412703          	lw	a4,52(sp)
   12cb0:	001d0d13          	add	s10,s10,1
   12cb4:	00f484b3          	add	s1,s1,a5
   12cb8:	00eb2023          	sw	a4,0(s6)
   12cbc:	00fb2223          	sw	a5,4(s6)
   12cc0:	0a912423          	sw	s1,168(sp)
   12cc4:	0ba12223          	sw	s10,164(sp)
   12cc8:	00700693          	li	a3,7
   12ccc:	008b0b13          	add	s6,s6,8
   12cd0:	01a6d463          	bge	a3,s10,12cd8 <_vfprintf_r+0x810>
   12cd4:	0680106f          	j	13d3c <_vfprintf_r+0x1874>
   12cd8:	02812603          	lw	a2,40(sp)
   12cdc:	02c12683          	lw	a3,44(sp)
   12ce0:	01812783          	lw	a5,24(sp)
   12ce4:	00060513          	mv	a0,a2
   12ce8:	00068593          	mv	a1,a3
   12cec:	00000613          	li	a2,0
   12cf0:	00000693          	li	a3,0
   12cf4:	03d12023          	sw	t4,32(sp)
   12cf8:	fff78413          	add	s0,a5,-1
   12cfc:	2750d0ef          	jal	20770 <__eqdf2>
   12d00:	02012e83          	lw	t4,32(sp)
   12d04:	2e0506e3          	beqz	a0,137f0 <_vfprintf_r+0x1328>
   12d08:	001c0793          	add	a5,s8,1
   12d0c:	001d0d13          	add	s10,s10,1
   12d10:	008484b3          	add	s1,s1,s0
   12d14:	00fb2023          	sw	a5,0(s6)
   12d18:	008b2223          	sw	s0,4(s6)
   12d1c:	0a912423          	sw	s1,168(sp)
   12d20:	0ba12223          	sw	s10,164(sp)
   12d24:	00700793          	li	a5,7
   12d28:	008b0b13          	add	s6,s6,8
   12d2c:	29a7cce3          	blt	a5,s10,137c4 <_vfprintf_r+0x12fc>
   12d30:	04012703          	lw	a4,64(sp)
   12d34:	08810793          	add	a5,sp,136
   12d38:	001d0d13          	add	s10,s10,1
   12d3c:	009704b3          	add	s1,a4,s1
   12d40:	00fb2023          	sw	a5,0(s6)
   12d44:	00eb2223          	sw	a4,4(s6)
   12d48:	0a912423          	sw	s1,168(sp)
   12d4c:	0ba12223          	sw	s10,164(sp)
   12d50:	00700793          	li	a5,7
   12d54:	008b0413          	add	s0,s6,8
   12d58:	a7a7dae3          	bge	a5,s10,127cc <_vfprintf_r+0x304>
   12d5c:	00812583          	lw	a1,8(sp)
   12d60:	0a010613          	add	a2,sp,160
   12d64:	00098513          	mv	a0,s3
   12d68:	03d12023          	sw	t4,32(sp)
   12d6c:	628020ef          	jal	15394 <__sprint_r>
   12d70:	c20512e3          	bnez	a0,12994 <_vfprintf_r+0x4cc>
   12d74:	0a812483          	lw	s1,168(sp)
   12d78:	02012e83          	lw	t4,32(sp)
   12d7c:	0ac10413          	add	s0,sp,172
   12d80:	a4dff06f          	j	127cc <_vfprintf_r+0x304>
   12d84:	2007f713          	and	a4,a5,512
   12d88:	c2071ce3          	bnez	a4,129c0 <_vfprintf_r+0x4f8>
   12d8c:	00812403          	lw	s0,8(sp)
   12d90:	05842503          	lw	a0,88(s0)
   12d94:	80dfe0ef          	jal	115a0 <__retarget_lock_release_recursive>
   12d98:	00c41783          	lh	a5,12(s0)
   12d9c:	c25ff06f          	j	129c0 <_vfprintf_r+0x4f8>
   12da0:	00094e03          	lbu	t3,0(s2)
   12da4:	020a6a13          	or	s4,s4,32
   12da8:	8cdff06f          	j	12674 <_vfprintf_r+0x1ac>
   12dac:	01412703          	lw	a4,20(sp)
   12db0:	04300793          	li	a5,67
   12db4:	000a0e93          	mv	t4,s4
   12db8:	00470493          	add	s1,a4,4
   12dbc:	64fe08e3          	beq	t3,a5,13c0c <_vfprintf_r+0x1744>
   12dc0:	010a7793          	and	a5,s4,16
   12dc4:	640794e3          	bnez	a5,13c0c <_vfprintf_r+0x1744>
   12dc8:	01412783          	lw	a5,20(sp)
   12dcc:	00100c93          	li	s9,1
   12dd0:	00100d13          	li	s10,1
   12dd4:	0007a783          	lw	a5,0(a5)
   12dd8:	0ec10c13          	add	s8,sp,236
   12ddc:	0ef10623          	sb	a5,236(sp)
   12de0:	06010ba3          	sb	zero,119(sp)
   12de4:	00912a23          	sw	s1,20(sp)
   12de8:	00000613          	li	a2,0
   12dec:	00012823          	sw	zero,16(sp)
   12df0:	00000313          	li	t1,0
   12df4:	02012223          	sw	zero,36(sp)
   12df8:	02012023          	sw	zero,32(sp)
   12dfc:	00000a13          	li	s4,0
   12e00:	905ff06f          	j	12704 <_vfprintf_r+0x23c>
   12e04:	01412783          	lw	a5,20(sp)
   12e08:	06010ba3          	sb	zero,119(sp)
   12e0c:	000b0313          	mv	t1,s6
   12e10:	0007ac03          	lw	s8,0(a5)
   12e14:	000a0e93          	mv	t4,s4
   12e18:	00478b13          	add	s6,a5,4
   12e1c:	5a0c0ce3          	beqz	s8,13bd4 <_vfprintf_r+0x170c>
   12e20:	05300713          	li	a4,83
   12e24:	00ee1463          	bne	t3,a4,12e2c <_vfprintf_r+0x964>
   12e28:	1d00106f          	j	13ff8 <_vfprintf_r+0x1b30>
   12e2c:	010a7a13          	and	s4,s4,16
   12e30:	000a0463          	beqz	s4,12e38 <_vfprintf_r+0x970>
   12e34:	1c40106f          	j	13ff8 <_vfprintf_r+0x1b30>
   12e38:	00035463          	bgez	t1,12e40 <_vfprintf_r+0x978>
   12e3c:	6d40106f          	j	14510 <_vfprintf_r+0x2048>
   12e40:	00030613          	mv	a2,t1
   12e44:	00000593          	li	a1,0
   12e48:	000c0513          	mv	a0,s8
   12e4c:	03d12023          	sw	t4,32(sp)
   12e50:	00612a23          	sw	t1,20(sp)
   12e54:	501040ef          	jal	17b54 <memchr>
   12e58:	00a12823          	sw	a0,16(sp)
   12e5c:	01412303          	lw	t1,20(sp)
   12e60:	02012e83          	lw	t4,32(sp)
   12e64:	00051463          	bnez	a0,12e6c <_vfprintf_r+0x9a4>
   12e68:	1780206f          	j	14fe0 <_vfprintf_r+0x2b18>
   12e6c:	01012783          	lw	a5,16(sp)
   12e70:	07714603          	lbu	a2,119(sp)
   12e74:	01612a23          	sw	s6,20(sp)
   12e78:	41878d33          	sub	s10,a5,s8
   12e7c:	fffd4813          	not	a6,s10
   12e80:	41f85813          	sra	a6,a6,0x1f
   12e84:	02012223          	sw	zero,36(sp)
   12e88:	02012023          	sw	zero,32(sp)
   12e8c:	00012823          	sw	zero,16(sp)
   12e90:	010d7cb3          	and	s9,s10,a6
   12e94:	00000313          	li	t1,0
   12e98:	07300e13          	li	t3,115
   12e9c:	860604e3          	beqz	a2,12704 <_vfprintf_r+0x23c>
   12ea0:	c85ff06f          	j	12b24 <_vfprintf_r+0x65c>
   12ea4:	01412783          	lw	a5,20(sp)
   12ea8:	0007ab83          	lw	s7,0(a5)
   12eac:	00478793          	add	a5,a5,4
   12eb0:	2a0bdae3          	bgez	s7,13964 <_vfprintf_r+0x149c>
   12eb4:	41700bb3          	neg	s7,s7
   12eb8:	00f12a23          	sw	a5,20(sp)
   12ebc:	00094e03          	lbu	t3,0(s2)
   12ec0:	004a6a13          	or	s4,s4,4
   12ec4:	fb0ff06f          	j	12674 <_vfprintf_r+0x1ac>
   12ec8:	02b00793          	li	a5,43
   12ecc:	00094e03          	lbu	t3,0(s2)
   12ed0:	06f10ba3          	sb	a5,119(sp)
   12ed4:	fa0ff06f          	j	12674 <_vfprintf_r+0x1ac>
   12ed8:	000b0313          	mv	t1,s6
   12edc:	010a6613          	or	a2,s4,16
   12ee0:	02067793          	and	a5,a2,32
   12ee4:	1c0780e3          	beqz	a5,138a4 <_vfprintf_r+0x13dc>
   12ee8:	01412783          	lw	a5,20(sp)
   12eec:	00778b13          	add	s6,a5,7
   12ef0:	ff8b7b13          	and	s6,s6,-8
   12ef4:	000b2d03          	lw	s10,0(s6)
   12ef8:	004b2c83          	lw	s9,4(s6)
   12efc:	008b0793          	add	a5,s6,8
   12f00:	00f12a23          	sw	a5,20(sp)
   12f04:	00100793          	li	a5,1
   12f08:	00000713          	li	a4,0
   12f0c:	06e10ba3          	sb	a4,119(sp)
   12f10:	34034c63          	bltz	t1,13268 <_vfprintf_r+0xda0>
   12f14:	019d6733          	or	a4,s10,s9
   12f18:	f7f67e93          	and	t4,a2,-129
   12f1c:	34071463          	bnez	a4,13264 <_vfprintf_r+0xd9c>
   12f20:	3a031a63          	bnez	t1,132d4 <_vfprintf_r+0xe0c>
   12f24:	5c079ee3          	bnez	a5,13d00 <_vfprintf_r+0x1838>
   12f28:	00167d13          	and	s10,a2,1
   12f2c:	15010c13          	add	s8,sp,336
   12f30:	2c0d10e3          	bnez	s10,139f0 <_vfprintf_r+0x1528>
   12f34:	07714603          	lbu	a2,119(sp)
   12f38:	00030c93          	mv	s9,t1
   12f3c:	01a35463          	bge	t1,s10,12f44 <_vfprintf_r+0xa7c>
   12f40:	000d0c93          	mv	s9,s10
   12f44:	00012823          	sw	zero,16(sp)
   12f48:	02012223          	sw	zero,36(sp)
   12f4c:	02012023          	sw	zero,32(sp)
   12f50:	00000a13          	li	s4,0
   12f54:	fa060863          	beqz	a2,12704 <_vfprintf_r+0x23c>
   12f58:	bcdff06f          	j	12b24 <_vfprintf_r+0x65c>
   12f5c:	00094e03          	lbu	t3,0(s2)
   12f60:	080a6a13          	or	s4,s4,128
   12f64:	f10ff06f          	j	12674 <_vfprintf_r+0x1ac>
   12f68:	00094e03          	lbu	t3,0(s2)
   12f6c:	02a00793          	li	a5,42
   12f70:	00190693          	add	a3,s2,1
   12f74:	00fe1463          	bne	t3,a5,12f7c <_vfprintf_r+0xab4>
   12f78:	1100206f          	j	15088 <_vfprintf_r+0x2bc0>
   12f7c:	fd0e0713          	add	a4,t3,-48
   12f80:	00900793          	li	a5,9
   12f84:	00000b13          	li	s6,0
   12f88:	00900613          	li	a2,9
   12f8c:	02e7e463          	bltu	a5,a4,12fb4 <_vfprintf_r+0xaec>
   12f90:	0006ce03          	lbu	t3,0(a3)
   12f94:	002b1793          	sll	a5,s6,0x2
   12f98:	016787b3          	add	a5,a5,s6
   12f9c:	00179793          	sll	a5,a5,0x1
   12fa0:	00e78b33          	add	s6,a5,a4
   12fa4:	fd0e0713          	add	a4,t3,-48
   12fa8:	00168693          	add	a3,a3,1
   12fac:	fee672e3          	bgeu	a2,a4,12f90 <_vfprintf_r+0xac8>
   12fb0:	320b4ce3          	bltz	s6,13ae8 <_vfprintf_r+0x1620>
   12fb4:	00068913          	mv	s2,a3
   12fb8:	ec0ff06f          	j	12678 <_vfprintf_r+0x1b0>
   12fbc:	00094e03          	lbu	t3,0(s2)
   12fc0:	001a6a13          	or	s4,s4,1
   12fc4:	eb0ff06f          	j	12674 <_vfprintf_r+0x1ac>
   12fc8:	07714783          	lbu	a5,119(sp)
   12fcc:	00094e03          	lbu	t3,0(s2)
   12fd0:	ea079263          	bnez	a5,12674 <_vfprintf_r+0x1ac>
   12fd4:	02000793          	li	a5,32
   12fd8:	06f10ba3          	sb	a5,119(sp)
   12fdc:	e98ff06f          	j	12674 <_vfprintf_r+0x1ac>
   12fe0:	00094e03          	lbu	t3,0(s2)
   12fe4:	06c00793          	li	a5,108
   12fe8:	3afe00e3          	beq	t3,a5,13b88 <_vfprintf_r+0x16c0>
   12fec:	010a6a13          	or	s4,s4,16
   12ff0:	e84ff06f          	j	12674 <_vfprintf_r+0x1ac>
   12ff4:	00094e03          	lbu	t3,0(s2)
   12ff8:	008a6a13          	or	s4,s4,8
   12ffc:	e78ff06f          	j	12674 <_vfprintf_r+0x1ac>
   13000:	000b0313          	mv	t1,s6
   13004:	010a6e93          	or	t4,s4,16
   13008:	020ef793          	and	a5,t4,32
   1300c:	0c0786e3          	beqz	a5,138d8 <_vfprintf_r+0x1410>
   13010:	01412783          	lw	a5,20(sp)
   13014:	00778b13          	add	s6,a5,7
   13018:	ff8b7b13          	and	s6,s6,-8
   1301c:	004b2783          	lw	a5,4(s6)
   13020:	000b2d03          	lw	s10,0(s6)
   13024:	008b0713          	add	a4,s6,8
   13028:	00e12a23          	sw	a4,20(sp)
   1302c:	00078c93          	mv	s9,a5
   13030:	0c07cee3          	bltz	a5,1390c <_vfprintf_r+0x1444>
   13034:	000e8613          	mv	a2,t4
   13038:	02034263          	bltz	t1,1305c <_vfprintf_r+0xb94>
   1303c:	019d67b3          	or	a5,s10,s9
   13040:	f7fef613          	and	a2,t4,-129
   13044:	00079c63          	bnez	a5,1305c <_vfprintf_r+0xb94>
   13048:	02031063          	bnez	t1,13068 <_vfprintf_r+0xba0>
   1304c:	00000d13          	li	s10,0
   13050:	00060e93          	mv	t4,a2
   13054:	15010c13          	add	s8,sp,336
   13058:	eddff06f          	j	12f34 <_vfprintf_r+0xa6c>
   1305c:	520c90e3          	bnez	s9,13d7c <_vfprintf_r+0x18b4>
   13060:	00900793          	li	a5,9
   13064:	51a7ece3          	bltu	a5,s10,13d7c <_vfprintf_r+0x18b4>
   13068:	030d0d13          	add	s10,s10,48
   1306c:	15a107a3          	sb	s10,335(sp)
   13070:	00060e93          	mv	t4,a2
   13074:	00100d13          	li	s10,1
   13078:	14f10c13          	add	s8,sp,335
   1307c:	eb9ff06f          	j	12f34 <_vfprintf_r+0xa6c>
   13080:	000b0313          	mv	t1,s6
   13084:	010a6e93          	or	t4,s4,16
   13088:	020ef793          	and	a5,t4,32
   1308c:	7e078463          	beqz	a5,13874 <_vfprintf_r+0x13ac>
   13090:	01412783          	lw	a5,20(sp)
   13094:	00778b13          	add	s6,a5,7
   13098:	ff8b7b13          	and	s6,s6,-8
   1309c:	000b2d03          	lw	s10,0(s6)
   130a0:	004b2c83          	lw	s9,4(s6)
   130a4:	008b0793          	add	a5,s6,8
   130a8:	00f12a23          	sw	a5,20(sp)
   130ac:	bffef613          	and	a2,t4,-1025
   130b0:	00000793          	li	a5,0
   130b4:	e55ff06f          	j	12f08 <_vfprintf_r+0xa40>
   130b8:	00094e03          	lbu	t3,0(s2)
   130bc:	06800793          	li	a5,104
   130c0:	2cfe0ce3          	beq	t3,a5,13b98 <_vfprintf_r+0x16d0>
   130c4:	040a6a13          	or	s4,s4,64
   130c8:	dacff06f          	j	12674 <_vfprintf_r+0x1ac>
   130cc:	01412703          	lw	a4,20(sp)
   130d0:	000087b7          	lui	a5,0x8
   130d4:	83078793          	add	a5,a5,-2000 # 7830 <exit-0x8864>
   130d8:	06f11c23          	sh	a5,120(sp)
   130dc:	00470793          	add	a5,a4,4
   130e0:	00f12a23          	sw	a5,20(sp)
   130e4:	0000f797          	auipc	a5,0xf
   130e8:	17878793          	add	a5,a5,376 # 2225c <__clzsi2+0xb8>
   130ec:	02f12c23          	sw	a5,56(sp)
   130f0:	00072d03          	lw	s10,0(a4)
   130f4:	000b0313          	mv	t1,s6
   130f8:	00000c93          	li	s9,0
   130fc:	002a6613          	or	a2,s4,2
   13100:	00200793          	li	a5,2
   13104:	07800e13          	li	t3,120
   13108:	e01ff06f          	j	12f08 <_vfprintf_r+0xa40>
   1310c:	020a7793          	and	a5,s4,32
   13110:	180784e3          	beqz	a5,13a98 <_vfprintf_r+0x15d0>
   13114:	01412783          	lw	a5,20(sp)
   13118:	00c12683          	lw	a3,12(sp)
   1311c:	0007a783          	lw	a5,0(a5)
   13120:	41f6d713          	sra	a4,a3,0x1f
   13124:	00d7a023          	sw	a3,0(a5)
   13128:	00e7a223          	sw	a4,4(a5)
   1312c:	01412783          	lw	a5,20(sp)
   13130:	00090c13          	mv	s8,s2
   13134:	00478793          	add	a5,a5,4
   13138:	00f12a23          	sw	a5,20(sp)
   1313c:	cccff06f          	j	12608 <_vfprintf_r+0x140>
   13140:	06500713          	li	a4,101
   13144:	b3c754e3          	bge	a4,t3,12c6c <_vfprintf_r+0x7a4>
   13148:	02812683          	lw	a3,40(sp)
   1314c:	02c12703          	lw	a4,44(sp)
   13150:	00000613          	li	a2,0
   13154:	00068513          	mv	a0,a3
   13158:	00070593          	mv	a1,a4
   1315c:	00000693          	li	a3,0
   13160:	05d12223          	sw	t4,68(sp)
   13164:	60c0d0ef          	jal	20770 <__eqdf2>
   13168:	04412e83          	lw	t4,68(sp)
   1316c:	4e051463          	bnez	a0,13654 <_vfprintf_r+0x118c>
   13170:	0a412783          	lw	a5,164(sp)
   13174:	0000f717          	auipc	a4,0xf
   13178:	11870713          	add	a4,a4,280 # 2228c <__clzsi2+0xe8>
   1317c:	00e42023          	sw	a4,0(s0)
   13180:	00148493          	add	s1,s1,1
   13184:	00100713          	li	a4,1
   13188:	00178793          	add	a5,a5,1
   1318c:	00e42223          	sw	a4,4(s0)
   13190:	0a912423          	sw	s1,168(sp)
   13194:	0af12223          	sw	a5,164(sp)
   13198:	00700713          	li	a4,7
   1319c:	00840413          	add	s0,s0,8
   131a0:	62f746e3          	blt	a4,a5,13fcc <_vfprintf_r+0x1b04>
   131a4:	07c12783          	lw	a5,124(sp)
   131a8:	01812703          	lw	a4,24(sp)
   131ac:	78e7de63          	bge	a5,a4,13948 <_vfprintf_r+0x1480>
   131b0:	03412783          	lw	a5,52(sp)
   131b4:	03012703          	lw	a4,48(sp)
   131b8:	00840413          	add	s0,s0,8
   131bc:	fef42c23          	sw	a5,-8(s0)
   131c0:	0a412783          	lw	a5,164(sp)
   131c4:	00e484b3          	add	s1,s1,a4
   131c8:	fee42e23          	sw	a4,-4(s0)
   131cc:	00178793          	add	a5,a5,1
   131d0:	0a912423          	sw	s1,168(sp)
   131d4:	0af12223          	sw	a5,164(sp)
   131d8:	00700713          	li	a4,7
   131dc:	1cf746e3          	blt	a4,a5,13ba8 <_vfprintf_r+0x16e0>
   131e0:	01812783          	lw	a5,24(sp)
   131e4:	fff78d13          	add	s10,a5,-1
   131e8:	dfa05263          	blez	s10,127cc <_vfprintf_r+0x304>
   131ec:	01000713          	li	a4,16
   131f0:	0a412783          	lw	a5,164(sp)
   131f4:	0000f297          	auipc	t0,0xf
   131f8:	53828293          	add	t0,t0,1336 # 2272c <zeroes.0>
   131fc:	77a752e3          	bge	a4,s10,14160 <_vfprintf_r+0x1c98>
   13200:	00048713          	mv	a4,s1
   13204:	01000c13          	li	s8,16
   13208:	00700b13          	li	s6,7
   1320c:	000e8493          	mv	s1,t4
   13210:	00028a13          	mv	s4,t0
   13214:	00c0006f          	j	13220 <_vfprintf_r+0xd58>
   13218:	ff0d0d13          	add	s10,s10,-16
   1321c:	73ac5ce3          	bge	s8,s10,14154 <_vfprintf_r+0x1c8c>
   13220:	01070713          	add	a4,a4,16
   13224:	00178793          	add	a5,a5,1
   13228:	01442023          	sw	s4,0(s0)
   1322c:	01842223          	sw	s8,4(s0)
   13230:	0ae12423          	sw	a4,168(sp)
   13234:	0af12223          	sw	a5,164(sp)
   13238:	00840413          	add	s0,s0,8
   1323c:	fcfb5ee3          	bge	s6,a5,13218 <_vfprintf_r+0xd50>
   13240:	00812583          	lw	a1,8(sp)
   13244:	0a010613          	add	a2,sp,160
   13248:	00098513          	mv	a0,s3
   1324c:	148020ef          	jal	15394 <__sprint_r>
   13250:	f4051263          	bnez	a0,12994 <_vfprintf_r+0x4cc>
   13254:	0a812703          	lw	a4,168(sp)
   13258:	0a412783          	lw	a5,164(sp)
   1325c:	0ac10413          	add	s0,sp,172
   13260:	fb9ff06f          	j	13218 <_vfprintf_r+0xd50>
   13264:	000e8613          	mv	a2,t4
   13268:	00100713          	li	a4,1
   1326c:	dee788e3          	beq	a5,a4,1305c <_vfprintf_r+0xb94>
   13270:	00200713          	li	a4,2
   13274:	06e78c63          	beq	a5,a4,132ec <_vfprintf_r+0xe24>
   13278:	15010c13          	add	s8,sp,336
   1327c:	01dc9793          	sll	a5,s9,0x1d
   13280:	007d7713          	and	a4,s10,7
   13284:	003d5d13          	srl	s10,s10,0x3
   13288:	03070713          	add	a4,a4,48
   1328c:	01a7ed33          	or	s10,a5,s10
   13290:	003cdc93          	srl	s9,s9,0x3
   13294:	feec0fa3          	sb	a4,-1(s8)
   13298:	019d67b3          	or	a5,s10,s9
   1329c:	000c0593          	mv	a1,s8
   132a0:	fffc0c13          	add	s8,s8,-1
   132a4:	fc079ce3          	bnez	a5,1327c <_vfprintf_r+0xdb4>
   132a8:	00167693          	and	a3,a2,1
   132ac:	06068a63          	beqz	a3,13320 <_vfprintf_r+0xe58>
   132b0:	03000693          	li	a3,48
   132b4:	06d70663          	beq	a4,a3,13320 <_vfprintf_r+0xe58>
   132b8:	ffe58593          	add	a1,a1,-2 # 1ffe <exit-0xe096>
   132bc:	15010793          	add	a5,sp,336
   132c0:	fedc0fa3          	sb	a3,-1(s8)
   132c4:	40b78d33          	sub	s10,a5,a1
   132c8:	00060e93          	mv	t4,a2
   132cc:	00058c13          	mv	s8,a1
   132d0:	c65ff06f          	j	12f34 <_vfprintf_r+0xa6c>
   132d4:	00100713          	li	a4,1
   132d8:	00e79463          	bne	a5,a4,132e0 <_vfprintf_r+0xe18>
   132dc:	2b10106f          	j	14d8c <_vfprintf_r+0x28c4>
   132e0:	00200713          	li	a4,2
   132e4:	000e8613          	mv	a2,t4
   132e8:	f8e798e3          	bne	a5,a4,13278 <_vfprintf_r+0xdb0>
   132ec:	03812683          	lw	a3,56(sp)
   132f0:	15010c13          	add	s8,sp,336
   132f4:	00fd7793          	and	a5,s10,15
   132f8:	00f687b3          	add	a5,a3,a5
   132fc:	0007c703          	lbu	a4,0(a5)
   13300:	004d5d13          	srl	s10,s10,0x4
   13304:	01cc9793          	sll	a5,s9,0x1c
   13308:	01a7ed33          	or	s10,a5,s10
   1330c:	004cdc93          	srl	s9,s9,0x4
   13310:	feec0fa3          	sb	a4,-1(s8)
   13314:	019d67b3          	or	a5,s10,s9
   13318:	fffc0c13          	add	s8,s8,-1
   1331c:	fc079ce3          	bnez	a5,132f4 <_vfprintf_r+0xe2c>
   13320:	15010793          	add	a5,sp,336
   13324:	41878d33          	sub	s10,a5,s8
   13328:	00060e93          	mv	t4,a2
   1332c:	c09ff06f          	j	12f34 <_vfprintf_r+0xa6c>
   13330:	419b8b33          	sub	s6,s7,s9
   13334:	c7605063          	blez	s6,12794 <_vfprintf_r+0x2cc>
   13338:	01000593          	li	a1,16
   1333c:	0a412603          	lw	a2,164(sp)
   13340:	0000f297          	auipc	t0,0xf
   13344:	3ec28293          	add	t0,t0,1004 # 2272c <zeroes.0>
   13348:	0b65d463          	bge	a1,s6,133f0 <_vfprintf_r+0xf28>
   1334c:	00040793          	mv	a5,s0
   13350:	00048713          	mv	a4,s1
   13354:	000b0413          	mv	s0,s6
   13358:	01000893          	li	a7,16
   1335c:	000a0b13          	mv	s6,s4
   13360:	00700f93          	li	t6,7
   13364:	05d12223          	sw	t4,68(sp)
   13368:	05c12823          	sw	t3,80(sp)
   1336c:	00030a13          	mv	s4,t1
   13370:	00028493          	mv	s1,t0
   13374:	00c0006f          	j	13380 <_vfprintf_r+0xeb8>
   13378:	ff040413          	add	s0,s0,-16
   1337c:	0488da63          	bge	a7,s0,133d0 <_vfprintf_r+0xf08>
   13380:	01070713          	add	a4,a4,16
   13384:	00160613          	add	a2,a2,1
   13388:	0097a023          	sw	s1,0(a5)
   1338c:	0117a223          	sw	a7,4(a5)
   13390:	0ae12423          	sw	a4,168(sp)
   13394:	0ac12223          	sw	a2,164(sp)
   13398:	00878793          	add	a5,a5,8
   1339c:	fccfdee3          	bge	t6,a2,13378 <_vfprintf_r+0xeb0>
   133a0:	00812583          	lw	a1,8(sp)
   133a4:	0a010613          	add	a2,sp,160
   133a8:	00098513          	mv	a0,s3
   133ac:	7e9010ef          	jal	15394 <__sprint_r>
   133b0:	de051263          	bnez	a0,12994 <_vfprintf_r+0x4cc>
   133b4:	01000893          	li	a7,16
   133b8:	ff040413          	add	s0,s0,-16
   133bc:	0a812703          	lw	a4,168(sp)
   133c0:	0a412603          	lw	a2,164(sp)
   133c4:	0ac10793          	add	a5,sp,172
   133c8:	00700f93          	li	t6,7
   133cc:	fa88cae3          	blt	a7,s0,13380 <_vfprintf_r+0xeb8>
   133d0:	04412e83          	lw	t4,68(sp)
   133d4:	05012e03          	lw	t3,80(sp)
   133d8:	000a0313          	mv	t1,s4
   133dc:	00048293          	mv	t0,s1
   133e0:	000b0a13          	mv	s4,s6
   133e4:	00070493          	mv	s1,a4
   133e8:	00040b13          	mv	s6,s0
   133ec:	00078413          	mv	s0,a5
   133f0:	016484b3          	add	s1,s1,s6
   133f4:	00160613          	add	a2,a2,1
   133f8:	00542023          	sw	t0,0(s0)
   133fc:	01642223          	sw	s6,4(s0)
   13400:	0a912423          	sw	s1,168(sp)
   13404:	0ac12223          	sw	a2,164(sp)
   13408:	00700713          	li	a4,7
   1340c:	00840413          	add	s0,s0,8
   13410:	b8c75263          	bge	a4,a2,12794 <_vfprintf_r+0x2cc>
   13414:	00812583          	lw	a1,8(sp)
   13418:	0a010613          	add	a2,sp,160
   1341c:	00098513          	mv	a0,s3
   13420:	04612a23          	sw	t1,84(sp)
   13424:	05c12823          	sw	t3,80(sp)
   13428:	05d12223          	sw	t4,68(sp)
   1342c:	769010ef          	jal	15394 <__sprint_r>
   13430:	d6051263          	bnez	a0,12994 <_vfprintf_r+0x4cc>
   13434:	0a812483          	lw	s1,168(sp)
   13438:	05412303          	lw	t1,84(sp)
   1343c:	05012e03          	lw	t3,80(sp)
   13440:	04412e83          	lw	t4,68(sp)
   13444:	0ac10413          	add	s0,sp,172
   13448:	b4cff06f          	j	12794 <_vfprintf_r+0x2cc>
   1344c:	01000713          	li	a4,16
   13450:	0a412603          	lw	a2,164(sp)
   13454:	0000f297          	auipc	t0,0xf
   13458:	2d828293          	add	t0,t0,728 # 2272c <zeroes.0>
   1345c:	0b675063          	bge	a4,s6,134fc <_vfprintf_r+0x1034>
   13460:	00040793          	mv	a5,s0
   13464:	00048693          	mv	a3,s1
   13468:	000b0413          	mv	s0,s6
   1346c:	01000713          	li	a4,16
   13470:	00700893          	li	a7,7
   13474:	05d12223          	sw	t4,68(sp)
   13478:	000e0493          	mv	s1,t3
   1347c:	00028b13          	mv	s6,t0
   13480:	00c0006f          	j	1348c <_vfprintf_r+0xfc4>
   13484:	ff040413          	add	s0,s0,-16
   13488:	04875e63          	bge	a4,s0,134e4 <_vfprintf_r+0x101c>
   1348c:	01068693          	add	a3,a3,16
   13490:	00160613          	add	a2,a2,1
   13494:	0000f597          	auipc	a1,0xf
   13498:	29858593          	add	a1,a1,664 # 2272c <zeroes.0>
   1349c:	00b7a023          	sw	a1,0(a5)
   134a0:	00e7a223          	sw	a4,4(a5)
   134a4:	0ad12423          	sw	a3,168(sp)
   134a8:	0ac12223          	sw	a2,164(sp)
   134ac:	00878793          	add	a5,a5,8
   134b0:	fcc8dae3          	bge	a7,a2,13484 <_vfprintf_r+0xfbc>
   134b4:	00812583          	lw	a1,8(sp)
   134b8:	0a010613          	add	a2,sp,160
   134bc:	00098513          	mv	a0,s3
   134c0:	6d5010ef          	jal	15394 <__sprint_r>
   134c4:	cc051863          	bnez	a0,12994 <_vfprintf_r+0x4cc>
   134c8:	01000713          	li	a4,16
   134cc:	ff040413          	add	s0,s0,-16
   134d0:	0a812683          	lw	a3,168(sp)
   134d4:	0a412603          	lw	a2,164(sp)
   134d8:	0ac10793          	add	a5,sp,172
   134dc:	00700893          	li	a7,7
   134e0:	fa8746e3          	blt	a4,s0,1348c <_vfprintf_r+0xfc4>
   134e4:	04412e83          	lw	t4,68(sp)
   134e8:	00048e13          	mv	t3,s1
   134ec:	000b0293          	mv	t0,s6
   134f0:	00068493          	mv	s1,a3
   134f4:	00040b13          	mv	s6,s0
   134f8:	00078413          	mv	s0,a5
   134fc:	016484b3          	add	s1,s1,s6
   13500:	00160613          	add	a2,a2,1
   13504:	00542023          	sw	t0,0(s0)
   13508:	01642223          	sw	s6,4(s0)
   1350c:	0a912423          	sw	s1,168(sp)
   13510:	0ac12223          	sw	a2,164(sp)
   13514:	00700713          	li	a4,7
   13518:	00840413          	add	s0,s0,8
   1351c:	a8c75063          	bge	a4,a2,1279c <_vfprintf_r+0x2d4>
   13520:	00812583          	lw	a1,8(sp)
   13524:	0a010613          	add	a2,sp,160
   13528:	00098513          	mv	a0,s3
   1352c:	05c12823          	sw	t3,80(sp)
   13530:	05d12223          	sw	t4,68(sp)
   13534:	661010ef          	jal	15394 <__sprint_r>
   13538:	c4051e63          	bnez	a0,12994 <_vfprintf_r+0x4cc>
   1353c:	0a812483          	lw	s1,168(sp)
   13540:	05012e03          	lw	t3,80(sp)
   13544:	04412e83          	lw	t4,68(sp)
   13548:	0ac10413          	add	s0,sp,172
   1354c:	a50ff06f          	j	1279c <_vfprintf_r+0x2d4>
   13550:	00812583          	lw	a1,8(sp)
   13554:	0a010613          	add	a2,sp,160
   13558:	00098513          	mv	a0,s3
   1355c:	04612c23          	sw	t1,88(sp)
   13560:	05c12a23          	sw	t3,84(sp)
   13564:	05d12823          	sw	t4,80(sp)
   13568:	05f12223          	sw	t6,68(sp)
   1356c:	629010ef          	jal	15394 <__sprint_r>
   13570:	c2051263          	bnez	a0,12994 <_vfprintf_r+0x4cc>
   13574:	0a812483          	lw	s1,168(sp)
   13578:	05812303          	lw	t1,88(sp)
   1357c:	05412e03          	lw	t3,84(sp)
   13580:	05012e83          	lw	t4,80(sp)
   13584:	04412f83          	lw	t6,68(sp)
   13588:	0ac10413          	add	s0,sp,172
   1358c:	a00ff06f          	j	1278c <_vfprintf_r+0x2c4>
   13590:	01000713          	li	a4,16
   13594:	0a412783          	lw	a5,164(sp)
   13598:	0000fb17          	auipc	s6,0xf
   1359c:	1a4b0b13          	add	s6,s6,420 # 2273c <blanks.1>
   135a0:	07a75c63          	bge	a4,s10,13618 <_vfprintf_r+0x1150>
   135a4:	000b0713          	mv	a4,s6
   135a8:	01000c13          	li	s8,16
   135ac:	00090b13          	mv	s6,s2
   135b0:	00700a13          	li	s4,7
   135b4:	00070913          	mv	s2,a4
   135b8:	00c0006f          	j	135c4 <_vfprintf_r+0x10fc>
   135bc:	ff0d0d13          	add	s10,s10,-16
   135c0:	05ac5663          	bge	s8,s10,1360c <_vfprintf_r+0x1144>
   135c4:	01048493          	add	s1,s1,16
   135c8:	00178793          	add	a5,a5,1
   135cc:	01242023          	sw	s2,0(s0)
   135d0:	01842223          	sw	s8,4(s0)
   135d4:	0a912423          	sw	s1,168(sp)
   135d8:	0af12223          	sw	a5,164(sp)
   135dc:	00840413          	add	s0,s0,8
   135e0:	fcfa5ee3          	bge	s4,a5,135bc <_vfprintf_r+0x10f4>
   135e4:	00812583          	lw	a1,8(sp)
   135e8:	0a010613          	add	a2,sp,160
   135ec:	00098513          	mv	a0,s3
   135f0:	5a5010ef          	jal	15394 <__sprint_r>
   135f4:	ba051063          	bnez	a0,12994 <_vfprintf_r+0x4cc>
   135f8:	ff0d0d13          	add	s10,s10,-16
   135fc:	0a812483          	lw	s1,168(sp)
   13600:	0a412783          	lw	a5,164(sp)
   13604:	0ac10413          	add	s0,sp,172
   13608:	fbac4ee3          	blt	s8,s10,135c4 <_vfprintf_r+0x10fc>
   1360c:	00090713          	mv	a4,s2
   13610:	000b0913          	mv	s2,s6
   13614:	00070b13          	mv	s6,a4
   13618:	01a484b3          	add	s1,s1,s10
   1361c:	00178793          	add	a5,a5,1
   13620:	01642023          	sw	s6,0(s0)
   13624:	01a42223          	sw	s10,4(s0)
   13628:	0a912423          	sw	s1,168(sp)
   1362c:	0af12223          	sw	a5,164(sp)
   13630:	00700713          	li	a4,7
   13634:	9af75463          	bge	a4,a5,127dc <_vfprintf_r+0x314>
   13638:	00812583          	lw	a1,8(sp)
   1363c:	0a010613          	add	a2,sp,160
   13640:	00098513          	mv	a0,s3
   13644:	551010ef          	jal	15394 <__sprint_r>
   13648:	b4051663          	bnez	a0,12994 <_vfprintf_r+0x4cc>
   1364c:	0a812483          	lw	s1,168(sp)
   13650:	98cff06f          	j	127dc <_vfprintf_r+0x314>
   13654:	07c12683          	lw	a3,124(sp)
   13658:	30d05c63          	blez	a3,13970 <_vfprintf_r+0x14a8>
   1365c:	01812783          	lw	a5,24(sp)
   13660:	000a0b13          	mv	s6,s4
   13664:	0147d463          	bge	a5,s4,1366c <_vfprintf_r+0x11a4>
   13668:	00078b13          	mv	s6,a5
   1366c:	03605863          	blez	s6,1369c <_vfprintf_r+0x11d4>
   13670:	0a412683          	lw	a3,164(sp)
   13674:	016484b3          	add	s1,s1,s6
   13678:	01842023          	sw	s8,0(s0)
   1367c:	00168693          	add	a3,a3,1
   13680:	01642223          	sw	s6,4(s0)
   13684:	0a912423          	sw	s1,168(sp)
   13688:	0ad12223          	sw	a3,164(sp)
   1368c:	00700613          	li	a2,7
   13690:	00840413          	add	s0,s0,8
   13694:	00d65463          	bge	a2,a3,1369c <_vfprintf_r+0x11d4>
   13698:	5c40106f          	j	14c5c <_vfprintf_r+0x2794>
   1369c:	fffb4693          	not	a3,s6
   136a0:	41f6d693          	sra	a3,a3,0x1f
   136a4:	00db7733          	and	a4,s6,a3
   136a8:	40ea0b33          	sub	s6,s4,a4
   136ac:	35604ae3          	bgtz	s6,14200 <_vfprintf_r+0x1d38>
   136b0:	400ef713          	and	a4,t4,1024
   136b4:	014c0333          	add	t1,s8,s4
   136b8:	00070463          	beqz	a4,136c0 <_vfprintf_r+0x11f8>
   136bc:	2980106f          	j	14954 <_vfprintf_r+0x248c>
   136c0:	07c12d03          	lw	s10,124(sp)
   136c4:	01812783          	lw	a5,24(sp)
   136c8:	5afd4063          	blt	s10,a5,13c68 <_vfprintf_r+0x17a0>
   136cc:	001ef713          	and	a4,t4,1
   136d0:	58071c63          	bnez	a4,13c68 <_vfprintf_r+0x17a0>
   136d4:	01812703          	lw	a4,24(sp)
   136d8:	00ec07b3          	add	a5,s8,a4
   136dc:	41a70d33          	sub	s10,a4,s10
   136e0:	40678b33          	sub	s6,a5,t1
   136e4:	016d5463          	bge	s10,s6,136ec <_vfprintf_r+0x1224>
   136e8:	000d0b13          	mv	s6,s10
   136ec:	03605863          	blez	s6,1371c <_vfprintf_r+0x1254>
   136f0:	0a412703          	lw	a4,164(sp)
   136f4:	016484b3          	add	s1,s1,s6
   136f8:	00642023          	sw	t1,0(s0)
   136fc:	00170713          	add	a4,a4,1
   13700:	01642223          	sw	s6,4(s0)
   13704:	0a912423          	sw	s1,168(sp)
   13708:	0ae12223          	sw	a4,164(sp)
   1370c:	00700693          	li	a3,7
   13710:	00840413          	add	s0,s0,8
   13714:	00e6d463          	bge	a3,a4,1371c <_vfprintf_r+0x1254>
   13718:	5880106f          	j	14ca0 <_vfprintf_r+0x27d8>
   1371c:	fffb4713          	not	a4,s6
   13720:	41f75713          	sra	a4,a4,0x1f
   13724:	00eb77b3          	and	a5,s6,a4
   13728:	40fd0d33          	sub	s10,s10,a5
   1372c:	8ba05063          	blez	s10,127cc <_vfprintf_r+0x304>
   13730:	01000713          	li	a4,16
   13734:	0a412783          	lw	a5,164(sp)
   13738:	0000f297          	auipc	t0,0xf
   1373c:	ff428293          	add	t0,t0,-12 # 2272c <zeroes.0>
   13740:	23a750e3          	bge	a4,s10,14160 <_vfprintf_r+0x1c98>
   13744:	00048713          	mv	a4,s1
   13748:	01000c13          	li	s8,16
   1374c:	00700b13          	li	s6,7
   13750:	000e8493          	mv	s1,t4
   13754:	00028a13          	mv	s4,t0
   13758:	00c0006f          	j	13764 <_vfprintf_r+0x129c>
   1375c:	ff0d0d13          	add	s10,s10,-16
   13760:	1fac5ae3          	bge	s8,s10,14154 <_vfprintf_r+0x1c8c>
   13764:	01070713          	add	a4,a4,16
   13768:	00178793          	add	a5,a5,1
   1376c:	01442023          	sw	s4,0(s0)
   13770:	01842223          	sw	s8,4(s0)
   13774:	0ae12423          	sw	a4,168(sp)
   13778:	0af12223          	sw	a5,164(sp)
   1377c:	00840413          	add	s0,s0,8
   13780:	fcfb5ee3          	bge	s6,a5,1375c <_vfprintf_r+0x1294>
   13784:	00812583          	lw	a1,8(sp)
   13788:	0a010613          	add	a2,sp,160
   1378c:	00098513          	mv	a0,s3
   13790:	405010ef          	jal	15394 <__sprint_r>
   13794:	a0051063          	bnez	a0,12994 <_vfprintf_r+0x4cc>
   13798:	0a812703          	lw	a4,168(sp)
   1379c:	0a412783          	lw	a5,164(sp)
   137a0:	0ac10413          	add	s0,sp,172
   137a4:	fb9ff06f          	j	1375c <_vfprintf_r+0x1294>
   137a8:	001ef613          	and	a2,t4,1
   137ac:	ce061063          	bnez	a2,12c8c <_vfprintf_r+0x7c4>
   137b0:	00d42223          	sw	a3,4(s0)
   137b4:	0a912423          	sw	s1,168(sp)
   137b8:	0ba12223          	sw	s10,164(sp)
   137bc:	00700793          	li	a5,7
   137c0:	d7a7d863          	bge	a5,s10,12d30 <_vfprintf_r+0x868>
   137c4:	00812583          	lw	a1,8(sp)
   137c8:	0a010613          	add	a2,sp,160
   137cc:	00098513          	mv	a0,s3
   137d0:	03d12023          	sw	t4,32(sp)
   137d4:	3c1010ef          	jal	15394 <__sprint_r>
   137d8:	9a051e63          	bnez	a0,12994 <_vfprintf_r+0x4cc>
   137dc:	0a812483          	lw	s1,168(sp)
   137e0:	0a412d03          	lw	s10,164(sp)
   137e4:	02012e83          	lw	t4,32(sp)
   137e8:	0ac10b13          	add	s6,sp,172
   137ec:	d44ff06f          	j	12d30 <_vfprintf_r+0x868>
   137f0:	01812703          	lw	a4,24(sp)
   137f4:	00100793          	li	a5,1
   137f8:	d2e7dc63          	bge	a5,a4,12d30 <_vfprintf_r+0x868>
   137fc:	01100793          	li	a5,17
   13800:	0000f297          	auipc	t0,0xf
   13804:	f2c28293          	add	t0,t0,-212 # 2272c <zeroes.0>
   13808:	18e7d4e3          	bge	a5,a4,14190 <_vfprintf_r+0x1cc8>
   1380c:	00040a13          	mv	s4,s0
   13810:	01000793          	li	a5,16
   13814:	00700c13          	li	s8,7
   13818:	03d12023          	sw	t4,32(sp)
   1381c:	00028413          	mv	s0,t0
   13820:	00c0006f          	j	1382c <_vfprintf_r+0x1364>
   13824:	ff0a0a13          	add	s4,s4,-16
   13828:	1547dee3          	bge	a5,s4,14184 <_vfprintf_r+0x1cbc>
   1382c:	01048493          	add	s1,s1,16
   13830:	001d0d13          	add	s10,s10,1
   13834:	008b2023          	sw	s0,0(s6)
   13838:	00fb2223          	sw	a5,4(s6)
   1383c:	0a912423          	sw	s1,168(sp)
   13840:	0ba12223          	sw	s10,164(sp)
   13844:	008b0b13          	add	s6,s6,8
   13848:	fdac5ee3          	bge	s8,s10,13824 <_vfprintf_r+0x135c>
   1384c:	00812583          	lw	a1,8(sp)
   13850:	0a010613          	add	a2,sp,160
   13854:	00098513          	mv	a0,s3
   13858:	33d010ef          	jal	15394 <__sprint_r>
   1385c:	92051c63          	bnez	a0,12994 <_vfprintf_r+0x4cc>
   13860:	0a812483          	lw	s1,168(sp)
   13864:	0a412d03          	lw	s10,164(sp)
   13868:	0ac10b13          	add	s6,sp,172
   1386c:	01000793          	li	a5,16
   13870:	fb5ff06f          	j	13824 <_vfprintf_r+0x135c>
   13874:	01412703          	lw	a4,20(sp)
   13878:	010ef793          	and	a5,t4,16
   1387c:	00072d03          	lw	s10,0(a4)
   13880:	00470713          	add	a4,a4,4
   13884:	00e12a23          	sw	a4,20(sp)
   13888:	1a079663          	bnez	a5,13a34 <_vfprintf_r+0x156c>
   1388c:	040ef793          	and	a5,t4,64
   13890:	18078e63          	beqz	a5,13a2c <_vfprintf_r+0x1564>
   13894:	010d1d13          	sll	s10,s10,0x10
   13898:	010d5d13          	srl	s10,s10,0x10
   1389c:	00000c93          	li	s9,0
   138a0:	80dff06f          	j	130ac <_vfprintf_r+0xbe4>
   138a4:	01412703          	lw	a4,20(sp)
   138a8:	01067793          	and	a5,a2,16
   138ac:	00072d03          	lw	s10,0(a4)
   138b0:	00470713          	add	a4,a4,4
   138b4:	00e12a23          	sw	a4,20(sp)
   138b8:	14079a63          	bnez	a5,13a0c <_vfprintf_r+0x1544>
   138bc:	04067793          	and	a5,a2,64
   138c0:	14078063          	beqz	a5,13a00 <_vfprintf_r+0x1538>
   138c4:	010d1d13          	sll	s10,s10,0x10
   138c8:	010d5d13          	srl	s10,s10,0x10
   138cc:	00000c93          	li	s9,0
   138d0:	00100793          	li	a5,1
   138d4:	e34ff06f          	j	12f08 <_vfprintf_r+0xa40>
   138d8:	01412703          	lw	a4,20(sp)
   138dc:	010ef793          	and	a5,t4,16
   138e0:	00072d03          	lw	s10,0(a4)
   138e4:	00470713          	add	a4,a4,4
   138e8:	00e12a23          	sw	a4,20(sp)
   138ec:	12079a63          	bnez	a5,13a20 <_vfprintf_r+0x1558>
   138f0:	040ef793          	and	a5,t4,64
   138f4:	12078263          	beqz	a5,13a18 <_vfprintf_r+0x1550>
   138f8:	010d1d13          	sll	s10,s10,0x10
   138fc:	410d5d13          	sra	s10,s10,0x10
   13900:	41fd5c93          	sra	s9,s10,0x1f
   13904:	000c8793          	mv	a5,s9
   13908:	f207d663          	bgez	a5,13034 <_vfprintf_r+0xb6c>
   1390c:	01a037b3          	snez	a5,s10
   13910:	419000b3          	neg	ra,s9
   13914:	40f08cb3          	sub	s9,ra,a5
   13918:	41a00d33          	neg	s10,s10
   1391c:	000e8613          	mv	a2,t4
   13920:	02d00713          	li	a4,45
   13924:	00100793          	li	a5,1
   13928:	de4ff06f          	j	12f0c <_vfprintf_r+0xa44>
   1392c:	00812403          	lw	s0,8(sp)
   13930:	00f12623          	sw	a5,12(sp)
   13934:	05842503          	lw	a0,88(s0)
   13938:	c51fd0ef          	jal	11588 <__retarget_lock_acquire_recursive>
   1393c:	00c41703          	lh	a4,12(s0)
   13940:	00c12783          	lw	a5,12(sp)
   13944:	c05fe06f          	j	12548 <_vfprintf_r+0x80>
   13948:	001ef793          	and	a5,t4,1
   1394c:	00079463          	bnez	a5,13954 <_vfprintf_r+0x148c>
   13950:	e7dfe06f          	j	127cc <_vfprintf_r+0x304>
   13954:	85dff06f          	j	131b0 <_vfprintf_r+0xce8>
   13958:	000a0e93          	mv	t4,s4
   1395c:	000b0313          	mv	t1,s6
   13960:	ea8ff06f          	j	13008 <_vfprintf_r+0xb40>
   13964:	00094e03          	lbu	t3,0(s2)
   13968:	00f12a23          	sw	a5,20(sp)
   1396c:	d09fe06f          	j	12674 <_vfprintf_r+0x1ac>
   13970:	0a412703          	lw	a4,164(sp)
   13974:	0000f617          	auipc	a2,0xf
   13978:	91860613          	add	a2,a2,-1768 # 2228c <__clzsi2+0xe8>
   1397c:	00c42023          	sw	a2,0(s0)
   13980:	00148493          	add	s1,s1,1
   13984:	00100613          	li	a2,1
   13988:	00170713          	add	a4,a4,1
   1398c:	00c42223          	sw	a2,4(s0)
   13990:	0a912423          	sw	s1,168(sp)
   13994:	0ae12223          	sw	a4,164(sp)
   13998:	00700613          	li	a2,7
   1399c:	00840413          	add	s0,s0,8
   139a0:	2ee64ce3          	blt	a2,a4,14498 <_vfprintf_r+0x1fd0>
   139a4:	7e069e63          	bnez	a3,141a0 <_vfprintf_r+0x1cd8>
   139a8:	01812783          	lw	a5,24(sp)
   139ac:	001ef713          	and	a4,t4,1
   139b0:	00f76733          	or	a4,a4,a5
   139b4:	00071463          	bnez	a4,139bc <_vfprintf_r+0x14f4>
   139b8:	e15fe06f          	j	127cc <_vfprintf_r+0x304>
   139bc:	03412703          	lw	a4,52(sp)
   139c0:	03012783          	lw	a5,48(sp)
   139c4:	00700693          	li	a3,7
   139c8:	00e42023          	sw	a4,0(s0)
   139cc:	0a412703          	lw	a4,164(sp)
   139d0:	009784b3          	add	s1,a5,s1
   139d4:	00f42223          	sw	a5,4(s0)
   139d8:	00170713          	add	a4,a4,1
   139dc:	0a912423          	sw	s1,168(sp)
   139e0:	0ae12223          	sw	a4,164(sp)
   139e4:	38e6c8e3          	blt	a3,a4,14574 <_vfprintf_r+0x20ac>
   139e8:	00840413          	add	s0,s0,8
   139ec:	7e80006f          	j	141d4 <_vfprintf_r+0x1d0c>
   139f0:	03000793          	li	a5,48
   139f4:	14f107a3          	sb	a5,335(sp)
   139f8:	14f10c13          	add	s8,sp,335
   139fc:	d38ff06f          	j	12f34 <_vfprintf_r+0xa6c>
   13a00:	20067793          	and	a5,a2,512
   13a04:	00078463          	beqz	a5,13a0c <_vfprintf_r+0x1544>
   13a08:	0ffd7d13          	zext.b	s10,s10
   13a0c:	00000c93          	li	s9,0
   13a10:	00100793          	li	a5,1
   13a14:	cf4ff06f          	j	12f08 <_vfprintf_r+0xa40>
   13a18:	200ef793          	and	a5,t4,512
   13a1c:	2c0796e3          	bnez	a5,144e8 <_vfprintf_r+0x2020>
   13a20:	41fd5c93          	sra	s9,s10,0x1f
   13a24:	000c8793          	mv	a5,s9
   13a28:	e08ff06f          	j	13030 <_vfprintf_r+0xb68>
   13a2c:	200ef793          	and	a5,t4,512
   13a30:	2a0790e3          	bnez	a5,144d0 <_vfprintf_r+0x2008>
   13a34:	00000c93          	li	s9,0
   13a38:	e74ff06f          	j	130ac <_vfprintf_r+0xbe4>
   13a3c:	01412783          	lw	a5,20(sp)
   13a40:	06010513          	add	a0,sp,96
   13a44:	03612223          	sw	s6,36(sp)
   13a48:	0007a703          	lw	a4,0(a5)
   13a4c:	03c12023          	sw	t3,32(sp)
   13a50:	00478b13          	add	s6,a5,4
   13a54:	00072683          	lw	a3,0(a4)
   13a58:	01412823          	sw	s4,16(sp)
   13a5c:	06d12023          	sw	a3,96(sp)
   13a60:	00472683          	lw	a3,4(a4)
   13a64:	06d12223          	sw	a3,100(sp)
   13a68:	00872683          	lw	a3,8(a4)
   13a6c:	06d12423          	sw	a3,104(sp)
   13a70:	00c72703          	lw	a4,12(a4)
   13a74:	06e12623          	sw	a4,108(sp)
   13a78:	2780e0ef          	jal	21cf0 <__trunctfdf2>
   13a7c:	02012e03          	lw	t3,32(sp)
   13a80:	02412303          	lw	t1,36(sp)
   13a84:	02a12423          	sw	a0,40(sp)
   13a88:	02b12623          	sw	a1,44(sp)
   13a8c:	01612a23          	sw	s6,20(sp)
   13a90:	000a0e93          	mv	t4,s4
   13a94:	fb1fe06f          	j	12a44 <_vfprintf_r+0x57c>
   13a98:	010a7793          	and	a5,s4,16
   13a9c:	6c079a63          	bnez	a5,14170 <_vfprintf_r+0x1ca8>
   13aa0:	040a7793          	and	a5,s4,64
   13aa4:	24079ce3          	bnez	a5,144fc <_vfprintf_r+0x2034>
   13aa8:	200a7f13          	and	t5,s4,512
   13aac:	6c0f0263          	beqz	t5,14170 <_vfprintf_r+0x1ca8>
   13ab0:	01412783          	lw	a5,20(sp)
   13ab4:	00c12703          	lw	a4,12(sp)
   13ab8:	0007a783          	lw	a5,0(a5)
   13abc:	00e78023          	sb	a4,0(a5)
   13ac0:	e6cff06f          	j	1312c <_vfprintf_r+0xc64>
   13ac4:	03c12783          	lw	a5,60(sp)
   13ac8:	00094e03          	lbu	t3,0(s2)
   13acc:	00079463          	bnez	a5,13ad4 <_vfprintf_r+0x160c>
   13ad0:	ba5fe06f          	j	12674 <_vfprintf_r+0x1ac>
   13ad4:	0007c783          	lbu	a5,0(a5)
   13ad8:	00079463          	bnez	a5,13ae0 <_vfprintf_r+0x1618>
   13adc:	b99fe06f          	j	12674 <_vfprintf_r+0x1ac>
   13ae0:	400a6a13          	or	s4,s4,1024
   13ae4:	b91fe06f          	j	12674 <_vfprintf_r+0x1ac>
   13ae8:	fff00b13          	li	s6,-1
   13aec:	00068913          	mv	s2,a3
   13af0:	b89fe06f          	j	12678 <_vfprintf_r+0x1b0>
   13af4:	0000e797          	auipc	a5,0xe
   13af8:	77c78793          	add	a5,a5,1916 # 22270 <__clzsi2+0xcc>
   13afc:	000a0e93          	mv	t4,s4
   13b00:	000b0313          	mv	t1,s6
   13b04:	02f12c23          	sw	a5,56(sp)
   13b08:	020ef793          	and	a5,t4,32
   13b0c:	1c078263          	beqz	a5,13cd0 <_vfprintf_r+0x1808>
   13b10:	01412783          	lw	a5,20(sp)
   13b14:	00778b13          	add	s6,a5,7
   13b18:	ff8b7b13          	and	s6,s6,-8
   13b1c:	000b2d03          	lw	s10,0(s6)
   13b20:	004b2c83          	lw	s9,4(s6)
   13b24:	008b0793          	add	a5,s6,8
   13b28:	00f12a23          	sw	a5,20(sp)
   13b2c:	001ef793          	and	a5,t4,1
   13b30:	00078e63          	beqz	a5,13b4c <_vfprintf_r+0x1684>
   13b34:	019d67b3          	or	a5,s10,s9
   13b38:	00078a63          	beqz	a5,13b4c <_vfprintf_r+0x1684>
   13b3c:	03000793          	li	a5,48
   13b40:	06f10c23          	sb	a5,120(sp)
   13b44:	07c10ca3          	sb	t3,121(sp)
   13b48:	002eee93          	or	t4,t4,2
   13b4c:	bffef613          	and	a2,t4,-1025
   13b50:	00200793          	li	a5,2
   13b54:	bb4ff06f          	j	12f08 <_vfprintf_r+0xa40>
   13b58:	000b0313          	mv	t1,s6
   13b5c:	000a0613          	mv	a2,s4
   13b60:	b80ff06f          	j	12ee0 <_vfprintf_r+0xa18>
   13b64:	000a0e93          	mv	t4,s4
   13b68:	000b0313          	mv	t1,s6
   13b6c:	d1cff06f          	j	13088 <_vfprintf_r+0xbc0>
   13b70:	0000e797          	auipc	a5,0xe
   13b74:	6ec78793          	add	a5,a5,1772 # 2225c <__clzsi2+0xb8>
   13b78:	000a0e93          	mv	t4,s4
   13b7c:	000b0313          	mv	t1,s6
   13b80:	02f12c23          	sw	a5,56(sp)
   13b84:	f85ff06f          	j	13b08 <_vfprintf_r+0x1640>
   13b88:	00194e03          	lbu	t3,1(s2)
   13b8c:	020a6a13          	or	s4,s4,32
   13b90:	00190913          	add	s2,s2,1
   13b94:	ae1fe06f          	j	12674 <_vfprintf_r+0x1ac>
   13b98:	00194e03          	lbu	t3,1(s2)
   13b9c:	200a6a13          	or	s4,s4,512
   13ba0:	00190913          	add	s2,s2,1
   13ba4:	ad1fe06f          	j	12674 <_vfprintf_r+0x1ac>
   13ba8:	00812583          	lw	a1,8(sp)
   13bac:	0a010613          	add	a2,sp,160
   13bb0:	00098513          	mv	a0,s3
   13bb4:	03d12023          	sw	t4,32(sp)
   13bb8:	7dc010ef          	jal	15394 <__sprint_r>
   13bbc:	00050463          	beqz	a0,13bc4 <_vfprintf_r+0x16fc>
   13bc0:	dd5fe06f          	j	12994 <_vfprintf_r+0x4cc>
   13bc4:	0a812483          	lw	s1,168(sp)
   13bc8:	02012e83          	lw	t4,32(sp)
   13bcc:	0ac10413          	add	s0,sp,172
   13bd0:	e10ff06f          	j	131e0 <_vfprintf_r+0xd18>
   13bd4:	00600793          	li	a5,6
   13bd8:	00030c93          	mv	s9,t1
   13bdc:	0e67e6e3          	bltu	a5,t1,144c8 <_vfprintf_r+0x2000>
   13be0:	01612a23          	sw	s6,20(sp)
   13be4:	00012823          	sw	zero,16(sp)
   13be8:	000c8d13          	mv	s10,s9
   13bec:	00000613          	li	a2,0
   13bf0:	00000313          	li	t1,0
   13bf4:	02012223          	sw	zero,36(sp)
   13bf8:	02012023          	sw	zero,32(sp)
   13bfc:	00000a13          	li	s4,0
   13c00:	0000ec17          	auipc	s8,0xe
   13c04:	684c0c13          	add	s8,s8,1668 # 22284 <__clzsi2+0xe0>
   13c08:	afdfe06f          	j	12704 <_vfprintf_r+0x23c>
   13c0c:	00800613          	li	a2,8
   13c10:	00000593          	li	a1,0
   13c14:	09810513          	add	a0,sp,152
   13c18:	03c12023          	sw	t3,32(sp)
   13c1c:	01d12823          	sw	t4,16(sp)
   13c20:	985fd0ef          	jal	115a4 <memset>
   13c24:	01412783          	lw	a5,20(sp)
   13c28:	0ec10c13          	add	s8,sp,236
   13c2c:	09810693          	add	a3,sp,152
   13c30:	0007a603          	lw	a2,0(a5)
   13c34:	000c0593          	mv	a1,s8
   13c38:	00098513          	mv	a0,s3
   13c3c:	55c090ef          	jal	1d198 <_wcrtomb_r>
   13c40:	fff00793          	li	a5,-1
   13c44:	01012e83          	lw	t4,16(sp)
   13c48:	02012e03          	lw	t3,32(sp)
   13c4c:	00050d13          	mv	s10,a0
   13c50:	00f51463          	bne	a0,a5,13c58 <_vfprintf_r+0x1790>
   13c54:	4980106f          	j	150ec <_vfprintf_r+0x2c24>
   13c58:	fff54813          	not	a6,a0
   13c5c:	41f85813          	sra	a6,a6,0x1f
   13c60:	01057cb3          	and	s9,a0,a6
   13c64:	97cff06f          	j	12de0 <_vfprintf_r+0x918>
   13c68:	03412703          	lw	a4,52(sp)
   13c6c:	03012783          	lw	a5,48(sp)
   13c70:	00700693          	li	a3,7
   13c74:	00e42023          	sw	a4,0(s0)
   13c78:	0a412703          	lw	a4,164(sp)
   13c7c:	00f484b3          	add	s1,s1,a5
   13c80:	00f42223          	sw	a5,4(s0)
   13c84:	00170713          	add	a4,a4,1
   13c88:	0a912423          	sw	s1,168(sp)
   13c8c:	0ae12223          	sw	a4,164(sp)
   13c90:	00840413          	add	s0,s0,8
   13c94:	a4e6d0e3          	bge	a3,a4,136d4 <_vfprintf_r+0x120c>
   13c98:	00812583          	lw	a1,8(sp)
   13c9c:	0a010613          	add	a2,sp,160
   13ca0:	00098513          	mv	a0,s3
   13ca4:	02612223          	sw	t1,36(sp)
   13ca8:	03d12023          	sw	t4,32(sp)
   13cac:	6e8010ef          	jal	15394 <__sprint_r>
   13cb0:	00050463          	beqz	a0,13cb8 <_vfprintf_r+0x17f0>
   13cb4:	ce1fe06f          	j	12994 <_vfprintf_r+0x4cc>
   13cb8:	07c12d03          	lw	s10,124(sp)
   13cbc:	0a812483          	lw	s1,168(sp)
   13cc0:	02412303          	lw	t1,36(sp)
   13cc4:	02012e83          	lw	t4,32(sp)
   13cc8:	0ac10413          	add	s0,sp,172
   13ccc:	a09ff06f          	j	136d4 <_vfprintf_r+0x120c>
   13cd0:	01412703          	lw	a4,20(sp)
   13cd4:	010ef793          	and	a5,t4,16
   13cd8:	00072d03          	lw	s10,0(a4)
   13cdc:	00470713          	add	a4,a4,4
   13ce0:	00e12a23          	sw	a4,20(sp)
   13ce4:	08079863          	bnez	a5,13d74 <_vfprintf_r+0x18ac>
   13ce8:	040ef793          	and	a5,t4,64
   13cec:	08078063          	beqz	a5,13d6c <_vfprintf_r+0x18a4>
   13cf0:	010d1d13          	sll	s10,s10,0x10
   13cf4:	010d5d13          	srl	s10,s10,0x10
   13cf8:	00000c93          	li	s9,0
   13cfc:	e31ff06f          	j	13b2c <_vfprintf_r+0x1664>
   13d00:	00000d13          	li	s10,0
   13d04:	15010c13          	add	s8,sp,336
   13d08:	a2cff06f          	j	12f34 <_vfprintf_r+0xa6c>
   13d0c:	00812583          	lw	a1,8(sp)
   13d10:	0a010613          	add	a2,sp,160
   13d14:	00098513          	mv	a0,s3
   13d18:	03d12023          	sw	t4,32(sp)
   13d1c:	678010ef          	jal	15394 <__sprint_r>
   13d20:	00050463          	beqz	a0,13d28 <_vfprintf_r+0x1860>
   13d24:	c71fe06f          	j	12994 <_vfprintf_r+0x4cc>
   13d28:	0a812483          	lw	s1,168(sp)
   13d2c:	0a412d03          	lw	s10,164(sp)
   13d30:	02012e83          	lw	t4,32(sp)
   13d34:	0ac10b13          	add	s6,sp,172
   13d38:	f71fe06f          	j	12ca8 <_vfprintf_r+0x7e0>
   13d3c:	00812583          	lw	a1,8(sp)
   13d40:	0a010613          	add	a2,sp,160
   13d44:	00098513          	mv	a0,s3
   13d48:	03d12023          	sw	t4,32(sp)
   13d4c:	648010ef          	jal	15394 <__sprint_r>
   13d50:	00050463          	beqz	a0,13d58 <_vfprintf_r+0x1890>
   13d54:	c41fe06f          	j	12994 <_vfprintf_r+0x4cc>
   13d58:	0a812483          	lw	s1,168(sp)
   13d5c:	0a412d03          	lw	s10,164(sp)
   13d60:	02012e83          	lw	t4,32(sp)
   13d64:	0ac10b13          	add	s6,sp,172
   13d68:	f71fe06f          	j	12cd8 <_vfprintf_r+0x810>
   13d6c:	200ef793          	and	a5,t4,512
   13d70:	76079663          	bnez	a5,144dc <_vfprintf_r+0x2014>
   13d74:	00000c93          	li	s9,0
   13d78:	db5ff06f          	j	13b2c <_vfprintf_r+0x1664>
   13d7c:	00000793          	li	a5,0
   13d80:	15010b13          	add	s6,sp,336
   13d84:	01212823          	sw	s2,16(sp)
   13d88:	00078913          	mv	s2,a5
   13d8c:	00098793          	mv	a5,s3
   13d90:	04812823          	sw	s0,80(sp)
   13d94:	000b0993          	mv	s3,s6
   13d98:	03c12403          	lw	s0,60(sp)
   13d9c:	40067493          	and	s1,a2,1024
   13da0:	0ff00a13          	li	s4,255
   13da4:	03c12023          	sw	t3,32(sp)
   13da8:	02c12223          	sw	a2,36(sp)
   13dac:	04612223          	sw	t1,68(sp)
   13db0:	00078b13          	mv	s6,a5
   13db4:	0280006f          	j	13ddc <_vfprintf_r+0x1914>
   13db8:	00a00613          	li	a2,10
   13dbc:	00000693          	li	a3,0
   13dc0:	000d0513          	mv	a0,s10
   13dc4:	000c8593          	mv	a1,s9
   13dc8:	3310a0ef          	jal	1e8f8 <__udivdi3>
   13dcc:	6a0c8ee3          	beqz	s9,14c88 <_vfprintf_r+0x27c0>
   13dd0:	00050d13          	mv	s10,a0
   13dd4:	00058c93          	mv	s9,a1
   13dd8:	000c0993          	mv	s3,s8
   13ddc:	00a00613          	li	a2,10
   13de0:	00000693          	li	a3,0
   13de4:	000d0513          	mv	a0,s10
   13de8:	000c8593          	mv	a1,s9
   13dec:	1b80b0ef          	jal	1efa4 <__umoddi3>
   13df0:	03050513          	add	a0,a0,48
   13df4:	fea98fa3          	sb	a0,-1(s3)
   13df8:	fff98c13          	add	s8,s3,-1
   13dfc:	00190913          	add	s2,s2,1
   13e00:	fa048ce3          	beqz	s1,13db8 <_vfprintf_r+0x18f0>
   13e04:	00044783          	lbu	a5,0(s0)
   13e08:	faf918e3          	bne	s2,a5,13db8 <_vfprintf_r+0x18f0>
   13e0c:	fb4906e3          	beq	s2,s4,13db8 <_vfprintf_r+0x18f0>
   13e10:	560c9ae3          	bnez	s9,14b84 <_vfprintf_r+0x26bc>
   13e14:	00900793          	li	a5,9
   13e18:	57a7e6e3          	bltu	a5,s10,14b84 <_vfprintf_r+0x26bc>
   13e1c:	02412603          	lw	a2,36(sp)
   13e20:	15010793          	add	a5,sp,336
   13e24:	02812e23          	sw	s0,60(sp)
   13e28:	01212c23          	sw	s2,24(sp)
   13e2c:	02012e03          	lw	t3,32(sp)
   13e30:	01012903          	lw	s2,16(sp)
   13e34:	04412303          	lw	t1,68(sp)
   13e38:	05012403          	lw	s0,80(sp)
   13e3c:	000b0993          	mv	s3,s6
   13e40:	41878d33          	sub	s10,a5,s8
   13e44:	00060e93          	mv	t4,a2
   13e48:	8ecff06f          	j	12f34 <_vfprintf_r+0xa6c>
   13e4c:	00812583          	lw	a1,8(sp)
   13e50:	0a010613          	add	a2,sp,160
   13e54:	00098513          	mv	a0,s3
   13e58:	04612e23          	sw	t1,92(sp)
   13e5c:	05c12c23          	sw	t3,88(sp)
   13e60:	05d12a23          	sw	t4,84(sp)
   13e64:	05f12823          	sw	t6,80(sp)
   13e68:	04512223          	sw	t0,68(sp)
   13e6c:	528010ef          	jal	15394 <__sprint_r>
   13e70:	00050463          	beqz	a0,13e78 <_vfprintf_r+0x19b0>
   13e74:	b21fe06f          	j	12994 <_vfprintf_r+0x4cc>
   13e78:	07714603          	lbu	a2,119(sp)
   13e7c:	0a812483          	lw	s1,168(sp)
   13e80:	05c12303          	lw	t1,92(sp)
   13e84:	05812e03          	lw	t3,88(sp)
   13e88:	05412e83          	lw	t4,84(sp)
   13e8c:	05012f83          	lw	t6,80(sp)
   13e90:	04412283          	lw	t0,68(sp)
   13e94:	0ac10413          	add	s0,sp,172
   13e98:	88dfe06f          	j	12724 <_vfprintf_r+0x25c>
   13e9c:	02812883          	lw	a7,40(sp)
   13ea0:	02c12703          	lw	a4,44(sp)
   13ea4:	02612223          	sw	t1,36(sp)
   13ea8:	00088613          	mv	a2,a7
   13eac:	00088513          	mv	a0,a7
   13eb0:	00070693          	mv	a3,a4
   13eb4:	00070593          	mv	a1,a4
   13eb8:	03c12023          	sw	t3,32(sp)
   13ebc:	01d12823          	sw	t4,16(sp)
   13ec0:	3dd0d0ef          	jal	21a9c <__unorddf2>
   13ec4:	01012e83          	lw	t4,16(sp)
   13ec8:	02012e03          	lw	t3,32(sp)
   13ecc:	02412303          	lw	t1,36(sp)
   13ed0:	00050463          	beqz	a0,13ed8 <_vfprintf_r+0x1a10>
   13ed4:	0e00106f          	j	14fb4 <_vfprintf_r+0x2aec>
   13ed8:	06100713          	li	a4,97
   13edc:	08ee0263          	beq	t3,a4,13f60 <_vfprintf_r+0x1a98>
   13ee0:	04100713          	li	a4,65
   13ee4:	05800793          	li	a5,88
   13ee8:	06ee0e63          	beq	t3,a4,13f64 <_vfprintf_r+0x1a9c>
   13eec:	fff00713          	li	a4,-1
   13ef0:	00e31463          	bne	t1,a4,13ef8 <_vfprintf_r+0x1a30>
   13ef4:	01c0106f          	j	14f10 <_vfprintf_r+0x2a48>
   13ef8:	fdfe7713          	and	a4,t3,-33
   13efc:	04700693          	li	a3,71
   13f00:	00012823          	sw	zero,16(sp)
   13f04:	00d71663          	bne	a4,a3,13f10 <_vfprintf_r+0x1a48>
   13f08:	00031463          	bnez	t1,13f10 <_vfprintf_r+0x1a48>
   13f0c:	00100313          	li	t1,1
   13f10:	100ee793          	or	a5,t4,256
   13f14:	00078b13          	mv	s6,a5
   13f18:	02c12783          	lw	a5,44(sp)
   13f1c:	04012223          	sw	zero,68(sp)
   13f20:	00078493          	mv	s1,a5
   13f24:	0007da63          	bgez	a5,13f38 <_vfprintf_r+0x1a70>
   13f28:	800004b7          	lui	s1,0x80000
   13f2c:	00f4c4b3          	xor	s1,s1,a5
   13f30:	02d00793          	li	a5,45
   13f34:	04f12223          	sw	a5,68(sp)
   13f38:	fbfe0713          	add	a4,t3,-65
   13f3c:	02500693          	li	a3,37
   13f40:	3ae6e463          	bltu	a3,a4,142e8 <_vfprintf_r+0x1e20>
   13f44:	0000e697          	auipc	a3,0xe
   13f48:	75068693          	add	a3,a3,1872 # 22694 <__clzsi2+0x4f0>
   13f4c:	00271713          	sll	a4,a4,0x2
   13f50:	00d70733          	add	a4,a4,a3
   13f54:	00072703          	lw	a4,0(a4)
   13f58:	00d70733          	add	a4,a4,a3
   13f5c:	00070067          	jr	a4
   13f60:	07800793          	li	a5,120
   13f64:	03000713          	li	a4,48
   13f68:	06e10c23          	sb	a4,120(sp)
   13f6c:	06f10ca3          	sb	a5,121(sp)
   13f70:	06300713          	li	a4,99
   13f74:	00012823          	sw	zero,16(sp)
   13f78:	002eee93          	or	t4,t4,2
   13f7c:	0ec10c13          	add	s8,sp,236
   13f80:	f86758e3          	bge	a4,t1,13f10 <_vfprintf_r+0x1a48>
   13f84:	00130593          	add	a1,t1,1
   13f88:	00098513          	mv	a0,s3
   13f8c:	03c12023          	sw	t3,32(sp)
   13f90:	01d12c23          	sw	t4,24(sp)
   13f94:	00612823          	sw	t1,16(sp)
   13f98:	d59fd0ef          	jal	11cf0 <_malloc_r>
   13f9c:	01012303          	lw	t1,16(sp)
   13fa0:	01812e83          	lw	t4,24(sp)
   13fa4:	02012e03          	lw	t3,32(sp)
   13fa8:	00050c13          	mv	s8,a0
   13fac:	00051463          	bnez	a0,13fb4 <_vfprintf_r+0x1aec>
   13fb0:	13c0106f          	j	150ec <_vfprintf_r+0x2c24>
   13fb4:	00a12823          	sw	a0,16(sp)
   13fb8:	f59ff06f          	j	13f10 <_vfprintf_r+0x1a48>
   13fbc:	00098513          	mv	a0,s3
   13fc0:	f21fc0ef          	jal	10ee0 <__sinit>
   13fc4:	00c12783          	lw	a5,12(sp)
   13fc8:	d60fe06f          	j	12528 <_vfprintf_r+0x60>
   13fcc:	00812583          	lw	a1,8(sp)
   13fd0:	0a010613          	add	a2,sp,160
   13fd4:	00098513          	mv	a0,s3
   13fd8:	03d12023          	sw	t4,32(sp)
   13fdc:	3b8010ef          	jal	15394 <__sprint_r>
   13fe0:	00050463          	beqz	a0,13fe8 <_vfprintf_r+0x1b20>
   13fe4:	9b1fe06f          	j	12994 <_vfprintf_r+0x4cc>
   13fe8:	0a812483          	lw	s1,168(sp)
   13fec:	02012e83          	lw	t4,32(sp)
   13ff0:	0ac10413          	add	s0,sp,172
   13ff4:	9b0ff06f          	j	131a4 <_vfprintf_r+0xcdc>
   13ff8:	00800613          	li	a2,8
   13ffc:	00000593          	li	a1,0
   14000:	09810513          	add	a0,sp,152
   14004:	02612023          	sw	t1,32(sp)
   14008:	01c12a23          	sw	t3,20(sp)
   1400c:	01d12823          	sw	t4,16(sp)
   14010:	09812223          	sw	s8,132(sp)
   14014:	d90fd0ef          	jal	115a4 <memset>
   14018:	02012303          	lw	t1,32(sp)
   1401c:	01012e83          	lw	t4,16(sp)
   14020:	01412e03          	lw	t3,20(sp)
   14024:	3a0340e3          	bltz	t1,14bc4 <_vfprintf_r+0x26fc>
   14028:	00000d13          	li	s10,0
   1402c:	01212823          	sw	s2,16(sp)
   14030:	000c0c93          	mv	s9,s8
   14034:	fff00493          	li	s1,-1
   14038:	000b0c13          	mv	s8,s6
   1403c:	000e8a13          	mv	s4,t4
   14040:	00040b13          	mv	s6,s0
   14044:	000d0913          	mv	s2,s10
   14048:	00030413          	mv	s0,t1
   1404c:	0300006f          	j	1407c <_vfprintf_r+0x1bb4>
   14050:	09810693          	add	a3,sp,152
   14054:	0ec10593          	add	a1,sp,236
   14058:	00098513          	mv	a0,s3
   1405c:	13c090ef          	jal	1d198 <_wcrtomb_r>
   14060:	68950ae3          	beq	a0,s1,14ef4 <_vfprintf_r+0x2a2c>
   14064:	00a907b3          	add	a5,s2,a0
   14068:	02f44263          	blt	s0,a5,1408c <_vfprintf_r+0x1bc4>
   1406c:	004d0d13          	add	s10,s10,4
   14070:	00879463          	bne	a5,s0,14078 <_vfprintf_r+0x1bb0>
   14074:	7990006f          	j	1500c <_vfprintf_r+0x2b44>
   14078:	00078913          	mv	s2,a5
   1407c:	08412783          	lw	a5,132(sp)
   14080:	01a787b3          	add	a5,a5,s10
   14084:	0007a603          	lw	a2,0(a5)
   14088:	fc0614e3          	bnez	a2,14050 <_vfprintf_r+0x1b88>
   1408c:	00090d13          	mv	s10,s2
   14090:	01412e03          	lw	t3,20(sp)
   14094:	01012903          	lw	s2,16(sp)
   14098:	000b0413          	mv	s0,s6
   1409c:	000a0e93          	mv	t4,s4
   140a0:	000c0b13          	mv	s6,s8
   140a4:	000c8c13          	mv	s8,s9
   140a8:	340d0ce3          	beqz	s10,14c00 <_vfprintf_r+0x2738>
   140ac:	06300793          	li	a5,99
   140b0:	59a7dee3          	bge	a5,s10,14e4c <_vfprintf_r+0x2984>
   140b4:	001d0593          	add	a1,s10,1
   140b8:	00098513          	mv	a0,s3
   140bc:	01c12a23          	sw	t3,20(sp)
   140c0:	01d12823          	sw	t4,16(sp)
   140c4:	c2dfd0ef          	jal	11cf0 <_malloc_r>
   140c8:	01012e83          	lw	t4,16(sp)
   140cc:	01412e03          	lw	t3,20(sp)
   140d0:	00050c13          	mv	s8,a0
   140d4:	620500e3          	beqz	a0,14ef4 <_vfprintf_r+0x2a2c>
   140d8:	00a12823          	sw	a0,16(sp)
   140dc:	00800613          	li	a2,8
   140e0:	00000593          	li	a1,0
   140e4:	09810513          	add	a0,sp,152
   140e8:	03c12023          	sw	t3,32(sp)
   140ec:	01d12a23          	sw	t4,20(sp)
   140f0:	cb4fd0ef          	jal	115a4 <memset>
   140f4:	09810713          	add	a4,sp,152
   140f8:	000d0693          	mv	a3,s10
   140fc:	08410613          	add	a2,sp,132
   14100:	000c0593          	mv	a1,s8
   14104:	00098513          	mv	a0,s3
   14108:	1b4090ef          	jal	1d2bc <_wcsrtombs_r>
   1410c:	01412e83          	lw	t4,20(sp)
   14110:	02012e03          	lw	t3,32(sp)
   14114:	00ad0463          	beq	s10,a0,1411c <_vfprintf_r+0x1c54>
   14118:	0240106f          	j	1513c <_vfprintf_r+0x2c74>
   1411c:	01ac0733          	add	a4,s8,s10
   14120:	00070023          	sb	zero,0(a4)
   14124:	07714603          	lbu	a2,119(sp)
   14128:	fffd4813          	not	a6,s10
   1412c:	41f85813          	sra	a6,a6,0x1f
   14130:	01612a23          	sw	s6,20(sp)
   14134:	02012223          	sw	zero,36(sp)
   14138:	02012023          	sw	zero,32(sp)
   1413c:	010d7cb3          	and	s9,s10,a6
   14140:	00000313          	li	t1,0
   14144:	00000a13          	li	s4,0
   14148:	00061463          	bnez	a2,14150 <_vfprintf_r+0x1c88>
   1414c:	db8fe06f          	j	12704 <_vfprintf_r+0x23c>
   14150:	9d5fe06f          	j	12b24 <_vfprintf_r+0x65c>
   14154:	00048e93          	mv	t4,s1
   14158:	000a0293          	mv	t0,s4
   1415c:	00070493          	mv	s1,a4
   14160:	01a484b3          	add	s1,s1,s10
   14164:	00178793          	add	a5,a5,1
   14168:	00542023          	sw	t0,0(s0)
   1416c:	e48fe06f          	j	127b4 <_vfprintf_r+0x2ec>
   14170:	01412783          	lw	a5,20(sp)
   14174:	00c12703          	lw	a4,12(sp)
   14178:	0007a783          	lw	a5,0(a5)
   1417c:	00e7a023          	sw	a4,0(a5)
   14180:	fadfe06f          	j	1312c <_vfprintf_r+0xc64>
   14184:	02012e83          	lw	t4,32(sp)
   14188:	00040293          	mv	t0,s0
   1418c:	000a0413          	mv	s0,s4
   14190:	008484b3          	add	s1,s1,s0
   14194:	001d0d13          	add	s10,s10,1
   14198:	005b2023          	sw	t0,0(s6)
   1419c:	b7dfe06f          	j	12d18 <_vfprintf_r+0x850>
   141a0:	03412703          	lw	a4,52(sp)
   141a4:	03012783          	lw	a5,48(sp)
   141a8:	00700613          	li	a2,7
   141ac:	00e42023          	sw	a4,0(s0)
   141b0:	0a412703          	lw	a4,164(sp)
   141b4:	009784b3          	add	s1,a5,s1
   141b8:	00f42223          	sw	a5,4(s0)
   141bc:	00170713          	add	a4,a4,1
   141c0:	0a912423          	sw	s1,168(sp)
   141c4:	0ae12223          	sw	a4,164(sp)
   141c8:	00840413          	add	s0,s0,8
   141cc:	3ae64463          	blt	a2,a4,14574 <_vfprintf_r+0x20ac>
   141d0:	3e06cee3          	bltz	a3,14dcc <_vfprintf_r+0x2904>
   141d4:	01812783          	lw	a5,24(sp)
   141d8:	00170713          	add	a4,a4,1
   141dc:	01842023          	sw	s8,0(s0)
   141e0:	009784b3          	add	s1,a5,s1
   141e4:	00f42223          	sw	a5,4(s0)
   141e8:	0a912423          	sw	s1,168(sp)
   141ec:	0ae12223          	sw	a4,164(sp)
   141f0:	00700793          	li	a5,7
   141f4:	00e7c463          	blt	a5,a4,141fc <_vfprintf_r+0x1d34>
   141f8:	dd0fe06f          	j	127c8 <_vfprintf_r+0x300>
   141fc:	b61fe06f          	j	12d5c <_vfprintf_r+0x894>
   14200:	01000613          	li	a2,16
   14204:	0a412683          	lw	a3,164(sp)
   14208:	0000e297          	auipc	t0,0xe
   1420c:	52428293          	add	t0,t0,1316 # 2272c <zeroes.0>
   14210:	09665463          	bge	a2,s6,14298 <_vfprintf_r+0x1dd0>
   14214:	00040793          	mv	a5,s0
   14218:	00048713          	mv	a4,s1
   1421c:	00812403          	lw	s0,8(sp)
   14220:	01000893          	li	a7,16
   14224:	00700d13          	li	s10,7
   14228:	05d12223          	sw	t4,68(sp)
   1422c:	00028493          	mv	s1,t0
   14230:	00c0006f          	j	1423c <_vfprintf_r+0x1d74>
   14234:	ff0b0b13          	add	s6,s6,-16
   14238:	0568d863          	bge	a7,s6,14288 <_vfprintf_r+0x1dc0>
   1423c:	01070713          	add	a4,a4,16
   14240:	00168693          	add	a3,a3,1
   14244:	0097a023          	sw	s1,0(a5)
   14248:	0117a223          	sw	a7,4(a5)
   1424c:	0ae12423          	sw	a4,168(sp)
   14250:	0ad12223          	sw	a3,164(sp)
   14254:	00878793          	add	a5,a5,8
   14258:	fcdd5ee3          	bge	s10,a3,14234 <_vfprintf_r+0x1d6c>
   1425c:	0a010613          	add	a2,sp,160
   14260:	00040593          	mv	a1,s0
   14264:	00098513          	mv	a0,s3
   14268:	12c010ef          	jal	15394 <__sprint_r>
   1426c:	00050463          	beqz	a0,14274 <_vfprintf_r+0x1dac>
   14270:	f24fe06f          	j	12994 <_vfprintf_r+0x4cc>
   14274:	0a812703          	lw	a4,168(sp)
   14278:	0a412683          	lw	a3,164(sp)
   1427c:	0ac10793          	add	a5,sp,172
   14280:	01000893          	li	a7,16
   14284:	fb1ff06f          	j	14234 <_vfprintf_r+0x1d6c>
   14288:	04412e83          	lw	t4,68(sp)
   1428c:	00048293          	mv	t0,s1
   14290:	00078413          	mv	s0,a5
   14294:	00070493          	mv	s1,a4
   14298:	016484b3          	add	s1,s1,s6
   1429c:	00168693          	add	a3,a3,1
   142a0:	00542023          	sw	t0,0(s0)
   142a4:	01642223          	sw	s6,4(s0)
   142a8:	0a912423          	sw	s1,168(sp)
   142ac:	0ad12223          	sw	a3,164(sp)
   142b0:	00700713          	li	a4,7
   142b4:	00840413          	add	s0,s0,8
   142b8:	bed75c63          	bge	a4,a3,136b0 <_vfprintf_r+0x11e8>
   142bc:	00812583          	lw	a1,8(sp)
   142c0:	0a010613          	add	a2,sp,160
   142c4:	00098513          	mv	a0,s3
   142c8:	05d12223          	sw	t4,68(sp)
   142cc:	0c8010ef          	jal	15394 <__sprint_r>
   142d0:	00050463          	beqz	a0,142d8 <_vfprintf_r+0x1e10>
   142d4:	ec0fe06f          	j	12994 <_vfprintf_r+0x4cc>
   142d8:	0a812483          	lw	s1,168(sp)
   142dc:	04412e83          	lw	t4,68(sp)
   142e0:	0ac10413          	add	s0,sp,172
   142e4:	bccff06f          	j	136b0 <_vfprintf_r+0x11e8>
   142e8:	02812703          	lw	a4,40(sp)
   142ec:	09810893          	add	a7,sp,152
   142f0:	08410813          	add	a6,sp,132
   142f4:	00070513          	mv	a0,a4
   142f8:	00050593          	mv	a1,a0
   142fc:	00030713          	mv	a4,t1
   14300:	07c10793          	add	a5,sp,124
   14304:	00200693          	li	a3,2
   14308:	00048613          	mv	a2,s1
   1430c:	00098513          	mv	a0,s3
   14310:	03c12223          	sw	t3,36(sp)
   14314:	03d12023          	sw	t4,32(sp)
   14318:	00612c23          	sw	t1,24(sp)
   1431c:	7b5040ef          	jal	192d0 <_dtoa_r>
   14320:	02012e83          	lw	t4,32(sp)
   14324:	01812303          	lw	t1,24(sp)
   14328:	02412e03          	lw	t3,36(sp)
   1432c:	001ef713          	and	a4,t4,1
   14330:	00050c13          	mv	s8,a0
   14334:	1a0712e3          	bnez	a4,14cd8 <_vfprintf_r+0x2810>
   14338:	09812783          	lw	a5,152(sp)
   1433c:	07c12a03          	lw	s4,124(sp)
   14340:	40a787b3          	sub	a5,a5,a0
   14344:	00f12c23          	sw	a5,24(sp)
   14348:	ffd00713          	li	a4,-3
   1434c:	00ea4463          	blt	s4,a4,14354 <_vfprintf_r+0x1e8c>
   14350:	5b435663          	bge	t1,s4,148fc <_vfprintf_r+0x2434>
   14354:	ffee0e13          	add	t3,t3,-2
   14358:	fffa0d13          	add	s10,s4,-1
   1435c:	07a12e23          	sw	s10,124(sp)
   14360:	0ffe7693          	zext.b	a3,t3
   14364:	00000613          	li	a2,0
   14368:	08d10423          	sb	a3,136(sp)
   1436c:	02b00693          	li	a3,43
   14370:	000d5863          	bgez	s10,14380 <_vfprintf_r+0x1eb8>
   14374:	00100713          	li	a4,1
   14378:	41470d33          	sub	s10,a4,s4
   1437c:	02d00693          	li	a3,45
   14380:	08d104a3          	sb	a3,137(sp)
   14384:	00900693          	li	a3,9
   14388:	33a6d8e3          	bge	a3,s10,14eb8 <_vfprintf_r+0x29f0>
   1438c:	000c0793          	mv	a5,s8
   14390:	09f10493          	add	s1,sp,159
   14394:	03212023          	sw	s2,32(sp)
   14398:	00040c13          	mv	s8,s0
   1439c:	06300a13          	li	s4,99
   143a0:	000d0413          	mv	s0,s10
   143a4:	03d12223          	sw	t4,36(sp)
   143a8:	05c12023          	sw	t3,64(sp)
   143ac:	00048913          	mv	s2,s1
   143b0:	00098c93          	mv	s9,s3
   143b4:	00078d13          	mv	s10,a5
   143b8:	00a00593          	li	a1,10
   143bc:	00040513          	mv	a0,s0
   143c0:	5b50d0ef          	jal	22174 <__modsi3>
   143c4:	03050713          	add	a4,a0,48
   143c8:	00090b13          	mv	s6,s2
   143cc:	00040513          	mv	a0,s0
   143d0:	feeb0fa3          	sb	a4,-1(s6)
   143d4:	00a00593          	li	a1,10
   143d8:	00040993          	mv	s3,s0
   143dc:	5150d0ef          	jal	220f0 <__divsi3>
   143e0:	fff90913          	add	s2,s2,-1
   143e4:	00050413          	mv	s0,a0
   143e8:	fd3a48e3          	blt	s4,s3,143b8 <_vfprintf_r+0x1ef0>
   143ec:	000c8993          	mv	s3,s9
   143f0:	03050713          	add	a4,a0,48
   143f4:	00090c93          	mv	s9,s2
   143f8:	ffeb0693          	add	a3,s6,-2
   143fc:	feec8fa3          	sb	a4,-1(s9)
   14400:	000c0413          	mv	s0,s8
   14404:	02412e83          	lw	t4,36(sp)
   14408:	04012e03          	lw	t3,64(sp)
   1440c:	02012903          	lw	s2,32(sp)
   14410:	000d0c13          	mv	s8,s10
   14414:	4c96f6e3          	bgeu	a3,s1,150e0 <_vfprintf_r+0x2c18>
   14418:	08a10713          	add	a4,sp,138
   1441c:	0006c783          	lbu	a5,0(a3)
   14420:	00168693          	add	a3,a3,1
   14424:	00170713          	add	a4,a4,1
   14428:	fef70fa3          	sb	a5,-1(a4)
   1442c:	fe9698e3          	bne	a3,s1,1441c <_vfprintf_r+0x1f54>
   14430:	15010793          	add	a5,sp,336
   14434:	41678633          	sub	a2,a5,s6
   14438:	f5360793          	add	a5,a2,-173
   1443c:	04f12023          	sw	a5,64(sp)
   14440:	01812783          	lw	a5,24(sp)
   14444:	04012683          	lw	a3,64(sp)
   14448:	00100713          	li	a4,1
   1444c:	00d78d33          	add	s10,a5,a3
   14450:	28f75ce3          	bge	a4,a5,14ee8 <_vfprintf_r+0x2a20>
   14454:	03012783          	lw	a5,48(sp)
   14458:	00fd0d33          	add	s10,s10,a5
   1445c:	fffd4813          	not	a6,s10
   14460:	bffeff13          	and	t5,t4,-1025
   14464:	41f85813          	sra	a6,a6,0x1f
   14468:	100f6e93          	or	t4,t5,256
   1446c:	010d7cb3          	and	s9,s10,a6
   14470:	02012223          	sw	zero,36(sp)
   14474:	02012023          	sw	zero,32(sp)
   14478:	00000a13          	li	s4,0
   1447c:	04412783          	lw	a5,68(sp)
   14480:	46079263          	bnez	a5,148e4 <_vfprintf_r+0x241c>
   14484:	07714603          	lbu	a2,119(sp)
   14488:	00000313          	li	t1,0
   1448c:	00061463          	bnez	a2,14494 <_vfprintf_r+0x1fcc>
   14490:	a74fe06f          	j	12704 <_vfprintf_r+0x23c>
   14494:	e90fe06f          	j	12b24 <_vfprintf_r+0x65c>
   14498:	00812583          	lw	a1,8(sp)
   1449c:	0a010613          	add	a2,sp,160
   144a0:	00098513          	mv	a0,s3
   144a4:	03d12023          	sw	t4,32(sp)
   144a8:	6ed000ef          	jal	15394 <__sprint_r>
   144ac:	00050463          	beqz	a0,144b4 <_vfprintf_r+0x1fec>
   144b0:	ce4fe06f          	j	12994 <_vfprintf_r+0x4cc>
   144b4:	07c12683          	lw	a3,124(sp)
   144b8:	0a812483          	lw	s1,168(sp)
   144bc:	02012e83          	lw	t4,32(sp)
   144c0:	0ac10413          	add	s0,sp,172
   144c4:	ce0ff06f          	j	139a4 <_vfprintf_r+0x14dc>
   144c8:	00600c93          	li	s9,6
   144cc:	f14ff06f          	j	13be0 <_vfprintf_r+0x1718>
   144d0:	0ffd7d13          	zext.b	s10,s10
   144d4:	00000c93          	li	s9,0
   144d8:	bd5fe06f          	j	130ac <_vfprintf_r+0xbe4>
   144dc:	0ffd7d13          	zext.b	s10,s10
   144e0:	00000c93          	li	s9,0
   144e4:	e48ff06f          	j	13b2c <_vfprintf_r+0x1664>
   144e8:	018d1d13          	sll	s10,s10,0x18
   144ec:	418d5d13          	sra	s10,s10,0x18
   144f0:	41fd5c93          	sra	s9,s10,0x1f
   144f4:	000c8793          	mv	a5,s9
   144f8:	b39fe06f          	j	13030 <_vfprintf_r+0xb68>
   144fc:	01412783          	lw	a5,20(sp)
   14500:	00c12703          	lw	a4,12(sp)
   14504:	0007a783          	lw	a5,0(a5)
   14508:	00e79023          	sh	a4,0(a5)
   1450c:	c21fe06f          	j	1312c <_vfprintf_r+0xc64>
   14510:	000c0513          	mv	a0,s8
   14514:	05d12223          	sw	t4,68(sp)
   14518:	7ec040ef          	jal	18d04 <strlen>
   1451c:	07714603          	lbu	a2,119(sp)
   14520:	fff54813          	not	a6,a0
   14524:	41f85813          	sra	a6,a6,0x1f
   14528:	01612a23          	sw	s6,20(sp)
   1452c:	02012223          	sw	zero,36(sp)
   14530:	02012023          	sw	zero,32(sp)
   14534:	00012823          	sw	zero,16(sp)
   14538:	04412e83          	lw	t4,68(sp)
   1453c:	00050d13          	mv	s10,a0
   14540:	01057cb3          	and	s9,a0,a6
   14544:	00000313          	li	t1,0
   14548:	07300e13          	li	t3,115
   1454c:	00061463          	bnez	a2,14554 <_vfprintf_r+0x208c>
   14550:	9b4fe06f          	j	12704 <_vfprintf_r+0x23c>
   14554:	dd0fe06f          	j	12b24 <_vfprintf_r+0x65c>
   14558:	00812583          	lw	a1,8(sp)
   1455c:	0a010613          	add	a2,sp,160
   14560:	00098513          	mv	a0,s3
   14564:	631000ef          	jal	15394 <__sprint_r>
   14568:	00051463          	bnez	a0,14570 <_vfprintf_r+0x20a8>
   1456c:	be8fe06f          	j	12954 <_vfprintf_r+0x48c>
   14570:	c38fe06f          	j	129a8 <_vfprintf_r+0x4e0>
   14574:	00812583          	lw	a1,8(sp)
   14578:	0a010613          	add	a2,sp,160
   1457c:	00098513          	mv	a0,s3
   14580:	03d12023          	sw	t4,32(sp)
   14584:	611000ef          	jal	15394 <__sprint_r>
   14588:	00050463          	beqz	a0,14590 <_vfprintf_r+0x20c8>
   1458c:	c08fe06f          	j	12994 <_vfprintf_r+0x4cc>
   14590:	07c12683          	lw	a3,124(sp)
   14594:	0a812483          	lw	s1,168(sp)
   14598:	0a412703          	lw	a4,164(sp)
   1459c:	02012e83          	lw	t4,32(sp)
   145a0:	0ac10413          	add	s0,sp,172
   145a4:	c2dff06f          	j	141d0 <_vfprintf_r+0x1d08>
   145a8:	05862503          	lw	a0,88(a2)
   145ac:	00f12623          	sw	a5,12(sp)
   145b0:	ff1fc0ef          	jal	115a0 <__retarget_lock_release_recursive>
   145b4:	00c12783          	lw	a5,12(sp)
   145b8:	ab8fe06f          	j	12870 <_vfprintf_r+0x3a8>
   145bc:	00130a13          	add	s4,t1,1
   145c0:	00200693          	li	a3,2
   145c4:	02812703          	lw	a4,40(sp)
   145c8:	09810893          	add	a7,sp,152
   145cc:	08410813          	add	a6,sp,132
   145d0:	00070513          	mv	a0,a4
   145d4:	00050593          	mv	a1,a0
   145d8:	000a0713          	mv	a4,s4
   145dc:	07c10793          	add	a5,sp,124
   145e0:	00048613          	mv	a2,s1
   145e4:	00098513          	mv	a0,s3
   145e8:	02612223          	sw	t1,36(sp)
   145ec:	03c12023          	sw	t3,32(sp)
   145f0:	01d12c23          	sw	t4,24(sp)
   145f4:	4dd040ef          	jal	192d0 <_dtoa_r>
   145f8:	02012e03          	lw	t3,32(sp)
   145fc:	04600693          	li	a3,70
   14600:	01812e83          	lw	t4,24(sp)
   14604:	fdfe7d13          	and	s10,t3,-33
   14608:	02412303          	lw	t1,36(sp)
   1460c:	00050c13          	mv	s8,a0
   14610:	01450733          	add	a4,a0,s4
   14614:	34dd14e3          	bne	s10,a3,1515c <_vfprintf_r+0x2c94>
   14618:	000c4603          	lbu	a2,0(s8)
   1461c:	03000693          	li	a3,48
   14620:	6cd60263          	beq	a2,a3,14ce4 <_vfprintf_r+0x281c>
   14624:	07c12683          	lw	a3,124(sp)
   14628:	00d70733          	add	a4,a4,a3
   1462c:	02812683          	lw	a3,40(sp)
   14630:	00048593          	mv	a1,s1
   14634:	00000613          	li	a2,0
   14638:	00068513          	mv	a0,a3
   1463c:	00000693          	li	a3,0
   14640:	04e12823          	sw	a4,80(sp)
   14644:	02612223          	sw	t1,36(sp)
   14648:	03c12023          	sw	t3,32(sp)
   1464c:	01d12c23          	sw	t4,24(sp)
   14650:	1200c0ef          	jal	20770 <__eqdf2>
   14654:	01812e83          	lw	t4,24(sp)
   14658:	02012e03          	lw	t3,32(sp)
   1465c:	02412303          	lw	t1,36(sp)
   14660:	05012703          	lw	a4,80(sp)
   14664:	62050863          	beqz	a0,14c94 <_vfprintf_r+0x27cc>
   14668:	09812783          	lw	a5,152(sp)
   1466c:	00e7fe63          	bgeu	a5,a4,14688 <_vfprintf_r+0x21c0>
   14670:	03000613          	li	a2,48
   14674:	00178693          	add	a3,a5,1
   14678:	08d12c23          	sw	a3,152(sp)
   1467c:	00c78023          	sb	a2,0(a5)
   14680:	09812783          	lw	a5,152(sp)
   14684:	fee7e8e3          	bltu	a5,a4,14674 <_vfprintf_r+0x21ac>
   14688:	07c12a03          	lw	s4,124(sp)
   1468c:	418787b3          	sub	a5,a5,s8
   14690:	04700713          	li	a4,71
   14694:	00f12c23          	sw	a5,24(sp)
   14698:	caed08e3          	beq	s10,a4,14348 <_vfprintf_r+0x1e80>
   1469c:	04600713          	li	a4,70
   146a0:	68ed0863          	beq	s10,a4,14d30 <_vfprintf_r+0x2868>
   146a4:	fffa0d13          	add	s10,s4,-1
   146a8:	cb5ff06f          	j	1435c <_vfprintf_r+0x1e94>
   146ac:	02812703          	lw	a4,40(sp)
   146b0:	07c10613          	add	a2,sp,124
   146b4:	00048593          	mv	a1,s1
   146b8:	00070513          	mv	a0,a4
   146bc:	02612223          	sw	t1,36(sp)
   146c0:	03c12023          	sw	t3,32(sp)
   146c4:	01d12c23          	sw	t4,24(sp)
   146c8:	0f5040ef          	jal	18fbc <frexp>
   146cc:	00010717          	auipc	a4,0x10
   146d0:	1d470713          	add	a4,a4,468 # 248a0 <__SDATA_BEGIN__+0x8>
   146d4:	00072603          	lw	a2,0(a4)
   146d8:	00472683          	lw	a3,4(a4)
   146dc:	3280c0ef          	jal	20a04 <__muldf3>
   146e0:	00000613          	li	a2,0
   146e4:	00000693          	li	a3,0
   146e8:	00050a13          	mv	s4,a0
   146ec:	00058d13          	mv	s10,a1
   146f0:	0800c0ef          	jal	20770 <__eqdf2>
   146f4:	01812e83          	lw	t4,24(sp)
   146f8:	02012e03          	lw	t3,32(sp)
   146fc:	02412303          	lw	t1,36(sp)
   14700:	00051663          	bnez	a0,1470c <_vfprintf_r+0x2244>
   14704:	00100713          	li	a4,1
   14708:	06e12e23          	sw	a4,124(sp)
   1470c:	0000e797          	auipc	a5,0xe
   14710:	b6478793          	add	a5,a5,-1180 # 22270 <__clzsi2+0xcc>
   14714:	06100713          	li	a4,97
   14718:	02f12023          	sw	a5,32(sp)
   1471c:	00ee1863          	bne	t3,a4,1472c <_vfprintf_r+0x2264>
   14720:	0000e797          	auipc	a5,0xe
   14724:	b3c78793          	add	a5,a5,-1220 # 2225c <__clzsi2+0xb8>
   14728:	02f12023          	sw	a5,32(sp)
   1472c:	00010717          	auipc	a4,0x10
   14730:	17c70713          	add	a4,a4,380 # 248a8 <__SDATA_BEGIN__+0x10>
   14734:	00072783          	lw	a5,0(a4)
   14738:	00472803          	lw	a6,4(a4)
   1473c:	000c0493          	mv	s1,s8
   14740:	00f12c23          	sw	a5,24(sp)
   14744:	000d0793          	mv	a5,s10
   14748:	03212223          	sw	s2,36(sp)
   1474c:	000c0d13          	mv	s10,s8
   14750:	02012903          	lw	s2,32(sp)
   14754:	00098c13          	mv	s8,s3
   14758:	01012e23          	sw	a6,28(sp)
   1475c:	fff30b13          	add	s6,t1,-1
   14760:	fff00c93          	li	s9,-1
   14764:	05d12023          	sw	t4,64(sp)
   14768:	05c12823          	sw	t3,80(sp)
   1476c:	04812a23          	sw	s0,84(sp)
   14770:	00078993          	mv	s3,a5
   14774:	01c0006f          	j	14790 <_vfprintf_r+0x22c8>
   14778:	00000613          	li	a2,0
   1477c:	00000693          	li	a3,0
   14780:	fffb0413          	add	s0,s6,-1
   14784:	7ed0b0ef          	jal	20770 <__eqdf2>
   14788:	0a0504e3          	beqz	a0,15030 <_vfprintf_r+0x2b68>
   1478c:	00040b13          	mv	s6,s0
   14790:	01812603          	lw	a2,24(sp)
   14794:	01c12683          	lw	a3,28(sp)
   14798:	000a0513          	mv	a0,s4
   1479c:	00098593          	mv	a1,s3
   147a0:	2640c0ef          	jal	20a04 <__muldf3>
   147a4:	00058a13          	mv	s4,a1
   147a8:	00050993          	mv	s3,a0
   147ac:	3440d0ef          	jal	21af0 <__fixdfsi>
   147b0:	00050413          	mv	s0,a0
   147b4:	3c00d0ef          	jal	21b74 <__floatsidf>
   147b8:	00050613          	mv	a2,a0
   147bc:	00058693          	mv	a3,a1
   147c0:	00098513          	mv	a0,s3
   147c4:	000a0593          	mv	a1,s4
   147c8:	1cd0c0ef          	jal	21194 <__subdf3>
   147cc:	00890733          	add	a4,s2,s0
   147d0:	00074703          	lbu	a4,0(a4)
   147d4:	00048813          	mv	a6,s1
   147d8:	00050a13          	mv	s4,a0
   147dc:	00e48023          	sb	a4,0(s1) # 80000000 <__BSS_END__+0x7ffdb0f0>
   147e0:	00058993          	mv	s3,a1
   147e4:	00148493          	add	s1,s1,1
   147e8:	f99b18e3          	bne	s6,s9,14778 <_vfprintf_r+0x22b0>
   147ec:	00010697          	auipc	a3,0x10
   147f0:	0c468693          	add	a3,a3,196 # 248b0 <__SDATA_BEGIN__+0x18>
   147f4:	0006a303          	lw	t1,0(a3)
   147f8:	0046a383          	lw	t2,4(a3)
   147fc:	05012e03          	lw	t3,80(sp)
   14800:	00030613          	mv	a2,t1
   14804:	00038693          	mv	a3,t2
   14808:	01012c23          	sw	a6,24(sp)
   1480c:	02412903          	lw	s2,36(sp)
   14810:	000c0993          	mv	s3,s8
   14814:	03c12223          	sw	t3,36(sp)
   14818:	000d0c13          	mv	s8,s10
   1481c:	00058d13          	mv	s10,a1
   14820:	7dd0b0ef          	jal	207fc <__gedf2>
   14824:	00010797          	auipc	a5,0x10
   14828:	08c78793          	add	a5,a5,140 # 248b0 <__SDATA_BEGIN__+0x18>
   1482c:	00040b13          	mv	s6,s0
   14830:	0007a303          	lw	t1,0(a5)
   14834:	05412403          	lw	s0,84(sp)
   14838:	0047a383          	lw	t2,4(a5)
   1483c:	01812803          	lw	a6,24(sp)
   14840:	02412e03          	lw	t3,36(sp)
   14844:	04012e83          	lw	t4,64(sp)
   14848:	0aa05ce3          	blez	a0,15100 <_vfprintf_r+0x2c38>
   1484c:	02012783          	lw	a5,32(sp)
   14850:	09012c23          	sw	a6,152(sp)
   14854:	fff4c603          	lbu	a2,-1(s1)
   14858:	00f7c583          	lbu	a1,15(a5)
   1485c:	00048693          	mv	a3,s1
   14860:	02b61063          	bne	a2,a1,14880 <_vfprintf_r+0x23b8>
   14864:	03000513          	li	a0,48
   14868:	fea68fa3          	sb	a0,-1(a3)
   1486c:	09812683          	lw	a3,152(sp)
   14870:	fff68793          	add	a5,a3,-1
   14874:	08f12c23          	sw	a5,152(sp)
   14878:	fff6c603          	lbu	a2,-1(a3)
   1487c:	feb606e3          	beq	a2,a1,14868 <_vfprintf_r+0x23a0>
   14880:	00160593          	add	a1,a2,1
   14884:	03900513          	li	a0,57
   14888:	0ff5f593          	zext.b	a1,a1
   1488c:	04a60463          	beq	a2,a0,148d4 <_vfprintf_r+0x240c>
   14890:	feb68fa3          	sb	a1,-1(a3)
   14894:	00048793          	mv	a5,s1
   14898:	07c12a03          	lw	s4,124(sp)
   1489c:	418787b3          	sub	a5,a5,s8
   148a0:	06100613          	li	a2,97
   148a4:	fffa0d13          	add	s10,s4,-1
   148a8:	00f12c23          	sw	a5,24(sp)
   148ac:	07a12e23          	sw	s10,124(sp)
   148b0:	07000693          	li	a3,112
   148b4:	00ce0663          	beq	t3,a2,148c0 <_vfprintf_r+0x23f8>
   148b8:	05000693          	li	a3,80
   148bc:	04100e13          	li	t3,65
   148c0:	00100613          	li	a2,1
   148c4:	aa5ff06f          	j	14368 <_vfprintf_r+0x1ea0>
   148c8:	00030a13          	mv	s4,t1
   148cc:	00300693          	li	a3,3
   148d0:	cf5ff06f          	j	145c4 <_vfprintf_r+0x20fc>
   148d4:	02012783          	lw	a5,32(sp)
   148d8:	00a7c583          	lbu	a1,10(a5)
   148dc:	feb68fa3          	sb	a1,-1(a3)
   148e0:	fb5ff06f          	j	14894 <_vfprintf_r+0x23cc>
   148e4:	02d00713          	li	a4,45
   148e8:	06e10ba3          	sb	a4,119(sp)
   148ec:	02d00613          	li	a2,45
   148f0:	00000313          	li	t1,0
   148f4:	001c8c93          	add	s9,s9,1
   148f8:	e0dfd06f          	j	12704 <_vfprintf_r+0x23c>
   148fc:	01812783          	lw	a5,24(sp)
   14900:	46fa4063          	blt	s4,a5,14d60 <_vfprintf_r+0x2898>
   14904:	001ef713          	and	a4,t4,1
   14908:	000a0d13          	mv	s10,s4
   1490c:	00070663          	beqz	a4,14918 <_vfprintf_r+0x2450>
   14910:	03012783          	lw	a5,48(sp)
   14914:	00fa0d33          	add	s10,s4,a5
   14918:	400eff13          	and	t5,t4,1024
   1491c:	000f0463          	beqz	t5,14924 <_vfprintf_r+0x245c>
   14920:	5f404e63          	bgtz	s4,14f1c <_vfprintf_r+0x2a54>
   14924:	fffd4813          	not	a6,s10
   14928:	41f85813          	sra	a6,a6,0x1f
   1492c:	010d7cb3          	and	s9,s10,a6
   14930:	06700e13          	li	t3,103
   14934:	000b0e93          	mv	t4,s6
   14938:	02012223          	sw	zero,36(sp)
   1493c:	02012023          	sw	zero,32(sp)
   14940:	b3dff06f          	j	1447c <_vfprintf_r+0x1fb4>
   14944:	02d00793          	li	a5,45
   14948:	06f10ba3          	sb	a5,119(sp)
   1494c:	02d00613          	li	a2,45
   14950:	998fe06f          	j	12ae8 <_vfprintf_r+0x620>
   14954:	01812783          	lw	a5,24(sp)
   14958:	02012a03          	lw	s4,32(sp)
   1495c:	05212823          	sw	s2,80(sp)
   14960:	00fc07b3          	add	a5,s8,a5
   14964:	05712c23          	sw	s7,88(sp)
   14968:	05912e23          	sw	s9,92(sp)
   1496c:	00040713          	mv	a4,s0
   14970:	04f12223          	sw	a5,68(sp)
   14974:	02412403          	lw	s0,36(sp)
   14978:	05d12a23          	sw	t4,84(sp)
   1497c:	03812223          	sw	s8,36(sp)
   14980:	03c12b83          	lw	s7,60(sp)
   14984:	04c12c83          	lw	s9,76(sp)
   14988:	00812903          	lw	s2,8(sp)
   1498c:	00700693          	li	a3,7
   14990:	01000d13          	li	s10,16
   14994:	0000eb17          	auipc	s6,0xe
   14998:	d98b0b13          	add	s6,s6,-616 # 2272c <zeroes.0>
   1499c:	00048613          	mv	a2,s1
   149a0:	00030c13          	mv	s8,t1
   149a4:	09405863          	blez	s4,14a34 <_vfprintf_r+0x256c>
   149a8:	16805e63          	blez	s0,14b24 <_vfprintf_r+0x265c>
   149ac:	fff40413          	add	s0,s0,-1
   149b0:	04812783          	lw	a5,72(sp)
   149b4:	01960633          	add	a2,a2,s9
   149b8:	01972223          	sw	s9,4(a4)
   149bc:	00f72023          	sw	a5,0(a4)
   149c0:	0a412783          	lw	a5,164(sp)
   149c4:	0ac12423          	sw	a2,168(sp)
   149c8:	00870713          	add	a4,a4,8
   149cc:	00178793          	add	a5,a5,1
   149d0:	0af12223          	sw	a5,164(sp)
   149d4:	14f6ce63          	blt	a3,a5,14b30 <_vfprintf_r+0x2668>
   149d8:	04412783          	lw	a5,68(sp)
   149dc:	000bc583          	lbu	a1,0(s7)
   149e0:	418784b3          	sub	s1,a5,s8
   149e4:	0095d463          	bge	a1,s1,149ec <_vfprintf_r+0x2524>
   149e8:	00058493          	mv	s1,a1
   149ec:	02905663          	blez	s1,14a18 <_vfprintf_r+0x2550>
   149f0:	0a412583          	lw	a1,164(sp)
   149f4:	00960633          	add	a2,a2,s1
   149f8:	01872023          	sw	s8,0(a4)
   149fc:	00158593          	add	a1,a1,1
   14a00:	00972223          	sw	s1,4(a4)
   14a04:	0ac12423          	sw	a2,168(sp)
   14a08:	0ab12223          	sw	a1,164(sp)
   14a0c:	14b6c663          	blt	a3,a1,14b58 <_vfprintf_r+0x2690>
   14a10:	000bc583          	lbu	a1,0(s7)
   14a14:	00870713          	add	a4,a4,8
   14a18:	fff4c513          	not	a0,s1
   14a1c:	41f55513          	sra	a0,a0,0x1f
   14a20:	00a4f7b3          	and	a5,s1,a0
   14a24:	40f584b3          	sub	s1,a1,a5
   14a28:	04904663          	bgtz	s1,14a74 <_vfprintf_r+0x25ac>
   14a2c:	00bc0c33          	add	s8,s8,a1
   14a30:	f7404ce3          	bgtz	s4,149a8 <_vfprintf_r+0x24e0>
   14a34:	f6804ce3          	bgtz	s0,149ac <_vfprintf_r+0x24e4>
   14a38:	01812783          	lw	a5,24(sp)
   14a3c:	000c0313          	mv	t1,s8
   14a40:	02412c03          	lw	s8,36(sp)
   14a44:	03712e23          	sw	s7,60(sp)
   14a48:	00070413          	mv	s0,a4
   14a4c:	00fc0733          	add	a4,s8,a5
   14a50:	05012903          	lw	s2,80(sp)
   14a54:	05412e83          	lw	t4,84(sp)
   14a58:	05812b83          	lw	s7,88(sp)
   14a5c:	05c12c83          	lw	s9,92(sp)
   14a60:	00060493          	mv	s1,a2
   14a64:	00676463          	bltu	a4,t1,14a6c <_vfprintf_r+0x25a4>
   14a68:	c59fe06f          	j	136c0 <_vfprintf_r+0x11f8>
   14a6c:	00070313          	mv	t1,a4
   14a70:	c51fe06f          	j	136c0 <_vfprintf_r+0x11f8>
   14a74:	0a412583          	lw	a1,164(sp)
   14a78:	0000ee97          	auipc	t4,0xe
   14a7c:	cb4e8e93          	add	t4,t4,-844 # 2272c <zeroes.0>
   14a80:	069d5c63          	bge	s10,s1,14af8 <_vfprintf_r+0x2630>
   14a84:	02812023          	sw	s0,32(sp)
   14a88:	00048413          	mv	s0,s1
   14a8c:	000b0493          	mv	s1,s6
   14a90:	00c0006f          	j	14a9c <_vfprintf_r+0x25d4>
   14a94:	ff040413          	add	s0,s0,-16
   14a98:	048d5a63          	bge	s10,s0,14aec <_vfprintf_r+0x2624>
   14a9c:	01060613          	add	a2,a2,16
   14aa0:	00158593          	add	a1,a1,1
   14aa4:	01672023          	sw	s6,0(a4)
   14aa8:	01a72223          	sw	s10,4(a4)
   14aac:	0ac12423          	sw	a2,168(sp)
   14ab0:	0ab12223          	sw	a1,164(sp)
   14ab4:	00870713          	add	a4,a4,8
   14ab8:	fcb6dee3          	bge	a3,a1,14a94 <_vfprintf_r+0x25cc>
   14abc:	0a010613          	add	a2,sp,160
   14ac0:	00090593          	mv	a1,s2
   14ac4:	00098513          	mv	a0,s3
   14ac8:	0cd000ef          	jal	15394 <__sprint_r>
   14acc:	00050463          	beqz	a0,14ad4 <_vfprintf_r+0x260c>
   14ad0:	ec5fd06f          	j	12994 <_vfprintf_r+0x4cc>
   14ad4:	ff040413          	add	s0,s0,-16
   14ad8:	0a812603          	lw	a2,168(sp)
   14adc:	0a412583          	lw	a1,164(sp)
   14ae0:	0ac10713          	add	a4,sp,172
   14ae4:	00700693          	li	a3,7
   14ae8:	fa8d4ae3          	blt	s10,s0,14a9c <_vfprintf_r+0x25d4>
   14aec:	00048e93          	mv	t4,s1
   14af0:	00040493          	mv	s1,s0
   14af4:	02012403          	lw	s0,32(sp)
   14af8:	00960633          	add	a2,a2,s1
   14afc:	00158593          	add	a1,a1,1
   14b00:	01d72023          	sw	t4,0(a4)
   14b04:	00972223          	sw	s1,4(a4)
   14b08:	0ac12423          	sw	a2,168(sp)
   14b0c:	0ab12223          	sw	a1,164(sp)
   14b10:	10b6ce63          	blt	a3,a1,14c2c <_vfprintf_r+0x2764>
   14b14:	000bc583          	lbu	a1,0(s7)
   14b18:	00870713          	add	a4,a4,8
   14b1c:	00bc0c33          	add	s8,s8,a1
   14b20:	f11ff06f          	j	14a30 <_vfprintf_r+0x2568>
   14b24:	fffb8b93          	add	s7,s7,-1
   14b28:	fffa0a13          	add	s4,s4,-1
   14b2c:	e85ff06f          	j	149b0 <_vfprintf_r+0x24e8>
   14b30:	0a010613          	add	a2,sp,160
   14b34:	00090593          	mv	a1,s2
   14b38:	00098513          	mv	a0,s3
   14b3c:	059000ef          	jal	15394 <__sprint_r>
   14b40:	00050463          	beqz	a0,14b48 <_vfprintf_r+0x2680>
   14b44:	e51fd06f          	j	12994 <_vfprintf_r+0x4cc>
   14b48:	0a812603          	lw	a2,168(sp)
   14b4c:	0ac10713          	add	a4,sp,172
   14b50:	00700693          	li	a3,7
   14b54:	e85ff06f          	j	149d8 <_vfprintf_r+0x2510>
   14b58:	0a010613          	add	a2,sp,160
   14b5c:	00090593          	mv	a1,s2
   14b60:	00098513          	mv	a0,s3
   14b64:	031000ef          	jal	15394 <__sprint_r>
   14b68:	00050463          	beqz	a0,14b70 <_vfprintf_r+0x26a8>
   14b6c:	e29fd06f          	j	12994 <_vfprintf_r+0x4cc>
   14b70:	000bc583          	lbu	a1,0(s7)
   14b74:	0a812603          	lw	a2,168(sp)
   14b78:	0ac10713          	add	a4,sp,172
   14b7c:	00700693          	li	a3,7
   14b80:	e99ff06f          	j	14a18 <_vfprintf_r+0x2550>
   14b84:	04c12783          	lw	a5,76(sp)
   14b88:	04812583          	lw	a1,72(sp)
   14b8c:	00000913          	li	s2,0
   14b90:	40fc0c33          	sub	s8,s8,a5
   14b94:	00078613          	mv	a2,a5
   14b98:	000c0513          	mv	a0,s8
   14b9c:	07c030ef          	jal	17c18 <strncpy>
   14ba0:	00144783          	lbu	a5,1(s0)
   14ba4:	00a00613          	li	a2,10
   14ba8:	00000693          	li	a3,0
   14bac:	00f037b3          	snez	a5,a5
   14bb0:	000d0513          	mv	a0,s10
   14bb4:	000c8593          	mv	a1,s9
   14bb8:	00f40433          	add	s0,s0,a5
   14bbc:	53d090ef          	jal	1e8f8 <__udivdi3>
   14bc0:	a10ff06f          	j	13dd0 <_vfprintf_r+0x1908>
   14bc4:	09810713          	add	a4,sp,152
   14bc8:	00000693          	li	a3,0
   14bcc:	08410613          	add	a2,sp,132
   14bd0:	00000593          	li	a1,0
   14bd4:	00098513          	mv	a0,s3
   14bd8:	01c12a23          	sw	t3,20(sp)
   14bdc:	01d12823          	sw	t4,16(sp)
   14be0:	6dc080ef          	jal	1d2bc <_wcsrtombs_r>
   14be4:	fff00713          	li	a4,-1
   14be8:	01012e83          	lw	t4,16(sp)
   14bec:	01412e03          	lw	t3,20(sp)
   14bf0:	00050d13          	mv	s10,a0
   14bf4:	30e50063          	beq	a0,a4,14ef4 <_vfprintf_r+0x2a2c>
   14bf8:	09812223          	sw	s8,132(sp)
   14bfc:	cacff06f          	j	140a8 <_vfprintf_r+0x1be0>
   14c00:	07714603          	lbu	a2,119(sp)
   14c04:	01612a23          	sw	s6,20(sp)
   14c08:	02012223          	sw	zero,36(sp)
   14c0c:	02012023          	sw	zero,32(sp)
   14c10:	00012823          	sw	zero,16(sp)
   14c14:	00000c93          	li	s9,0
   14c18:	00000313          	li	t1,0
   14c1c:	00000a13          	li	s4,0
   14c20:	00061463          	bnez	a2,14c28 <_vfprintf_r+0x2760>
   14c24:	ae1fd06f          	j	12704 <_vfprintf_r+0x23c>
   14c28:	efdfd06f          	j	12b24 <_vfprintf_r+0x65c>
   14c2c:	0a010613          	add	a2,sp,160
   14c30:	00090593          	mv	a1,s2
   14c34:	00098513          	mv	a0,s3
   14c38:	75c000ef          	jal	15394 <__sprint_r>
   14c3c:	00050463          	beqz	a0,14c44 <_vfprintf_r+0x277c>
   14c40:	d55fd06f          	j	12994 <_vfprintf_r+0x4cc>
   14c44:	000bc583          	lbu	a1,0(s7)
   14c48:	0a812603          	lw	a2,168(sp)
   14c4c:	0ac10713          	add	a4,sp,172
   14c50:	00700693          	li	a3,7
   14c54:	00bc0c33          	add	s8,s8,a1
   14c58:	dd9ff06f          	j	14a30 <_vfprintf_r+0x2568>
   14c5c:	00812583          	lw	a1,8(sp)
   14c60:	0a010613          	add	a2,sp,160
   14c64:	00098513          	mv	a0,s3
   14c68:	05d12223          	sw	t4,68(sp)
   14c6c:	728000ef          	jal	15394 <__sprint_r>
   14c70:	00050463          	beqz	a0,14c78 <_vfprintf_r+0x27b0>
   14c74:	d21fd06f          	j	12994 <_vfprintf_r+0x4cc>
   14c78:	0a812483          	lw	s1,168(sp)
   14c7c:	04412e83          	lw	t4,68(sp)
   14c80:	0ac10413          	add	s0,sp,172
   14c84:	a19fe06f          	j	1369c <_vfprintf_r+0x11d4>
   14c88:	00900793          	li	a5,9
   14c8c:	95a7e263          	bltu	a5,s10,13dd0 <_vfprintf_r+0x1908>
   14c90:	98cff06f          	j	13e1c <_vfprintf_r+0x1954>
   14c94:	07c12a03          	lw	s4,124(sp)
   14c98:	00070793          	mv	a5,a4
   14c9c:	9f1ff06f          	j	1468c <_vfprintf_r+0x21c4>
   14ca0:	00812583          	lw	a1,8(sp)
   14ca4:	0a010613          	add	a2,sp,160
   14ca8:	00098513          	mv	a0,s3
   14cac:	03d12023          	sw	t4,32(sp)
   14cb0:	6e4000ef          	jal	15394 <__sprint_r>
   14cb4:	00050463          	beqz	a0,14cbc <_vfprintf_r+0x27f4>
   14cb8:	cddfd06f          	j	12994 <_vfprintf_r+0x4cc>
   14cbc:	07c12d03          	lw	s10,124(sp)
   14cc0:	01812783          	lw	a5,24(sp)
   14cc4:	0a812483          	lw	s1,168(sp)
   14cc8:	02012e83          	lw	t4,32(sp)
   14ccc:	0ac10413          	add	s0,sp,172
   14cd0:	41a78d33          	sub	s10,a5,s10
   14cd4:	a49fe06f          	j	1371c <_vfprintf_r+0x1254>
   14cd8:	00650733          	add	a4,a0,t1
   14cdc:	04700d13          	li	s10,71
   14ce0:	94dff06f          	j	1462c <_vfprintf_r+0x2164>
   14ce4:	02812603          	lw	a2,40(sp)
   14ce8:	00048593          	mv	a1,s1
   14cec:	00000693          	li	a3,0
   14cf0:	00060513          	mv	a0,a2
   14cf4:	00000613          	li	a2,0
   14cf8:	04e12823          	sw	a4,80(sp)
   14cfc:	02612223          	sw	t1,36(sp)
   14d00:	03c12023          	sw	t3,32(sp)
   14d04:	01d12c23          	sw	t4,24(sp)
   14d08:	2690b0ef          	jal	20770 <__eqdf2>
   14d0c:	01812e83          	lw	t4,24(sp)
   14d10:	02012e03          	lw	t3,32(sp)
   14d14:	02412303          	lw	t1,36(sp)
   14d18:	05012703          	lw	a4,80(sp)
   14d1c:	34051e63          	bnez	a0,15078 <_vfprintf_r+0x2bb0>
   14d20:	07c12a03          	lw	s4,124(sp)
   14d24:	01470733          	add	a4,a4,s4
   14d28:	418707b3          	sub	a5,a4,s8
   14d2c:	00f12c23          	sw	a5,24(sp)
   14d30:	001ef713          	and	a4,t4,1
   14d34:	00676733          	or	a4,a4,t1
   14d38:	37405a63          	blez	s4,150ac <_vfprintf_r+0x2be4>
   14d3c:	26071263          	bnez	a4,14fa0 <_vfprintf_r+0x2ad8>
   14d40:	000a0d13          	mv	s10,s4
   14d44:	06600e13          	li	t3,102
   14d48:	400eff13          	and	t5,t4,1024
   14d4c:	1c0f1a63          	bnez	t5,14f20 <_vfprintf_r+0x2a58>
   14d50:	fffd4813          	not	a6,s10
   14d54:	41f85813          	sra	a6,a6,0x1f
   14d58:	010d7cb3          	and	s9,s10,a6
   14d5c:	bd9ff06f          	j	14934 <_vfprintf_r+0x246c>
   14d60:	01812783          	lw	a5,24(sp)
   14d64:	03012703          	lw	a4,48(sp)
   14d68:	06700e13          	li	t3,103
   14d6c:	00e78d33          	add	s10,a5,a4
   14d70:	fd404ce3          	bgtz	s4,14d48 <_vfprintf_r+0x2880>
   14d74:	414d06b3          	sub	a3,s10,s4
   14d78:	00168d13          	add	s10,a3,1
   14d7c:	fffd4813          	not	a6,s10
   14d80:	41f85813          	sra	a6,a6,0x1f
   14d84:	010d7cb3          	and	s9,s10,a6
   14d88:	badff06f          	j	14934 <_vfprintf_r+0x246c>
   14d8c:	000e8613          	mv	a2,t4
   14d90:	ad8fe06f          	j	13068 <_vfprintf_r+0xba0>
   14d94:	00812783          	lw	a5,8(sp)
   14d98:	0647a783          	lw	a5,100(a5)
   14d9c:	0017f793          	and	a5,a5,1
   14da0:	02079063          	bnez	a5,14dc0 <_vfprintf_r+0x28f8>
   14da4:	00812783          	lw	a5,8(sp)
   14da8:	00c7d783          	lhu	a5,12(a5)
   14dac:	2007f793          	and	a5,a5,512
   14db0:	00079863          	bnez	a5,14dc0 <_vfprintf_r+0x28f8>
   14db4:	00812783          	lw	a5,8(sp)
   14db8:	0587a503          	lw	a0,88(a5)
   14dbc:	fe4fc0ef          	jal	115a0 <__retarget_lock_release_recursive>
   14dc0:	fff00793          	li	a5,-1
   14dc4:	00f12623          	sw	a5,12(sp)
   14dc8:	c2dfd06f          	j	129f4 <_vfprintf_r+0x52c>
   14dcc:	ff000613          	li	a2,-16
   14dd0:	40d00d33          	neg	s10,a3
   14dd4:	0000e297          	auipc	t0,0xe
   14dd8:	95828293          	add	t0,t0,-1704 # 2272c <zeroes.0>
   14ddc:	08c6d463          	bge	a3,a2,14e64 <_vfprintf_r+0x299c>
   14de0:	03212023          	sw	s2,32(sp)
   14de4:	01000693          	li	a3,16
   14de8:	00700b13          	li	s6,7
   14dec:	000e8a13          	mv	s4,t4
   14df0:	00028913          	mv	s2,t0
   14df4:	00c0006f          	j	14e00 <_vfprintf_r+0x2938>
   14df8:	ff0d0d13          	add	s10,s10,-16
   14dfc:	05a6de63          	bge	a3,s10,14e58 <_vfprintf_r+0x2990>
   14e00:	01048493          	add	s1,s1,16
   14e04:	00170713          	add	a4,a4,1
   14e08:	01242023          	sw	s2,0(s0)
   14e0c:	00d42223          	sw	a3,4(s0)
   14e10:	0a912423          	sw	s1,168(sp)
   14e14:	0ae12223          	sw	a4,164(sp)
   14e18:	00840413          	add	s0,s0,8
   14e1c:	fceb5ee3          	bge	s6,a4,14df8 <_vfprintf_r+0x2930>
   14e20:	00812583          	lw	a1,8(sp)
   14e24:	0a010613          	add	a2,sp,160
   14e28:	00098513          	mv	a0,s3
   14e2c:	568000ef          	jal	15394 <__sprint_r>
   14e30:	00050463          	beqz	a0,14e38 <_vfprintf_r+0x2970>
   14e34:	b61fd06f          	j	12994 <_vfprintf_r+0x4cc>
   14e38:	0a812483          	lw	s1,168(sp)
   14e3c:	0a412703          	lw	a4,164(sp)
   14e40:	0ac10413          	add	s0,sp,172
   14e44:	01000693          	li	a3,16
   14e48:	fb1ff06f          	j	14df8 <_vfprintf_r+0x2930>
   14e4c:	00012823          	sw	zero,16(sp)
   14e50:	0ec10c13          	add	s8,sp,236
   14e54:	a88ff06f          	j	140dc <_vfprintf_r+0x1c14>
   14e58:	00090293          	mv	t0,s2
   14e5c:	02012903          	lw	s2,32(sp)
   14e60:	000a0e93          	mv	t4,s4
   14e64:	01a484b3          	add	s1,s1,s10
   14e68:	00170713          	add	a4,a4,1
   14e6c:	00542023          	sw	t0,0(s0)
   14e70:	01a42223          	sw	s10,4(s0)
   14e74:	0a912423          	sw	s1,168(sp)
   14e78:	0ae12223          	sw	a4,164(sp)
   14e7c:	00700693          	li	a3,7
   14e80:	00e6c463          	blt	a3,a4,14e88 <_vfprintf_r+0x29c0>
   14e84:	b65fe06f          	j	139e8 <_vfprintf_r+0x1520>
   14e88:	00812583          	lw	a1,8(sp)
   14e8c:	0a010613          	add	a2,sp,160
   14e90:	00098513          	mv	a0,s3
   14e94:	03d12023          	sw	t4,32(sp)
   14e98:	4fc000ef          	jal	15394 <__sprint_r>
   14e9c:	00050463          	beqz	a0,14ea4 <_vfprintf_r+0x29dc>
   14ea0:	af5fd06f          	j	12994 <_vfprintf_r+0x4cc>
   14ea4:	0a812483          	lw	s1,168(sp)
   14ea8:	0a412703          	lw	a4,164(sp)
   14eac:	02012e83          	lw	t4,32(sp)
   14eb0:	0ac10413          	add	s0,sp,172
   14eb4:	b20ff06f          	j	141d4 <_vfprintf_r+0x1d0c>
   14eb8:	08a10693          	add	a3,sp,138
   14ebc:	00061863          	bnez	a2,14ecc <_vfprintf_r+0x2a04>
   14ec0:	03000693          	li	a3,48
   14ec4:	08d10523          	sb	a3,138(sp)
   14ec8:	08b10693          	add	a3,sp,139
   14ecc:	15010793          	add	a5,sp,336
   14ed0:	40f68633          	sub	a2,a3,a5
   14ed4:	030d0713          	add	a4,s10,48
   14ed8:	0c960793          	add	a5,a2,201
   14edc:	00e68023          	sb	a4,0(a3)
   14ee0:	04f12023          	sw	a5,64(sp)
   14ee4:	d5cff06f          	j	14440 <_vfprintf_r+0x1f78>
   14ee8:	001ef713          	and	a4,t4,1
   14eec:	d6070863          	beqz	a4,1445c <_vfprintf_r+0x1f94>
   14ef0:	d64ff06f          	j	14454 <_vfprintf_r+0x1f8c>
   14ef4:	00812783          	lw	a5,8(sp)
   14ef8:	00000293          	li	t0,0
   14efc:	00c79783          	lh	a5,12(a5)
   14f00:	0407e793          	or	a5,a5,64
   14f04:	00812703          	lw	a4,8(sp)
   14f08:	00f71623          	sh	a5,12(a4)
   14f0c:	a8dfd06f          	j	12998 <_vfprintf_r+0x4d0>
   14f10:	00012823          	sw	zero,16(sp)
   14f14:	00600313          	li	t1,6
   14f18:	ff9fe06f          	j	13f10 <_vfprintf_r+0x1a48>
   14f1c:	06700e13          	li	t3,103
   14f20:	03c12783          	lw	a5,60(sp)
   14f24:	0ff00613          	li	a2,255
   14f28:	0007c703          	lbu	a4,0(a5)
   14f2c:	22c70263          	beq	a4,a2,15150 <_vfprintf_r+0x2c88>
   14f30:	00000593          	li	a1,0
   14f34:	00000693          	li	a3,0
   14f38:	01475e63          	bge	a4,s4,14f54 <_vfprintf_r+0x2a8c>
   14f3c:	40ea0a33          	sub	s4,s4,a4
   14f40:	0017c703          	lbu	a4,1(a5)
   14f44:	04070863          	beqz	a4,14f94 <_vfprintf_r+0x2acc>
   14f48:	00168693          	add	a3,a3,1
   14f4c:	00178793          	add	a5,a5,1
   14f50:	fec714e3          	bne	a4,a2,14f38 <_vfprintf_r+0x2a70>
   14f54:	02f12e23          	sw	a5,60(sp)
   14f58:	02d12023          	sw	a3,32(sp)
   14f5c:	02b12223          	sw	a1,36(sp)
   14f60:	02012783          	lw	a5,32(sp)
   14f64:	02412703          	lw	a4,36(sp)
   14f68:	04c12583          	lw	a1,76(sp)
   14f6c:	05c12823          	sw	t3,80(sp)
   14f70:	00e78533          	add	a0,a5,a4
   14f74:	1580d0ef          	jal	220cc <__mulsi3>
   14f78:	01a50d33          	add	s10,a0,s10
   14f7c:	fffd4813          	not	a6,s10
   14f80:	41f85813          	sra	a6,a6,0x1f
   14f84:	05012e03          	lw	t3,80(sp)
   14f88:	010d7cb3          	and	s9,s10,a6
   14f8c:	000b0e93          	mv	t4,s6
   14f90:	cecff06f          	j	1447c <_vfprintf_r+0x1fb4>
   14f94:	0007c703          	lbu	a4,0(a5)
   14f98:	00158593          	add	a1,a1,1
   14f9c:	fb5ff06f          	j	14f50 <_vfprintf_r+0x2a88>
   14fa0:	03012783          	lw	a5,48(sp)
   14fa4:	06600e13          	li	t3,102
   14fa8:	00f306b3          	add	a3,t1,a5
   14fac:	01468d33          	add	s10,a3,s4
   14fb0:	d99ff06f          	j	14d48 <_vfprintf_r+0x2880>
   14fb4:	02c12783          	lw	a5,44(sp)
   14fb8:	0a07c863          	bltz	a5,15068 <_vfprintf_r+0x2ba0>
   14fbc:	07714603          	lbu	a2,119(sp)
   14fc0:	04700713          	li	a4,71
   14fc4:	0000dc17          	auipc	s8,0xd
   14fc8:	294c0c13          	add	s8,s8,660 # 22258 <__clzsi2+0xb4>
   14fcc:	01c75463          	bge	a4,t3,14fd4 <_vfprintf_r+0x2b0c>
   14fd0:	b31fd06f          	j	12b00 <_vfprintf_r+0x638>
   14fd4:	0000dc17          	auipc	s8,0xd
   14fd8:	280c0c13          	add	s8,s8,640 # 22254 <__clzsi2+0xb0>
   14fdc:	b25fd06f          	j	12b00 <_vfprintf_r+0x638>
   14fe0:	07714603          	lbu	a2,119(sp)
   14fe4:	01612a23          	sw	s6,20(sp)
   14fe8:	02012223          	sw	zero,36(sp)
   14fec:	02012023          	sw	zero,32(sp)
   14ff0:	00030c93          	mv	s9,t1
   14ff4:	00030d13          	mv	s10,t1
   14ff8:	07300e13          	li	t3,115
   14ffc:	00000313          	li	t1,0
   15000:	00061463          	bnez	a2,15008 <_vfprintf_r+0x2b40>
   15004:	f00fd06f          	j	12704 <_vfprintf_r+0x23c>
   15008:	b1dfd06f          	j	12b24 <_vfprintf_r+0x65c>
   1500c:	00040313          	mv	t1,s0
   15010:	01012903          	lw	s2,16(sp)
   15014:	000b0413          	mv	s0,s6
   15018:	01412e03          	lw	t3,20(sp)
   1501c:	000c0b13          	mv	s6,s8
   15020:	000a0e93          	mv	t4,s4
   15024:	000c8c13          	mv	s8,s9
   15028:	00030d13          	mv	s10,t1
   1502c:	87cff06f          	j	140a8 <_vfprintf_r+0x1be0>
   15030:	001b0793          	add	a5,s6,1
   15034:	000c0993          	mv	s3,s8
   15038:	02412903          	lw	s2,36(sp)
   1503c:	04012e83          	lw	t4,64(sp)
   15040:	05012e03          	lw	t3,80(sp)
   15044:	05412403          	lw	s0,84(sp)
   15048:	000d0c13          	mv	s8,s10
   1504c:	00f487b3          	add	a5,s1,a5
   15050:	03000693          	li	a3,48
   15054:	840b40e3          	bltz	s6,14894 <_vfprintf_r+0x23cc>
   15058:	00148493          	add	s1,s1,1
   1505c:	fed48fa3          	sb	a3,-1(s1)
   15060:	fe979ce3          	bne	a5,s1,15058 <_vfprintf_r+0x2b90>
   15064:	835ff06f          	j	14898 <_vfprintf_r+0x23d0>
   15068:	02d00793          	li	a5,45
   1506c:	06f10ba3          	sb	a5,119(sp)
   15070:	02d00613          	li	a2,45
   15074:	f4dff06f          	j	14fc0 <_vfprintf_r+0x2af8>
   15078:	00100693          	li	a3,1
   1507c:	414686b3          	sub	a3,a3,s4
   15080:	06d12e23          	sw	a3,124(sp)
   15084:	da4ff06f          	j	14628 <_vfprintf_r+0x2160>
   15088:	01412783          	lw	a5,20(sp)
   1508c:	0007ab03          	lw	s6,0(a5)
   15090:	00478793          	add	a5,a5,4
   15094:	000b5463          	bgez	s6,1509c <_vfprintf_r+0x2bd4>
   15098:	fff00b13          	li	s6,-1
   1509c:	00194e03          	lbu	t3,1(s2)
   150a0:	00f12a23          	sw	a5,20(sp)
   150a4:	00068913          	mv	s2,a3
   150a8:	dccfd06f          	j	12674 <_vfprintf_r+0x1ac>
   150ac:	00071a63          	bnez	a4,150c0 <_vfprintf_r+0x2bf8>
   150b0:	00100c93          	li	s9,1
   150b4:	06600e13          	li	t3,102
   150b8:	00100d13          	li	s10,1
   150bc:	879ff06f          	j	14934 <_vfprintf_r+0x246c>
   150c0:	03012783          	lw	a5,48(sp)
   150c4:	06600e13          	li	t3,102
   150c8:	00178693          	add	a3,a5,1
   150cc:	00668d33          	add	s10,a3,t1
   150d0:	fffd4813          	not	a6,s10
   150d4:	41f85813          	sra	a6,a6,0x1f
   150d8:	010d7cb3          	and	s9,s10,a6
   150dc:	859ff06f          	j	14934 <_vfprintf_r+0x246c>
   150e0:	00200793          	li	a5,2
   150e4:	04f12023          	sw	a5,64(sp)
   150e8:	b58ff06f          	j	14440 <_vfprintf_r+0x1f78>
   150ec:	00812703          	lw	a4,8(sp)
   150f0:	00c71783          	lh	a5,12(a4)
   150f4:	0407e793          	or	a5,a5,64
   150f8:	00f71623          	sh	a5,12(a4)
   150fc:	8b5fd06f          	j	129b0 <_vfprintf_r+0x4e8>
   15100:	000a0513          	mv	a0,s4
   15104:	000d0593          	mv	a1,s10
   15108:	00030613          	mv	a2,t1
   1510c:	00038693          	mv	a3,t2
   15110:	05012023          	sw	a6,64(sp)
   15114:	03c12223          	sw	t3,36(sp)
   15118:	01d12c23          	sw	t4,24(sp)
   1511c:	6540b0ef          	jal	20770 <__eqdf2>
   15120:	01812e83          	lw	t4,24(sp)
   15124:	02412e03          	lw	t3,36(sp)
   15128:	04012803          	lw	a6,64(sp)
   1512c:	f6051463          	bnez	a0,14894 <_vfprintf_r+0x23cc>
   15130:	001b7693          	and	a3,s6,1
   15134:	f6068063          	beqz	a3,14894 <_vfprintf_r+0x23cc>
   15138:	f14ff06f          	j	1484c <_vfprintf_r+0x2384>
   1513c:	00812783          	lw	a5,8(sp)
   15140:	01012283          	lw	t0,16(sp)
   15144:	00c79783          	lh	a5,12(a5)
   15148:	0407e793          	or	a5,a5,64
   1514c:	db9ff06f          	j	14f04 <_vfprintf_r+0x2a3c>
   15150:	02012223          	sw	zero,36(sp)
   15154:	02012023          	sw	zero,32(sp)
   15158:	e09ff06f          	j	14f60 <_vfprintf_r+0x2a98>
   1515c:	04500d13          	li	s10,69
   15160:	cccff06f          	j	1462c <_vfprintf_r+0x2164>

00015164 <vfprintf>:
   15164:	00060693          	mv	a3,a2
   15168:	00058613          	mv	a2,a1
   1516c:	00050593          	mv	a1,a0
   15170:	f341a503          	lw	a0,-204(gp) # 24904 <_impure_ptr>
   15174:	b54fd06f          	j	124c8 <_vfprintf_r>

00015178 <__sbprintf>:
   15178:	b7010113          	add	sp,sp,-1168
   1517c:	00c59783          	lh	a5,12(a1)
   15180:	00e5d703          	lhu	a4,14(a1)
   15184:	48812423          	sw	s0,1160(sp)
   15188:	00058413          	mv	s0,a1
   1518c:	000105b7          	lui	a1,0x10
   15190:	ffd58593          	add	a1,a1,-3 # fffd <exit-0x97>
   15194:	06442303          	lw	t1,100(s0)
   15198:	01c42883          	lw	a7,28(s0)
   1519c:	02442803          	lw	a6,36(s0)
   151a0:	01071713          	sll	a4,a4,0x10
   151a4:	00b7f7b3          	and	a5,a5,a1
   151a8:	00e7e7b3          	or	a5,a5,a4
   151ac:	40000593          	li	a1,1024
   151b0:	49212023          	sw	s2,1152(sp)
   151b4:	00f12a23          	sw	a5,20(sp)
   151b8:	00050913          	mv	s2,a0
   151bc:	07010793          	add	a5,sp,112
   151c0:	06010513          	add	a0,sp,96
   151c4:	48112623          	sw	ra,1164(sp)
   151c8:	48912223          	sw	s1,1156(sp)
   151cc:	47312e23          	sw	s3,1148(sp)
   151d0:	00060493          	mv	s1,a2
   151d4:	00068993          	mv	s3,a3
   151d8:	06612623          	sw	t1,108(sp)
   151dc:	03112223          	sw	a7,36(sp)
   151e0:	03012623          	sw	a6,44(sp)
   151e4:	00f12423          	sw	a5,8(sp)
   151e8:	00f12c23          	sw	a5,24(sp)
   151ec:	00b12823          	sw	a1,16(sp)
   151f0:	00b12e23          	sw	a1,28(sp)
   151f4:	02012023          	sw	zero,32(sp)
   151f8:	b80fc0ef          	jal	11578 <__retarget_lock_init_recursive>
   151fc:	00048613          	mv	a2,s1
   15200:	00098693          	mv	a3,s3
   15204:	00810593          	add	a1,sp,8
   15208:	00090513          	mv	a0,s2
   1520c:	abcfd0ef          	jal	124c8 <_vfprintf_r>
   15210:	00050493          	mv	s1,a0
   15214:	04055263          	bgez	a0,15258 <__sbprintf+0xe0>
   15218:	01415783          	lhu	a5,20(sp)
   1521c:	0407f793          	and	a5,a5,64
   15220:	00078863          	beqz	a5,15230 <__sbprintf+0xb8>
   15224:	00c45783          	lhu	a5,12(s0)
   15228:	0407e793          	or	a5,a5,64
   1522c:	00f41623          	sh	a5,12(s0)
   15230:	06012503          	lw	a0,96(sp)
   15234:	b4cfc0ef          	jal	11580 <__retarget_lock_close_recursive>
   15238:	48c12083          	lw	ra,1164(sp)
   1523c:	48812403          	lw	s0,1160(sp)
   15240:	48012903          	lw	s2,1152(sp)
   15244:	47c12983          	lw	s3,1148(sp)
   15248:	00048513          	mv	a0,s1
   1524c:	48412483          	lw	s1,1156(sp)
   15250:	49010113          	add	sp,sp,1168
   15254:	00008067          	ret
   15258:	00810593          	add	a1,sp,8
   1525c:	00090513          	mv	a0,s2
   15260:	5d5010ef          	jal	17034 <_fflush_r>
   15264:	fa050ae3          	beqz	a0,15218 <__sbprintf+0xa0>
   15268:	fff00493          	li	s1,-1
   1526c:	fadff06f          	j	15218 <__sbprintf+0xa0>

00015270 <__sprint_r.part.0>:
   15270:	0645a783          	lw	a5,100(a1)
   15274:	fd010113          	add	sp,sp,-48
   15278:	01612823          	sw	s6,16(sp)
   1527c:	02112623          	sw	ra,44(sp)
   15280:	01279713          	sll	a4,a5,0x12
   15284:	00060b13          	mv	s6,a2
   15288:	0e075863          	bgez	a4,15378 <__sprint_r.part.0+0x108>
   1528c:	00862783          	lw	a5,8(a2)
   15290:	03212023          	sw	s2,32(sp)
   15294:	01312e23          	sw	s3,28(sp)
   15298:	01512a23          	sw	s5,20(sp)
   1529c:	01712623          	sw	s7,12(sp)
   152a0:	00058913          	mv	s2,a1
   152a4:	00062b83          	lw	s7,0(a2)
   152a8:	00050993          	mv	s3,a0
   152ac:	fff00a93          	li	s5,-1
   152b0:	0a078863          	beqz	a5,15360 <__sprint_r.part.0+0xf0>
   152b4:	02812423          	sw	s0,40(sp)
   152b8:	02912223          	sw	s1,36(sp)
   152bc:	01412c23          	sw	s4,24(sp)
   152c0:	01812423          	sw	s8,8(sp)
   152c4:	004bac03          	lw	s8,4(s7)
   152c8:	000ba403          	lw	s0,0(s7)
   152cc:	002c5a13          	srl	s4,s8,0x2
   152d0:	060a0663          	beqz	s4,1533c <__sprint_r.part.0+0xcc>
   152d4:	00000493          	li	s1,0
   152d8:	00c0006f          	j	152e4 <__sprint_r.part.0+0x74>
   152dc:	00440413          	add	s0,s0,4
   152e0:	049a0c63          	beq	s4,s1,15338 <__sprint_r.part.0+0xc8>
   152e4:	00042583          	lw	a1,0(s0)
   152e8:	00090613          	mv	a2,s2
   152ec:	00098513          	mv	a0,s3
   152f0:	6a8020ef          	jal	17998 <_fputwc_r>
   152f4:	00148493          	add	s1,s1,1
   152f8:	ff5512e3          	bne	a0,s5,152dc <__sprint_r.part.0+0x6c>
   152fc:	02812403          	lw	s0,40(sp)
   15300:	02412483          	lw	s1,36(sp)
   15304:	02012903          	lw	s2,32(sp)
   15308:	01c12983          	lw	s3,28(sp)
   1530c:	01812a03          	lw	s4,24(sp)
   15310:	01412a83          	lw	s5,20(sp)
   15314:	00c12b83          	lw	s7,12(sp)
   15318:	00812c03          	lw	s8,8(sp)
   1531c:	fff00513          	li	a0,-1
   15320:	02c12083          	lw	ra,44(sp)
   15324:	000b2423          	sw	zero,8(s6)
   15328:	000b2223          	sw	zero,4(s6)
   1532c:	01012b03          	lw	s6,16(sp)
   15330:	03010113          	add	sp,sp,48
   15334:	00008067          	ret
   15338:	008b2783          	lw	a5,8(s6)
   1533c:	ffcc7c13          	and	s8,s8,-4
   15340:	418787b3          	sub	a5,a5,s8
   15344:	00fb2423          	sw	a5,8(s6)
   15348:	008b8b93          	add	s7,s7,8
   1534c:	f6079ce3          	bnez	a5,152c4 <__sprint_r.part.0+0x54>
   15350:	02812403          	lw	s0,40(sp)
   15354:	02412483          	lw	s1,36(sp)
   15358:	01812a03          	lw	s4,24(sp)
   1535c:	00812c03          	lw	s8,8(sp)
   15360:	02012903          	lw	s2,32(sp)
   15364:	01c12983          	lw	s3,28(sp)
   15368:	01412a83          	lw	s5,20(sp)
   1536c:	00c12b83          	lw	s7,12(sp)
   15370:	00000513          	li	a0,0
   15374:	fadff06f          	j	15320 <__sprint_r.part.0+0xb0>
   15378:	66d010ef          	jal	171e4 <__sfvwrite_r>
   1537c:	02c12083          	lw	ra,44(sp)
   15380:	000b2423          	sw	zero,8(s6)
   15384:	000b2223          	sw	zero,4(s6)
   15388:	01012b03          	lw	s6,16(sp)
   1538c:	03010113          	add	sp,sp,48
   15390:	00008067          	ret

00015394 <__sprint_r>:
   15394:	00862703          	lw	a4,8(a2)
   15398:	00070463          	beqz	a4,153a0 <__sprint_r+0xc>
   1539c:	ed5ff06f          	j	15270 <__sprint_r.part.0>
   153a0:	00062223          	sw	zero,4(a2)
   153a4:	00000513          	li	a0,0
   153a8:	00008067          	ret

000153ac <_vfiprintf_r>:
   153ac:	eb010113          	add	sp,sp,-336
   153b0:	14812423          	sw	s0,328(sp)
   153b4:	13312e23          	sw	s3,316(sp)
   153b8:	13812423          	sw	s8,296(sp)
   153bc:	00050413          	mv	s0,a0
   153c0:	00058993          	mv	s3,a1
   153c4:	00060c13          	mv	s8,a2
   153c8:	00000593          	li	a1,0
   153cc:	00800613          	li	a2,8
   153d0:	05010513          	add	a0,sp,80
   153d4:	13512a23          	sw	s5,308(sp)
   153d8:	14112623          	sw	ra,332(sp)
   153dc:	00068a93          	mv	s5,a3
   153e0:	9c4fc0ef          	jal	115a4 <memset>
   153e4:	00040863          	beqz	s0,153f4 <_vfiprintf_r+0x48>
   153e8:	03442783          	lw	a5,52(s0)
   153ec:	00079463          	bnez	a5,153f4 <_vfiprintf_r+0x48>
   153f0:	4980106f          	j	16888 <_vfiprintf_r+0x14dc>
   153f4:	0649a703          	lw	a4,100(s3)
   153f8:	00c99783          	lh	a5,12(s3)
   153fc:	00177713          	and	a4,a4,1
   15400:	00071863          	bnez	a4,15410 <_vfiprintf_r+0x64>
   15404:	2007f713          	and	a4,a5,512
   15408:	00071463          	bnez	a4,15410 <_vfiprintf_r+0x64>
   1540c:	0b40106f          	j	164c0 <_vfiprintf_r+0x1114>
   15410:	01279713          	sll	a4,a5,0x12
   15414:	02074663          	bltz	a4,15440 <_vfiprintf_r+0x94>
   15418:	0649a703          	lw	a4,100(s3)
   1541c:	00002637          	lui	a2,0x2
   15420:	ffffe6b7          	lui	a3,0xffffe
   15424:	00c7e7b3          	or	a5,a5,a2
   15428:	fff68693          	add	a3,a3,-1 # ffffdfff <__BSS_END__+0xfffd90ef>
   1542c:	01079793          	sll	a5,a5,0x10
   15430:	4107d793          	sra	a5,a5,0x10
   15434:	00d77733          	and	a4,a4,a3
   15438:	00f99623          	sh	a5,12(s3)
   1543c:	06e9a223          	sw	a4,100(s3)
   15440:	0087f713          	and	a4,a5,8
   15444:	2e070263          	beqz	a4,15728 <_vfiprintf_r+0x37c>
   15448:	0109a703          	lw	a4,16(s3)
   1544c:	2c070e63          	beqz	a4,15728 <_vfiprintf_r+0x37c>
   15450:	01a7f713          	and	a4,a5,26
   15454:	00a00693          	li	a3,10
   15458:	2ed70a63          	beq	a4,a3,1574c <_vfiprintf_r+0x3a0>
   1545c:	13412c23          	sw	s4,312(sp)
   15460:	06c10a13          	add	s4,sp,108
   15464:	14912223          	sw	s1,324(sp)
   15468:	15212023          	sw	s2,320(sp)
   1546c:	13612823          	sw	s6,304(sp)
   15470:	13712623          	sw	s7,300(sp)
   15474:	13912223          	sw	s9,292(sp)
   15478:	13a12023          	sw	s10,288(sp)
   1547c:	000c0c93          	mv	s9,s8
   15480:	11b12e23          	sw	s11,284(sp)
   15484:	07412023          	sw	s4,96(sp)
   15488:	06012423          	sw	zero,104(sp)
   1548c:	06012223          	sw	zero,100(sp)
   15490:	00012a23          	sw	zero,20(sp)
   15494:	02012623          	sw	zero,44(sp)
   15498:	02012823          	sw	zero,48(sp)
   1549c:	02012a23          	sw	zero,52(sp)
   154a0:	00012623          	sw	zero,12(sp)
   154a4:	d3818493          	add	s1,gp,-712 # 24708 <__global_locale>
   154a8:	02500913          	li	s2,37
   154ac:	0000db97          	auipc	s7,0xd
   154b0:	2a0b8b93          	add	s7,s7,672 # 2274c <blanks.1+0x10>
   154b4:	0000db17          	auipc	s6,0xd
   154b8:	404b0b13          	add	s6,s6,1028 # 228b8 <zeroes.0>
   154bc:	000a0c13          	mv	s8,s4
   154c0:	000c8d93          	mv	s11,s9
   154c4:	0e44ad03          	lw	s10,228(s1)
   154c8:	50c030ef          	jal	189d4 <__locale_mb_cur_max>
   154cc:	00050693          	mv	a3,a0
   154d0:	05010713          	add	a4,sp,80
   154d4:	000d8613          	mv	a2,s11
   154d8:	04810593          	add	a1,sp,72
   154dc:	00040513          	mv	a0,s0
   154e0:	000d00e7          	jalr	s10
   154e4:	2e050e63          	beqz	a0,157e0 <_vfiprintf_r+0x434>
   154e8:	2c054e63          	bltz	a0,157c4 <_vfiprintf_r+0x418>
   154ec:	04812783          	lw	a5,72(sp)
   154f0:	01278663          	beq	a5,s2,154fc <_vfiprintf_r+0x150>
   154f4:	00ad8db3          	add	s11,s11,a0
   154f8:	fcdff06f          	j	154c4 <_vfiprintf_r+0x118>
   154fc:	00050d13          	mv	s10,a0
   15500:	419d87b3          	sub	a5,s11,s9
   15504:	2f9d9463          	bne	s11,s9,157ec <_vfiprintf_r+0x440>
   15508:	00000e13          	li	t3,0
   1550c:	001dc683          	lbu	a3,1(s11)
   15510:	001d8c93          	add	s9,s11,1
   15514:	040101a3          	sb	zero,67(sp)
   15518:	fff00713          	li	a4,-1
   1551c:	00000893          	li	a7,0
   15520:	05a00d13          	li	s10,90
   15524:	000e0d93          	mv	s11,t3
   15528:	001c8c93          	add	s9,s9,1
   1552c:	fe068793          	add	a5,a3,-32
   15530:	04fd6663          	bltu	s10,a5,1557c <_vfiprintf_r+0x1d0>
   15534:	00279793          	sll	a5,a5,0x2
   15538:	017787b3          	add	a5,a5,s7
   1553c:	0007a783          	lw	a5,0(a5)
   15540:	017787b3          	add	a5,a5,s7
   15544:	00078067          	jr	a5
   15548:	00000893          	li	a7,0
   1554c:	fd068793          	add	a5,a3,-48
   15550:	00900593          	li	a1,9
   15554:	000cc683          	lbu	a3,0(s9)
   15558:	00289613          	sll	a2,a7,0x2
   1555c:	011608b3          	add	a7,a2,a7
   15560:	00189893          	sll	a7,a7,0x1
   15564:	011788b3          	add	a7,a5,a7
   15568:	fd068793          	add	a5,a3,-48
   1556c:	001c8c93          	add	s9,s9,1
   15570:	fef5f2e3          	bgeu	a1,a5,15554 <_vfiprintf_r+0x1a8>
   15574:	fe068793          	add	a5,a3,-32
   15578:	fafd7ee3          	bgeu	s10,a5,15534 <_vfiprintf_r+0x188>
   1557c:	000d8e13          	mv	t3,s11
   15580:	2c068663          	beqz	a3,1584c <_vfiprintf_r+0x4a0>
   15584:	0ad10623          	sb	a3,172(sp)
   15588:	040101a3          	sb	zero,67(sp)
   1558c:	00100e93          	li	t4,1
   15590:	00100d13          	li	s10,1
   15594:	0ac10813          	add	a6,sp,172
   15598:	00012823          	sw	zero,16(sp)
   1559c:	00000713          	li	a4,0
   155a0:	00000f93          	li	t6,0
   155a4:	06412603          	lw	a2,100(sp)
   155a8:	084e7293          	and	t0,t3,132
   155ac:	06812783          	lw	a5,104(sp)
   155b0:	00160593          	add	a1,a2,1 # 2001 <exit-0xe093>
   155b4:	00058f13          	mv	t5,a1
   155b8:	00029663          	bnez	t0,155c4 <_vfiprintf_r+0x218>
   155bc:	41d88db3          	sub	s11,a7,t4
   155c0:	47b046e3          	bgtz	s11,1622c <_vfiprintf_r+0xe80>
   155c4:	04314583          	lbu	a1,67(sp)
   155c8:	02058a63          	beqz	a1,155fc <_vfiprintf_r+0x250>
   155cc:	04310613          	add	a2,sp,67
   155d0:	00178793          	add	a5,a5,1
   155d4:	00100693          	li	a3,1
   155d8:	00cc2023          	sw	a2,0(s8)
   155dc:	00dc2223          	sw	a3,4(s8)
   155e0:	06f12423          	sw	a5,104(sp)
   155e4:	07e12223          	sw	t5,100(sp)
   155e8:	00700613          	li	a2,7
   155ec:	35e64ce3          	blt	a2,t5,16144 <_vfiprintf_r+0xd98>
   155f0:	000f0613          	mv	a2,t5
   155f4:	008c0c13          	add	s8,s8,8
   155f8:	001f0f13          	add	t5,t5,1
   155fc:	080f8063          	beqz	t6,1567c <_vfiprintf_r+0x2d0>
   15600:	00200613          	li	a2,2
   15604:	00278793          	add	a5,a5,2
   15608:	04410693          	add	a3,sp,68
   1560c:	00cc2223          	sw	a2,4(s8)
   15610:	00dc2023          	sw	a3,0(s8)
   15614:	06f12423          	sw	a5,104(sp)
   15618:	07e12223          	sw	t5,100(sp)
   1561c:	00700613          	li	a2,7
   15620:	3be652e3          	bge	a2,t5,161c4 <_vfiprintf_r+0xe18>
   15624:	60078ae3          	beqz	a5,16438 <_vfiprintf_r+0x108c>
   15628:	06010613          	add	a2,sp,96
   1562c:	00098593          	mv	a1,s3
   15630:	00040513          	mv	a0,s0
   15634:	03d12c23          	sw	t4,56(sp)
   15638:	02e12423          	sw	a4,40(sp)
   1563c:	03112223          	sw	a7,36(sp)
   15640:	03012023          	sw	a6,32(sp)
   15644:	00512e23          	sw	t0,28(sp)
   15648:	01c12c23          	sw	t3,24(sp)
   1564c:	c25ff0ef          	jal	15270 <__sprint_r.part.0>
   15650:	22051463          	bnez	a0,15878 <_vfiprintf_r+0x4cc>
   15654:	06412603          	lw	a2,100(sp)
   15658:	06812783          	lw	a5,104(sp)
   1565c:	03812e83          	lw	t4,56(sp)
   15660:	02812703          	lw	a4,40(sp)
   15664:	02412883          	lw	a7,36(sp)
   15668:	02012803          	lw	a6,32(sp)
   1566c:	01c12283          	lw	t0,28(sp)
   15670:	01812e03          	lw	t3,24(sp)
   15674:	000a0c13          	mv	s8,s4
   15678:	00160f13          	add	t5,a2,1
   1567c:	08000593          	li	a1,128
   15680:	06b286e3          	beq	t0,a1,15eec <_vfiprintf_r+0xb40>
   15684:	41a70733          	sub	a4,a4,s10
   15688:	1ae04ae3          	bgtz	a4,1603c <_vfiprintf_r+0xc90>
   1568c:	00fd07b3          	add	a5,s10,a5
   15690:	010c2023          	sw	a6,0(s8)
   15694:	01ac2223          	sw	s10,4(s8)
   15698:	06f12423          	sw	a5,104(sp)
   1569c:	07e12223          	sw	t5,100(sp)
   156a0:	00700713          	li	a4,7
   156a4:	03e758e3          	bge	a4,t5,15ed4 <_vfiprintf_r+0xb28>
   156a8:	24078063          	beqz	a5,158e8 <_vfiprintf_r+0x53c>
   156ac:	06010613          	add	a2,sp,96
   156b0:	00098593          	mv	a1,s3
   156b4:	00040513          	mv	a0,s0
   156b8:	03d12023          	sw	t4,32(sp)
   156bc:	01112e23          	sw	a7,28(sp)
   156c0:	01c12c23          	sw	t3,24(sp)
   156c4:	badff0ef          	jal	15270 <__sprint_r.part.0>
   156c8:	1a051863          	bnez	a0,15878 <_vfiprintf_r+0x4cc>
   156cc:	06812783          	lw	a5,104(sp)
   156d0:	02012e83          	lw	t4,32(sp)
   156d4:	01c12883          	lw	a7,28(sp)
   156d8:	01812e03          	lw	t3,24(sp)
   156dc:	000a0c13          	mv	s8,s4
   156e0:	004e7e13          	and	t3,t3,4
   156e4:	000e0663          	beqz	t3,156f0 <_vfiprintf_r+0x344>
   156e8:	41d88db3          	sub	s11,a7,t4
   156ec:	21b04a63          	bgtz	s11,15900 <_vfiprintf_r+0x554>
   156f0:	01d8d463          	bge	a7,t4,156f8 <_vfiprintf_r+0x34c>
   156f4:	000e8893          	mv	a7,t4
   156f8:	00c12703          	lw	a4,12(sp)
   156fc:	01170733          	add	a4,a4,a7
   15700:	00e12623          	sw	a4,12(sp)
   15704:	16079063          	bnez	a5,15864 <_vfiprintf_r+0x4b8>
   15708:	01012783          	lw	a5,16(sp)
   1570c:	06012223          	sw	zero,100(sp)
   15710:	00078863          	beqz	a5,15720 <_vfiprintf_r+0x374>
   15714:	00078593          	mv	a1,a5
   15718:	00040513          	mv	a0,s0
   1571c:	ad0fc0ef          	jal	119ec <_free_r>
   15720:	000a0c13          	mv	s8,s4
   15724:	d9dff06f          	j	154c0 <_vfiprintf_r+0x114>
   15728:	00098593          	mv	a1,s3
   1572c:	00040513          	mv	a0,s0
   15730:	7c9010ef          	jal	176f8 <__swsetup_r>
   15734:	00050463          	beqz	a0,1573c <_vfiprintf_r+0x390>
   15738:	3840106f          	j	16abc <_vfiprintf_r+0x1710>
   1573c:	00c99783          	lh	a5,12(s3)
   15740:	00a00693          	li	a3,10
   15744:	01a7f713          	and	a4,a5,26
   15748:	d0d71ae3          	bne	a4,a3,1545c <_vfiprintf_r+0xb0>
   1574c:	00e99703          	lh	a4,14(s3)
   15750:	d00746e3          	bltz	a4,1545c <_vfiprintf_r+0xb0>
   15754:	0649a703          	lw	a4,100(s3)
   15758:	00177713          	and	a4,a4,1
   1575c:	00071863          	bnez	a4,1576c <_vfiprintf_r+0x3c0>
   15760:	2007f793          	and	a5,a5,512
   15764:	00079463          	bnez	a5,1576c <_vfiprintf_r+0x3c0>
   15768:	2ac0106f          	j	16a14 <_vfiprintf_r+0x1668>
   1576c:	000a8693          	mv	a3,s5
   15770:	000c0613          	mv	a2,s8
   15774:	00098593          	mv	a1,s3
   15778:	00040513          	mv	a0,s0
   1577c:	3f8010ef          	jal	16b74 <__sbprintf>
   15780:	14c12083          	lw	ra,332(sp)
   15784:	14812403          	lw	s0,328(sp)
   15788:	00a12623          	sw	a0,12(sp)
   1578c:	00c12503          	lw	a0,12(sp)
   15790:	13c12983          	lw	s3,316(sp)
   15794:	13412a83          	lw	s5,308(sp)
   15798:	12812c03          	lw	s8,296(sp)
   1579c:	15010113          	add	sp,sp,336
   157a0:	00008067          	ret
   157a4:	000aa883          	lw	a7,0(s5)
   157a8:	004a8a93          	add	s5,s5,4
   157ac:	3608cc63          	bltz	a7,15b24 <_vfiprintf_r+0x778>
   157b0:	000cc683          	lbu	a3,0(s9)
   157b4:	d75ff06f          	j	15528 <_vfiprintf_r+0x17c>
   157b8:	000cc683          	lbu	a3,0(s9)
   157bc:	020ded93          	or	s11,s11,32
   157c0:	d69ff06f          	j	15528 <_vfiprintf_r+0x17c>
   157c4:	00800613          	li	a2,8
   157c8:	00000593          	li	a1,0
   157cc:	05010513          	add	a0,sp,80
   157d0:	dd5fb0ef          	jal	115a4 <memset>
   157d4:	00100513          	li	a0,1
   157d8:	00ad8db3          	add	s11,s11,a0
   157dc:	ce9ff06f          	j	154c4 <_vfiprintf_r+0x118>
   157e0:	00050d13          	mv	s10,a0
   157e4:	419d87b3          	sub	a5,s11,s9
   157e8:	079d8263          	beq	s11,s9,1584c <_vfiprintf_r+0x4a0>
   157ec:	06812683          	lw	a3,104(sp)
   157f0:	06412703          	lw	a4,100(sp)
   157f4:	019c2023          	sw	s9,0(s8)
   157f8:	00d786b3          	add	a3,a5,a3
   157fc:	00170713          	add	a4,a4,1
   15800:	00fc2223          	sw	a5,4(s8)
   15804:	06d12423          	sw	a3,104(sp)
   15808:	06e12223          	sw	a4,100(sp)
   1580c:	00700613          	li	a2,7
   15810:	008c0c13          	add	s8,s8,8
   15814:	02e65463          	bge	a2,a4,1583c <_vfiprintf_r+0x490>
   15818:	38068ce3          	beqz	a3,163b0 <_vfiprintf_r+0x1004>
   1581c:	06010613          	add	a2,sp,96
   15820:	00098593          	mv	a1,s3
   15824:	00040513          	mv	a0,s0
   15828:	00f12823          	sw	a5,16(sp)
   1582c:	a45ff0ef          	jal	15270 <__sprint_r.part.0>
   15830:	01012783          	lw	a5,16(sp)
   15834:	04051c63          	bnez	a0,1588c <_vfiprintf_r+0x4e0>
   15838:	000a0c13          	mv	s8,s4
   1583c:	00c12703          	lw	a4,12(sp)
   15840:	00f707b3          	add	a5,a4,a5
   15844:	00f12623          	sw	a5,12(sp)
   15848:	cc0d10e3          	bnez	s10,15508 <_vfiprintf_r+0x15c>
   1584c:	06812783          	lw	a5,104(sp)
   15850:	00078463          	beqz	a5,15858 <_vfiprintf_r+0x4ac>
   15854:	22c0106f          	j	16a80 <_vfiprintf_r+0x16d4>
   15858:	00c99783          	lh	a5,12(s3)
   1585c:	06012223          	sw	zero,100(sp)
   15860:	0300006f          	j	15890 <_vfiprintf_r+0x4e4>
   15864:	06010613          	add	a2,sp,96
   15868:	00098593          	mv	a1,s3
   1586c:	00040513          	mv	a0,s0
   15870:	a01ff0ef          	jal	15270 <__sprint_r.part.0>
   15874:	e8050ae3          	beqz	a0,15708 <_vfiprintf_r+0x35c>
   15878:	01012783          	lw	a5,16(sp)
   1587c:	00078863          	beqz	a5,1588c <_vfiprintf_r+0x4e0>
   15880:	01012583          	lw	a1,16(sp)
   15884:	00040513          	mv	a0,s0
   15888:	964fc0ef          	jal	119ec <_free_r>
   1588c:	00c99783          	lh	a5,12(s3)
   15890:	0649a703          	lw	a4,100(s3)
   15894:	00177713          	and	a4,a4,1
   15898:	16070a63          	beqz	a4,15a0c <_vfiprintf_r+0x660>
   1589c:	0407f793          	and	a5,a5,64
   158a0:	14412483          	lw	s1,324(sp)
   158a4:	14012903          	lw	s2,320(sp)
   158a8:	13812a03          	lw	s4,312(sp)
   158ac:	13012b03          	lw	s6,304(sp)
   158b0:	12c12b83          	lw	s7,300(sp)
   158b4:	12412c83          	lw	s9,292(sp)
   158b8:	12012d03          	lw	s10,288(sp)
   158bc:	11c12d83          	lw	s11,284(sp)
   158c0:	00078463          	beqz	a5,158c8 <_vfiprintf_r+0x51c>
   158c4:	2180106f          	j	16adc <_vfiprintf_r+0x1730>
   158c8:	14c12083          	lw	ra,332(sp)
   158cc:	14812403          	lw	s0,328(sp)
   158d0:	00c12503          	lw	a0,12(sp)
   158d4:	13c12983          	lw	s3,316(sp)
   158d8:	13412a83          	lw	s5,308(sp)
   158dc:	12812c03          	lw	s8,296(sp)
   158e0:	15010113          	add	sp,sp,336
   158e4:	00008067          	ret
   158e8:	06012223          	sw	zero,100(sp)
   158ec:	004e7e13          	and	t3,t3,4
   158f0:	240e0ee3          	beqz	t3,1634c <_vfiprintf_r+0xfa0>
   158f4:	41d88db3          	sub	s11,a7,t4
   158f8:	25b05ae3          	blez	s11,1634c <_vfiprintf_r+0xfa0>
   158fc:	000a0c13          	mv	s8,s4
   15900:	01000713          	li	a4,16
   15904:	06412683          	lw	a3,100(sp)
   15908:	01b74463          	blt	a4,s11,15910 <_vfiprintf_r+0x564>
   1590c:	1900106f          	j	16a9c <_vfiprintf_r+0x16f0>
   15910:	000a8713          	mv	a4,s5
   15914:	0000d317          	auipc	t1,0xd
   15918:	fb430313          	add	t1,t1,-76 # 228c8 <blanks.1>
   1591c:	000c0593          	mv	a1,s8
   15920:	000d8a93          	mv	s5,s11
   15924:	01000813          	li	a6,16
   15928:	00700d13          	li	s10,7
   1592c:	01112c23          	sw	a7,24(sp)
   15930:	01d12e23          	sw	t4,28(sp)
   15934:	00030c13          	mv	s8,t1
   15938:	00070d93          	mv	s11,a4
   1593c:	0180006f          	j	15954 <_vfiprintf_r+0x5a8>
   15940:	00268613          	add	a2,a3,2
   15944:	00858593          	add	a1,a1,8
   15948:	00070693          	mv	a3,a4
   1594c:	ff0a8a93          	add	s5,s5,-16
   15950:	05585a63          	bge	a6,s5,159a4 <_vfiprintf_r+0x5f8>
   15954:	01078793          	add	a5,a5,16
   15958:	00168713          	add	a4,a3,1
   1595c:	0185a023          	sw	s8,0(a1)
   15960:	0105a223          	sw	a6,4(a1)
   15964:	06f12423          	sw	a5,104(sp)
   15968:	06e12223          	sw	a4,100(sp)
   1596c:	fced5ae3          	bge	s10,a4,15940 <_vfiprintf_r+0x594>
   15970:	56078663          	beqz	a5,15edc <_vfiprintf_r+0xb30>
   15974:	06010613          	add	a2,sp,96
   15978:	00098593          	mv	a1,s3
   1597c:	00040513          	mv	a0,s0
   15980:	8f1ff0ef          	jal	15270 <__sprint_r.part.0>
   15984:	ee051ae3          	bnez	a0,15878 <_vfiprintf_r+0x4cc>
   15988:	06412683          	lw	a3,100(sp)
   1598c:	01000813          	li	a6,16
   15990:	ff0a8a93          	add	s5,s5,-16
   15994:	06812783          	lw	a5,104(sp)
   15998:	000a0593          	mv	a1,s4
   1599c:	00168613          	add	a2,a3,1
   159a0:	fb584ae3          	blt	a6,s5,15954 <_vfiprintf_r+0x5a8>
   159a4:	01812883          	lw	a7,24(sp)
   159a8:	01c12e83          	lw	t4,28(sp)
   159ac:	000d8713          	mv	a4,s11
   159b0:	000c0313          	mv	t1,s8
   159b4:	000a8d93          	mv	s11,s5
   159b8:	00058c13          	mv	s8,a1
   159bc:	00070a93          	mv	s5,a4
   159c0:	01b787b3          	add	a5,a5,s11
   159c4:	006c2023          	sw	t1,0(s8)
   159c8:	01bc2223          	sw	s11,4(s8)
   159cc:	06f12423          	sw	a5,104(sp)
   159d0:	06c12223          	sw	a2,100(sp)
   159d4:	00700713          	li	a4,7
   159d8:	d0c75ce3          	bge	a4,a2,156f0 <_vfiprintf_r+0x344>
   159dc:	160788e3          	beqz	a5,1634c <_vfiprintf_r+0xfa0>
   159e0:	06010613          	add	a2,sp,96
   159e4:	00098593          	mv	a1,s3
   159e8:	00040513          	mv	a0,s0
   159ec:	01d12e23          	sw	t4,28(sp)
   159f0:	01112c23          	sw	a7,24(sp)
   159f4:	87dff0ef          	jal	15270 <__sprint_r.part.0>
   159f8:	e80510e3          	bnez	a0,15878 <_vfiprintf_r+0x4cc>
   159fc:	06812783          	lw	a5,104(sp)
   15a00:	01c12e83          	lw	t4,28(sp)
   15a04:	01812883          	lw	a7,24(sp)
   15a08:	ce9ff06f          	j	156f0 <_vfiprintf_r+0x344>
   15a0c:	2007f713          	and	a4,a5,512
   15a10:	e80716e3          	bnez	a4,1589c <_vfiprintf_r+0x4f0>
   15a14:	0589a503          	lw	a0,88(s3)
   15a18:	b89fb0ef          	jal	115a0 <__retarget_lock_release_recursive>
   15a1c:	00c99783          	lh	a5,12(s3)
   15a20:	e7dff06f          	j	1589c <_vfiprintf_r+0x4f0>
   15a24:	000aa803          	lw	a6,0(s5)
   15a28:	040101a3          	sb	zero,67(sp)
   15a2c:	000d8e13          	mv	t3,s11
   15a30:	004a8a93          	add	s5,s5,4
   15a34:	68080ae3          	beqz	a6,168c8 <_vfiprintf_r+0x151c>
   15a38:	05300793          	li	a5,83
   15a3c:	3cf68ce3          	beq	a3,a5,16614 <_vfiprintf_r+0x1268>
   15a40:	010df793          	and	a5,s11,16
   15a44:	3c0798e3          	bnez	a5,16614 <_vfiprintf_r+0x1268>
   15a48:	00075463          	bgez	a4,15a50 <_vfiprintf_r+0x6a4>
   15a4c:	7fd0006f          	j	16a48 <_vfiprintf_r+0x169c>
   15a50:	00070613          	mv	a2,a4
   15a54:	00080513          	mv	a0,a6
   15a58:	00000593          	li	a1,0
   15a5c:	03112223          	sw	a7,36(sp)
   15a60:	00e12e23          	sw	a4,28(sp)
   15a64:	01012c23          	sw	a6,24(sp)
   15a68:	03b12023          	sw	s11,32(sp)
   15a6c:	0e8020ef          	jal	17b54 <memchr>
   15a70:	00a12823          	sw	a0,16(sp)
   15a74:	01812803          	lw	a6,24(sp)
   15a78:	01c12703          	lw	a4,28(sp)
   15a7c:	02012e03          	lw	t3,32(sp)
   15a80:	02412883          	lw	a7,36(sp)
   15a84:	00051463          	bnez	a0,15a8c <_vfiprintf_r+0x6e0>
   15a88:	7990006f          	j	16a20 <_vfiprintf_r+0x1674>
   15a8c:	41050d33          	sub	s10,a0,a6
   15a90:	fffd4e93          	not	t4,s10
   15a94:	41fede93          	sra	t4,t4,0x1f
   15a98:	01dd7eb3          	and	t4,s10,t4
   15a9c:	00012823          	sw	zero,16(sp)
   15aa0:	6dd0006f          	j	1697c <_vfiprintf_r+0x15d0>
   15aa4:	04300793          	li	a5,67
   15aa8:	000d8e13          	mv	t3,s11
   15aac:	004a8d93          	add	s11,s5,4
   15ab0:	00f68663          	beq	a3,a5,15abc <_vfiprintf_r+0x710>
   15ab4:	010e7793          	and	a5,t3,16
   15ab8:	280788e3          	beqz	a5,16548 <_vfiprintf_r+0x119c>
   15abc:	00800613          	li	a2,8
   15ac0:	00000593          	li	a1,0
   15ac4:	05810513          	add	a0,sp,88
   15ac8:	01112e23          	sw	a7,28(sp)
   15acc:	01c12c23          	sw	t3,24(sp)
   15ad0:	ad5fb0ef          	jal	115a4 <memset>
   15ad4:	000aa603          	lw	a2,0(s5)
   15ad8:	0ac10593          	add	a1,sp,172
   15adc:	05810693          	add	a3,sp,88
   15ae0:	00040513          	mv	a0,s0
   15ae4:	00b12823          	sw	a1,16(sp)
   15ae8:	6b0070ef          	jal	1d198 <_wcrtomb_r>
   15aec:	fff00793          	li	a5,-1
   15af0:	01012583          	lw	a1,16(sp)
   15af4:	01812e03          	lw	t3,24(sp)
   15af8:	01c12883          	lw	a7,28(sp)
   15afc:	00050d13          	mv	s10,a0
   15b00:	00f51463          	bne	a0,a5,15b08 <_vfiprintf_r+0x75c>
   15b04:	0200106f          	j	16b24 <_vfiprintf_r+0x1778>
   15b08:	fff54e93          	not	t4,a0
   15b0c:	41fede93          	sra	t4,t4,0x1f
   15b10:	01d57eb3          	and	t4,a0,t4
   15b14:	040101a3          	sb	zero,67(sp)
   15b18:	000d8a93          	mv	s5,s11
   15b1c:	00058813          	mv	a6,a1
   15b20:	a79ff06f          	j	15598 <_vfiprintf_r+0x1ec>
   15b24:	411008b3          	neg	a7,a7
   15b28:	000cc683          	lbu	a3,0(s9)
   15b2c:	004ded93          	or	s11,s11,4
   15b30:	9f9ff06f          	j	15528 <_vfiprintf_r+0x17c>
   15b34:	010dee13          	or	t3,s11,16
   15b38:	020e7793          	and	a5,t3,32
   15b3c:	0c0788e3          	beqz	a5,1640c <_vfiprintf_r+0x1060>
   15b40:	007a8a93          	add	s5,s5,7
   15b44:	ff8afa93          	and	s5,s5,-8
   15b48:	004aa683          	lw	a3,4(s5)
   15b4c:	000aad83          	lw	s11,0(s5)
   15b50:	008a8a93          	add	s5,s5,8
   15b54:	00068d13          	mv	s10,a3
   15b58:	3006c263          	bltz	a3,15e5c <_vfiprintf_r+0xab0>
   15b5c:	32074063          	bltz	a4,15e7c <_vfiprintf_r+0xad0>
   15b60:	01ade6b3          	or	a3,s11,s10
   15b64:	f7fe7e13          	and	t3,t3,-129
   15b68:	30069a63          	bnez	a3,15e7c <_vfiprintf_r+0xad0>
   15b6c:	68071ae3          	bnez	a4,16a00 <_vfiprintf_r+0x1654>
   15b70:	04314783          	lbu	a5,67(sp)
   15b74:	00012823          	sw	zero,16(sp)
   15b78:	00000e93          	li	t4,0
   15b7c:	00000d13          	li	s10,0
   15b80:	11010813          	add	a6,sp,272
   15b84:	00078463          	beqz	a5,15b8c <_vfiprintf_r+0x7e0>
   15b88:	001e8e93          	add	t4,t4,1
   15b8c:	002e7f93          	and	t6,t3,2
   15b90:	a00f8ae3          	beqz	t6,155a4 <_vfiprintf_r+0x1f8>
   15b94:	002e8e93          	add	t4,t4,2
   15b98:	00200f93          	li	t6,2
   15b9c:	a09ff06f          	j	155a4 <_vfiprintf_r+0x1f8>
   15ba0:	000cc683          	lbu	a3,0(s9)
   15ba4:	06800793          	li	a5,104
   15ba8:	4ef686e3          	beq	a3,a5,16894 <_vfiprintf_r+0x14e8>
   15bac:	040ded93          	or	s11,s11,64
   15bb0:	979ff06f          	j	15528 <_vfiprintf_r+0x17c>
   15bb4:	010de613          	or	a2,s11,16
   15bb8:	02067793          	and	a5,a2,32
   15bbc:	000780e3          	beqz	a5,163bc <_vfiprintf_r+0x1010>
   15bc0:	007a8a93          	add	s5,s5,7
   15bc4:	ff8afa93          	and	s5,s5,-8
   15bc8:	000aad83          	lw	s11,0(s5)
   15bcc:	004aad03          	lw	s10,4(s5)
   15bd0:	008a8a93          	add	s5,s5,8
   15bd4:	040101a3          	sb	zero,67(sp)
   15bd8:	00060e13          	mv	t3,a2
   15bdc:	2a074063          	bltz	a4,15e7c <_vfiprintf_r+0xad0>
   15be0:	01ade6b3          	or	a3,s11,s10
   15be4:	f7f67e13          	and	t3,a2,-129
   15be8:	28069a63          	bnez	a3,15e7c <_vfiprintf_r+0xad0>
   15bec:	00100793          	li	a5,1
   15bf0:	06071e63          	bnez	a4,15c6c <_vfiprintf_r+0x8c0>
   15bf4:	f6079ee3          	bnez	a5,15b70 <_vfiprintf_r+0x7c4>
   15bf8:	00167d13          	and	s10,a2,1
   15bfc:	0a0d0ce3          	beqz	s10,164b4 <_vfiprintf_r+0x1108>
   15c00:	03000793          	li	a5,48
   15c04:	10f107a3          	sb	a5,271(sp)
   15c08:	000d0e93          	mv	t4,s10
   15c0c:	10f10813          	add	a6,sp,271
   15c10:	2980006f          	j	15ea8 <_vfiprintf_r+0xafc>
   15c14:	02b00793          	li	a5,43
   15c18:	000cc683          	lbu	a3,0(s9)
   15c1c:	04f101a3          	sb	a5,67(sp)
   15c20:	909ff06f          	j	15528 <_vfiprintf_r+0x17c>
   15c24:	010de693          	or	a3,s11,16
   15c28:	0206f793          	and	a5,a3,32
   15c2c:	7a078c63          	beqz	a5,163e4 <_vfiprintf_r+0x1038>
   15c30:	007a8a93          	add	s5,s5,7
   15c34:	ff8afa93          	and	s5,s5,-8
   15c38:	000aa783          	lw	a5,0(s5)
   15c3c:	004aa583          	lw	a1,4(s5)
   15c40:	008a8a93          	add	s5,s5,8
   15c44:	040101a3          	sb	zero,67(sp)
   15c48:	bff6fe13          	and	t3,a3,-1025
   15c4c:	02074c63          	bltz	a4,15c84 <_vfiprintf_r+0x8d8>
   15c50:	00b7e633          	or	a2,a5,a1
   15c54:	b7f6f693          	and	a3,a3,-1153
   15c58:	420610e3          	bnez	a2,16878 <_vfiprintf_r+0x14cc>
   15c5c:	000e0613          	mv	a2,t3
   15c60:	00000793          	li	a5,0
   15c64:	00068e13          	mv	t3,a3
   15c68:	f80706e3          	beqz	a4,15bf4 <_vfiprintf_r+0x848>
   15c6c:	00100693          	li	a3,1
   15c70:	58d788e3          	beq	a5,a3,16a00 <_vfiprintf_r+0x1654>
   15c74:	00200693          	li	a3,2
   15c78:	46d786e3          	beq	a5,a3,168e4 <_vfiprintf_r+0x1538>
   15c7c:	00000793          	li	a5,0
   15c80:	00000593          	li	a1,0
   15c84:	11010813          	add	a6,sp,272
   15c88:	01d59613          	sll	a2,a1,0x1d
   15c8c:	0077f693          	and	a3,a5,7
   15c90:	0037d793          	srl	a5,a5,0x3
   15c94:	03068693          	add	a3,a3,48
   15c98:	00f667b3          	or	a5,a2,a5
   15c9c:	0035d593          	srl	a1,a1,0x3
   15ca0:	fed80fa3          	sb	a3,-1(a6)
   15ca4:	00b7e633          	or	a2,a5,a1
   15ca8:	00080513          	mv	a0,a6
   15cac:	fff80813          	add	a6,a6,-1
   15cb0:	fc061ce3          	bnez	a2,15c88 <_vfiprintf_r+0x8dc>
   15cb4:	001e7793          	and	a5,t3,1
   15cb8:	54078e63          	beqz	a5,16214 <_vfiprintf_r+0xe68>
   15cbc:	03000793          	li	a5,48
   15cc0:	54f68a63          	beq	a3,a5,16214 <_vfiprintf_r+0xe68>
   15cc4:	ffe50513          	add	a0,a0,-2
   15cc8:	fef80fa3          	sb	a5,-1(a6)
   15ccc:	11010793          	add	a5,sp,272
   15cd0:	40a78d33          	sub	s10,a5,a0
   15cd4:	00070e93          	mv	t4,a4
   15cd8:	09a744e3          	blt	a4,s10,16560 <_vfiprintf_r+0x11b4>
   15cdc:	00050813          	mv	a6,a0
   15ce0:	1c80006f          	j	15ea8 <_vfiprintf_r+0xafc>
   15ce4:	000086b7          	lui	a3,0x8
   15ce8:	83068693          	add	a3,a3,-2000 # 7830 <exit-0x8864>
   15cec:	04d11223          	sh	a3,68(sp)
   15cf0:	0000c697          	auipc	a3,0xc
   15cf4:	56c68693          	add	a3,a3,1388 # 2225c <__clzsi2+0xb8>
   15cf8:	000aa783          	lw	a5,0(s5)
   15cfc:	00000593          	li	a1,0
   15d00:	002dee13          	or	t3,s11,2
   15d04:	004a8a93          	add	s5,s5,4
   15d08:	00d12a23          	sw	a3,20(sp)
   15d0c:	040101a3          	sb	zero,67(sp)
   15d10:	4c074863          	bltz	a4,161e0 <_vfiprintf_r+0xe34>
   15d14:	00b7e6b3          	or	a3,a5,a1
   15d18:	f7fe7513          	and	a0,t3,-129
   15d1c:	4a069c63          	bnez	a3,161d4 <_vfiprintf_r+0xe28>
   15d20:	000e0613          	mv	a2,t3
   15d24:	00200793          	li	a5,2
   15d28:	00050e13          	mv	t3,a0
   15d2c:	ec5ff06f          	j	15bf0 <_vfiprintf_r+0x844>
   15d30:	00040513          	mv	a0,s0
   15d34:	00e12c23          	sw	a4,24(sp)
   15d38:	01112823          	sw	a7,16(sp)
   15d3c:	4b9020ef          	jal	189f4 <_localeconv_r>
   15d40:	00452783          	lw	a5,4(a0)
   15d44:	00078513          	mv	a0,a5
   15d48:	02f12a23          	sw	a5,52(sp)
   15d4c:	7b9020ef          	jal	18d04 <strlen>
   15d50:	00050793          	mv	a5,a0
   15d54:	00040513          	mv	a0,s0
   15d58:	02f12823          	sw	a5,48(sp)
   15d5c:	499020ef          	jal	189f4 <_localeconv_r>
   15d60:	00852703          	lw	a4,8(a0)
   15d64:	03012783          	lw	a5,48(sp)
   15d68:	01012883          	lw	a7,16(sp)
   15d6c:	02e12623          	sw	a4,44(sp)
   15d70:	01812703          	lw	a4,24(sp)
   15d74:	a2078ee3          	beqz	a5,157b0 <_vfiprintf_r+0x404>
   15d78:	02c12783          	lw	a5,44(sp)
   15d7c:	000cc683          	lbu	a3,0(s9)
   15d80:	fa078463          	beqz	a5,15528 <_vfiprintf_r+0x17c>
   15d84:	0007c783          	lbu	a5,0(a5)
   15d88:	fa078063          	beqz	a5,15528 <_vfiprintf_r+0x17c>
   15d8c:	400ded93          	or	s11,s11,1024
   15d90:	f98ff06f          	j	15528 <_vfiprintf_r+0x17c>
   15d94:	020df793          	and	a5,s11,32
   15d98:	78079263          	bnez	a5,1651c <_vfiprintf_r+0x1170>
   15d9c:	010df793          	and	a5,s11,16
   15da0:	30079ae3          	bnez	a5,168b4 <_vfiprintf_r+0x1508>
   15da4:	040df793          	and	a5,s11,64
   15da8:	400796e3          	bnez	a5,169b4 <_vfiprintf_r+0x1608>
   15dac:	200dfe13          	and	t3,s11,512
   15db0:	300e02e3          	beqz	t3,168b4 <_vfiprintf_r+0x1508>
   15db4:	000aa783          	lw	a5,0(s5)
   15db8:	00c12703          	lw	a4,12(sp)
   15dbc:	004a8a93          	add	s5,s5,4
   15dc0:	00e78023          	sb	a4,0(a5)
   15dc4:	efcff06f          	j	154c0 <_vfiprintf_r+0x114>
   15dc8:	000cc683          	lbu	a3,0(s9)
   15dcc:	06c00793          	li	a5,108
   15dd0:	2cf68ae3          	beq	a3,a5,168a4 <_vfiprintf_r+0x14f8>
   15dd4:	010ded93          	or	s11,s11,16
   15dd8:	f50ff06f          	j	15528 <_vfiprintf_r+0x17c>
   15ddc:	000cc683          	lbu	a3,0(s9)
   15de0:	080ded93          	or	s11,s11,128
   15de4:	f44ff06f          	j	15528 <_vfiprintf_r+0x17c>
   15de8:	000cc683          	lbu	a3,0(s9)
   15dec:	02a00793          	li	a5,42
   15df0:	001c8593          	add	a1,s9,1
   15df4:	54f680e3          	beq	a3,a5,16b34 <_vfiprintf_r+0x1788>
   15df8:	fd068793          	add	a5,a3,-48
   15dfc:	00900613          	li	a2,9
   15e00:	00000713          	li	a4,0
   15e04:	00900513          	li	a0,9
   15e08:	02f66463          	bltu	a2,a5,15e30 <_vfiprintf_r+0xa84>
   15e0c:	0005c683          	lbu	a3,0(a1)
   15e10:	00271613          	sll	a2,a4,0x2
   15e14:	00e60733          	add	a4,a2,a4
   15e18:	00171713          	sll	a4,a4,0x1
   15e1c:	00f70733          	add	a4,a4,a5
   15e20:	fd068793          	add	a5,a3,-48
   15e24:	00158593          	add	a1,a1,1
   15e28:	fef572e3          	bgeu	a0,a5,15e0c <_vfiprintf_r+0xa60>
   15e2c:	74074063          	bltz	a4,1656c <_vfiprintf_r+0x11c0>
   15e30:	00058c93          	mv	s9,a1
   15e34:	ef8ff06f          	j	1552c <_vfiprintf_r+0x180>
   15e38:	000cc683          	lbu	a3,0(s9)
   15e3c:	001ded93          	or	s11,s11,1
   15e40:	ee8ff06f          	j	15528 <_vfiprintf_r+0x17c>
   15e44:	04314783          	lbu	a5,67(sp)
   15e48:	000cc683          	lbu	a3,0(s9)
   15e4c:	ec079e63          	bnez	a5,15528 <_vfiprintf_r+0x17c>
   15e50:	02000793          	li	a5,32
   15e54:	04f101a3          	sb	a5,67(sp)
   15e58:	ed0ff06f          	j	15528 <_vfiprintf_r+0x17c>
   15e5c:	02d00613          	li	a2,45
   15e60:	01b036b3          	snez	a3,s11
   15e64:	41a000b3          	neg	ra,s10
   15e68:	04c101a3          	sb	a2,67(sp)
   15e6c:	40d08d33          	sub	s10,ra,a3
   15e70:	41b00db3          	neg	s11,s11
   15e74:	00074463          	bltz	a4,15e7c <_vfiprintf_r+0xad0>
   15e78:	f7fe7e13          	and	t3,t3,-129
   15e7c:	120d14e3          	bnez	s10,167a4 <_vfiprintf_r+0x13f8>
   15e80:	00900693          	li	a3,9
   15e84:	13b6e0e3          	bltu	a3,s11,167a4 <_vfiprintf_r+0x13f8>
   15e88:	030d8793          	add	a5,s11,48
   15e8c:	0ff7f793          	zext.b	a5,a5
   15e90:	10f107a3          	sb	a5,271(sp)
   15e94:	00070e93          	mv	t4,a4
   15e98:	00e04463          	bgtz	a4,15ea0 <_vfiprintf_r+0xaf4>
   15e9c:	00100e93          	li	t4,1
   15ea0:	00100d13          	li	s10,1
   15ea4:	10f10813          	add	a6,sp,271
   15ea8:	04314783          	lbu	a5,67(sp)
   15eac:	00012823          	sw	zero,16(sp)
   15eb0:	cc079ce3          	bnez	a5,15b88 <_vfiprintf_r+0x7dc>
   15eb4:	cd9ff06f          	j	15b8c <_vfiprintf_r+0x7e0>
   15eb8:	00100713          	li	a4,1
   15ebc:	000d0793          	mv	a5,s10
   15ec0:	07012623          	sw	a6,108(sp)
   15ec4:	07a12823          	sw	s10,112(sp)
   15ec8:	07a12423          	sw	s10,104(sp)
   15ecc:	06e12223          	sw	a4,100(sp)
   15ed0:	000a0c13          	mv	s8,s4
   15ed4:	008c0c13          	add	s8,s8,8
   15ed8:	809ff06f          	j	156e0 <_vfiprintf_r+0x334>
   15edc:	00100613          	li	a2,1
   15ee0:	00000693          	li	a3,0
   15ee4:	000a0593          	mv	a1,s4
   15ee8:	a65ff06f          	j	1594c <_vfiprintf_r+0x5a0>
   15eec:	41d88db3          	sub	s11,a7,t4
   15ef0:	f9b05a63          	blez	s11,15684 <_vfiprintf_r+0x2d8>
   15ef4:	01000593          	li	a1,16
   15ef8:	3bb5dae3          	bge	a1,s11,16aac <_vfiprintf_r+0x1700>
   15efc:	0000df97          	auipc	t6,0xd
   15f00:	9bcf8f93          	add	t6,t6,-1604 # 228b8 <zeroes.0>
   15f04:	02e12223          	sw	a4,36(sp)
   15f08:	000a8713          	mv	a4,s5
   15f0c:	000c0693          	mv	a3,s8
   15f10:	000d8a93          	mv	s5,s11
   15f14:	01000f13          	li	t5,16
   15f18:	00700293          	li	t0,7
   15f1c:	01c12c23          	sw	t3,24(sp)
   15f20:	01012e23          	sw	a6,28(sp)
   15f24:	03112023          	sw	a7,32(sp)
   15f28:	03d12423          	sw	t4,40(sp)
   15f2c:	000f8c13          	mv	s8,t6
   15f30:	00070d93          	mv	s11,a4
   15f34:	0180006f          	j	15f4c <_vfiprintf_r+0xba0>
   15f38:	00260513          	add	a0,a2,2
   15f3c:	00868693          	add	a3,a3,8
   15f40:	00070613          	mv	a2,a4
   15f44:	ff0a8a93          	add	s5,s5,-16
   15f48:	055f5c63          	bge	t5,s5,15fa0 <_vfiprintf_r+0xbf4>
   15f4c:	01078793          	add	a5,a5,16
   15f50:	00160713          	add	a4,a2,1
   15f54:	0186a023          	sw	s8,0(a3)
   15f58:	01e6a223          	sw	t5,4(a3)
   15f5c:	06f12423          	sw	a5,104(sp)
   15f60:	06e12223          	sw	a4,100(sp)
   15f64:	fce2dae3          	bge	t0,a4,15f38 <_vfiprintf_r+0xb8c>
   15f68:	1c078663          	beqz	a5,16134 <_vfiprintf_r+0xd88>
   15f6c:	06010613          	add	a2,sp,96
   15f70:	00098593          	mv	a1,s3
   15f74:	00040513          	mv	a0,s0
   15f78:	af8ff0ef          	jal	15270 <__sprint_r.part.0>
   15f7c:	8e051ee3          	bnez	a0,15878 <_vfiprintf_r+0x4cc>
   15f80:	06412603          	lw	a2,100(sp)
   15f84:	01000f13          	li	t5,16
   15f88:	ff0a8a93          	add	s5,s5,-16
   15f8c:	06812783          	lw	a5,104(sp)
   15f90:	000a0693          	mv	a3,s4
   15f94:	00160513          	add	a0,a2,1
   15f98:	00700293          	li	t0,7
   15f9c:	fb5f48e3          	blt	t5,s5,15f4c <_vfiprintf_r+0xba0>
   15fa0:	01812e03          	lw	t3,24(sp)
   15fa4:	01c12803          	lw	a6,28(sp)
   15fa8:	02012883          	lw	a7,32(sp)
   15fac:	02412703          	lw	a4,36(sp)
   15fb0:	02812e83          	lw	t4,40(sp)
   15fb4:	000d8613          	mv	a2,s11
   15fb8:	000c0f93          	mv	t6,s8
   15fbc:	000a8d93          	mv	s11,s5
   15fc0:	00068c13          	mv	s8,a3
   15fc4:	00060a93          	mv	s5,a2
   15fc8:	01b787b3          	add	a5,a5,s11
   15fcc:	01fc2023          	sw	t6,0(s8)
   15fd0:	01bc2223          	sw	s11,4(s8)
   15fd4:	06f12423          	sw	a5,104(sp)
   15fd8:	06a12223          	sw	a0,100(sp)
   15fdc:	00700613          	li	a2,7
   15fe0:	4ea65863          	bge	a2,a0,164d0 <_vfiprintf_r+0x1124>
   15fe4:	1a0786e3          	beqz	a5,16990 <_vfiprintf_r+0x15e4>
   15fe8:	06010613          	add	a2,sp,96
   15fec:	00098593          	mv	a1,s3
   15ff0:	00040513          	mv	a0,s0
   15ff4:	03d12423          	sw	t4,40(sp)
   15ff8:	02e12223          	sw	a4,36(sp)
   15ffc:	03112023          	sw	a7,32(sp)
   16000:	01012e23          	sw	a6,28(sp)
   16004:	01c12c23          	sw	t3,24(sp)
   16008:	a68ff0ef          	jal	15270 <__sprint_r.part.0>
   1600c:	860516e3          	bnez	a0,15878 <_vfiprintf_r+0x4cc>
   16010:	02412703          	lw	a4,36(sp)
   16014:	06412603          	lw	a2,100(sp)
   16018:	06812783          	lw	a5,104(sp)
   1601c:	41a70733          	sub	a4,a4,s10
   16020:	02812e83          	lw	t4,40(sp)
   16024:	02012883          	lw	a7,32(sp)
   16028:	01c12803          	lw	a6,28(sp)
   1602c:	01812e03          	lw	t3,24(sp)
   16030:	000a0c13          	mv	s8,s4
   16034:	00160f13          	add	t5,a2,1
   16038:	e4e05a63          	blez	a4,1568c <_vfiprintf_r+0x2e0>
   1603c:	01000593          	li	a1,16
   16040:	0000df97          	auipc	t6,0xd
   16044:	878f8f93          	add	t6,t6,-1928 # 228b8 <zeroes.0>
   16048:	0ae5da63          	bge	a1,a4,160fc <_vfiprintf_r+0xd50>
   1604c:	000c0593          	mv	a1,s8
   16050:	03512423          	sw	s5,40(sp)
   16054:	01000d93          	li	s11,16
   16058:	00700293          	li	t0,7
   1605c:	01c12c23          	sw	t3,24(sp)
   16060:	01012e23          	sw	a6,28(sp)
   16064:	03112023          	sw	a7,32(sp)
   16068:	03d12223          	sw	t4,36(sp)
   1606c:	00070a93          	mv	s5,a4
   16070:	000b0c13          	mv	s8,s6
   16074:	0180006f          	j	1608c <_vfiprintf_r+0xce0>
   16078:	00260f13          	add	t5,a2,2
   1607c:	00858593          	add	a1,a1,8
   16080:	00068613          	mv	a2,a3
   16084:	ff0a8a93          	add	s5,s5,-16
   16088:	055dda63          	bge	s11,s5,160dc <_vfiprintf_r+0xd30>
   1608c:	01078793          	add	a5,a5,16
   16090:	00160693          	add	a3,a2,1
   16094:	0165a023          	sw	s6,0(a1)
   16098:	01b5a223          	sw	s11,4(a1)
   1609c:	06f12423          	sw	a5,104(sp)
   160a0:	06d12223          	sw	a3,100(sp)
   160a4:	fcd2dae3          	bge	t0,a3,16078 <_vfiprintf_r+0xccc>
   160a8:	06078e63          	beqz	a5,16124 <_vfiprintf_r+0xd78>
   160ac:	06010613          	add	a2,sp,96
   160b0:	00098593          	mv	a1,s3
   160b4:	00040513          	mv	a0,s0
   160b8:	9b8ff0ef          	jal	15270 <__sprint_r.part.0>
   160bc:	fa051e63          	bnez	a0,15878 <_vfiprintf_r+0x4cc>
   160c0:	06412603          	lw	a2,100(sp)
   160c4:	ff0a8a93          	add	s5,s5,-16
   160c8:	06812783          	lw	a5,104(sp)
   160cc:	000a0593          	mv	a1,s4
   160d0:	00160f13          	add	t5,a2,1
   160d4:	00700293          	li	t0,7
   160d8:	fb5dcae3          	blt	s11,s5,1608c <_vfiprintf_r+0xce0>
   160dc:	000a8713          	mv	a4,s5
   160e0:	01812e03          	lw	t3,24(sp)
   160e4:	01c12803          	lw	a6,28(sp)
   160e8:	02012883          	lw	a7,32(sp)
   160ec:	02412e83          	lw	t4,36(sp)
   160f0:	02812a83          	lw	s5,40(sp)
   160f4:	000c0f93          	mv	t6,s8
   160f8:	00058c13          	mv	s8,a1
   160fc:	00e787b3          	add	a5,a5,a4
   16100:	00ec2223          	sw	a4,4(s8)
   16104:	01fc2023          	sw	t6,0(s8)
   16108:	06f12423          	sw	a5,104(sp)
   1610c:	07e12223          	sw	t5,100(sp)
   16110:	00700713          	li	a4,7
   16114:	25e74863          	blt	a4,t5,16364 <_vfiprintf_r+0xfb8>
   16118:	008c0c13          	add	s8,s8,8
   1611c:	001f0f13          	add	t5,t5,1
   16120:	d6cff06f          	j	1568c <_vfiprintf_r+0x2e0>
   16124:	00100f13          	li	t5,1
   16128:	00000613          	li	a2,0
   1612c:	000a0593          	mv	a1,s4
   16130:	f55ff06f          	j	16084 <_vfiprintf_r+0xcd8>
   16134:	00100513          	li	a0,1
   16138:	00000613          	li	a2,0
   1613c:	000a0693          	mv	a3,s4
   16140:	e05ff06f          	j	15f44 <_vfiprintf_r+0xb98>
   16144:	06078263          	beqz	a5,161a8 <_vfiprintf_r+0xdfc>
   16148:	06010613          	add	a2,sp,96
   1614c:	00098593          	mv	a1,s3
   16150:	00040513          	mv	a0,s0
   16154:	03d12e23          	sw	t4,60(sp)
   16158:	02e12c23          	sw	a4,56(sp)
   1615c:	03112423          	sw	a7,40(sp)
   16160:	03012223          	sw	a6,36(sp)
   16164:	02512023          	sw	t0,32(sp)
   16168:	01f12e23          	sw	t6,28(sp)
   1616c:	01c12c23          	sw	t3,24(sp)
   16170:	900ff0ef          	jal	15270 <__sprint_r.part.0>
   16174:	f0051263          	bnez	a0,15878 <_vfiprintf_r+0x4cc>
   16178:	06412603          	lw	a2,100(sp)
   1617c:	06812783          	lw	a5,104(sp)
   16180:	03c12e83          	lw	t4,60(sp)
   16184:	03812703          	lw	a4,56(sp)
   16188:	02812883          	lw	a7,40(sp)
   1618c:	02412803          	lw	a6,36(sp)
   16190:	02012283          	lw	t0,32(sp)
   16194:	01c12f83          	lw	t6,28(sp)
   16198:	01812e03          	lw	t3,24(sp)
   1619c:	000a0c13          	mv	s8,s4
   161a0:	00160f13          	add	t5,a2,1
   161a4:	c58ff06f          	j	155fc <_vfiprintf_r+0x250>
   161a8:	380f8863          	beqz	t6,16538 <_vfiprintf_r+0x118c>
   161ac:	04410793          	add	a5,sp,68
   161b0:	06f12623          	sw	a5,108(sp)
   161b4:	00200793          	li	a5,2
   161b8:	06f12823          	sw	a5,112(sp)
   161bc:	00100f13          	li	t5,1
   161c0:	000a0c13          	mv	s8,s4
   161c4:	000f0613          	mv	a2,t5
   161c8:	008c0c13          	add	s8,s8,8
   161cc:	001f0f13          	add	t5,t5,1
   161d0:	cacff06f          	j	1567c <_vfiprintf_r+0x2d0>
   161d4:	00200693          	li	a3,2
   161d8:	00050e13          	mv	t3,a0
   161dc:	aa0684e3          	beqz	a3,15c84 <_vfiprintf_r+0x8d8>
   161e0:	01412503          	lw	a0,20(sp)
   161e4:	11010813          	add	a6,sp,272
   161e8:	00f7f693          	and	a3,a5,15
   161ec:	00d506b3          	add	a3,a0,a3
   161f0:	0006c603          	lbu	a2,0(a3)
   161f4:	0047d793          	srl	a5,a5,0x4
   161f8:	01c59693          	sll	a3,a1,0x1c
   161fc:	00f6e7b3          	or	a5,a3,a5
   16200:	0045d593          	srl	a1,a1,0x4
   16204:	fec80fa3          	sb	a2,-1(a6)
   16208:	00b7e6b3          	or	a3,a5,a1
   1620c:	fff80813          	add	a6,a6,-1
   16210:	fc069ce3          	bnez	a3,161e8 <_vfiprintf_r+0xe3c>
   16214:	11010793          	add	a5,sp,272
   16218:	41078d33          	sub	s10,a5,a6
   1621c:	00070e93          	mv	t4,a4
   16220:	c9a754e3          	bge	a4,s10,15ea8 <_vfiprintf_r+0xafc>
   16224:	000d0e93          	mv	t4,s10
   16228:	c81ff06f          	j	15ea8 <_vfiprintf_r+0xafc>
   1622c:	01000513          	li	a0,16
   16230:	01b554e3          	bge	a0,s11,16a38 <_vfiprintf_r+0x168c>
   16234:	000a8693          	mv	a3,s5
   16238:	0000c317          	auipc	t1,0xc
   1623c:	69030313          	add	t1,t1,1680 # 228c8 <blanks.1>
   16240:	02e12c23          	sw	a4,56(sp)
   16244:	000d8a93          	mv	s5,s11
   16248:	000c0713          	mv	a4,s8
   1624c:	01000f13          	li	t5,16
   16250:	00700393          	li	t2,7
   16254:	01c12c23          	sw	t3,24(sp)
   16258:	01f12e23          	sw	t6,28(sp)
   1625c:	02512023          	sw	t0,32(sp)
   16260:	03012223          	sw	a6,36(sp)
   16264:	03112423          	sw	a7,40(sp)
   16268:	03d12e23          	sw	t4,60(sp)
   1626c:	00030c13          	mv	s8,t1
   16270:	00068d93          	mv	s11,a3
   16274:	01c0006f          	j	16290 <_vfiprintf_r+0xee4>
   16278:	00260513          	add	a0,a2,2
   1627c:	00870713          	add	a4,a4,8
   16280:	00058613          	mv	a2,a1
   16284:	ff0a8a93          	add	s5,s5,-16
   16288:	055f5c63          	bge	t5,s5,162e0 <_vfiprintf_r+0xf34>
   1628c:	00160593          	add	a1,a2,1
   16290:	01078793          	add	a5,a5,16
   16294:	01872023          	sw	s8,0(a4)
   16298:	01e72223          	sw	t5,4(a4)
   1629c:	06f12423          	sw	a5,104(sp)
   162a0:	06b12223          	sw	a1,100(sp)
   162a4:	fcb3dae3          	bge	t2,a1,16278 <_vfiprintf_r+0xecc>
   162a8:	08078a63          	beqz	a5,1633c <_vfiprintf_r+0xf90>
   162ac:	06010613          	add	a2,sp,96
   162b0:	00098593          	mv	a1,s3
   162b4:	00040513          	mv	a0,s0
   162b8:	fb9fe0ef          	jal	15270 <__sprint_r.part.0>
   162bc:	da051e63          	bnez	a0,15878 <_vfiprintf_r+0x4cc>
   162c0:	06412603          	lw	a2,100(sp)
   162c4:	01000f13          	li	t5,16
   162c8:	ff0a8a93          	add	s5,s5,-16
   162cc:	06812783          	lw	a5,104(sp)
   162d0:	000a0713          	mv	a4,s4
   162d4:	00160513          	add	a0,a2,1
   162d8:	00700393          	li	t2,7
   162dc:	fb5f48e3          	blt	t5,s5,1628c <_vfiprintf_r+0xee0>
   162e0:	000c0313          	mv	t1,s8
   162e4:	01812e03          	lw	t3,24(sp)
   162e8:	00070c13          	mv	s8,a4
   162ec:	01c12f83          	lw	t6,28(sp)
   162f0:	02012283          	lw	t0,32(sp)
   162f4:	02412803          	lw	a6,36(sp)
   162f8:	02812883          	lw	a7,40(sp)
   162fc:	03c12e83          	lw	t4,60(sp)
   16300:	03812703          	lw	a4,56(sp)
   16304:	000d8693          	mv	a3,s11
   16308:	000a8d93          	mv	s11,s5
   1630c:	00068a93          	mv	s5,a3
   16310:	01b787b3          	add	a5,a5,s11
   16314:	006c2023          	sw	t1,0(s8)
   16318:	01bc2223          	sw	s11,4(s8)
   1631c:	06f12423          	sw	a5,104(sp)
   16320:	06a12223          	sw	a0,100(sp)
   16324:	00700613          	li	a2,7
   16328:	12a64063          	blt	a2,a0,16448 <_vfiprintf_r+0x109c>
   1632c:	008c0c13          	add	s8,s8,8
   16330:	00150f13          	add	t5,a0,1
   16334:	00050613          	mv	a2,a0
   16338:	a8cff06f          	j	155c4 <_vfiprintf_r+0x218>
   1633c:	00000613          	li	a2,0
   16340:	00100513          	li	a0,1
   16344:	000a0713          	mv	a4,s4
   16348:	f3dff06f          	j	16284 <_vfiprintf_r+0xed8>
   1634c:	01d8d463          	bge	a7,t4,16354 <_vfiprintf_r+0xfa8>
   16350:	000e8893          	mv	a7,t4
   16354:	00c12783          	lw	a5,12(sp)
   16358:	011787b3          	add	a5,a5,a7
   1635c:	00f12623          	sw	a5,12(sp)
   16360:	ba8ff06f          	j	15708 <_vfiprintf_r+0x35c>
   16364:	b4078ae3          	beqz	a5,15eb8 <_vfiprintf_r+0xb0c>
   16368:	06010613          	add	a2,sp,96
   1636c:	00098593          	mv	a1,s3
   16370:	00040513          	mv	a0,s0
   16374:	03d12223          	sw	t4,36(sp)
   16378:	03112023          	sw	a7,32(sp)
   1637c:	01012e23          	sw	a6,28(sp)
   16380:	01c12c23          	sw	t3,24(sp)
   16384:	eedfe0ef          	jal	15270 <__sprint_r.part.0>
   16388:	ce051863          	bnez	a0,15878 <_vfiprintf_r+0x4cc>
   1638c:	06412f03          	lw	t5,100(sp)
   16390:	06812783          	lw	a5,104(sp)
   16394:	02412e83          	lw	t4,36(sp)
   16398:	02012883          	lw	a7,32(sp)
   1639c:	01c12803          	lw	a6,28(sp)
   163a0:	01812e03          	lw	t3,24(sp)
   163a4:	000a0c13          	mv	s8,s4
   163a8:	001f0f13          	add	t5,t5,1
   163ac:	ae0ff06f          	j	1568c <_vfiprintf_r+0x2e0>
   163b0:	06012223          	sw	zero,100(sp)
   163b4:	000a0c13          	mv	s8,s4
   163b8:	c84ff06f          	j	1583c <_vfiprintf_r+0x490>
   163bc:	01067693          	and	a3,a2,16
   163c0:	000aa783          	lw	a5,0(s5)
   163c4:	004a8a93          	add	s5,s5,4
   163c8:	12069c63          	bnez	a3,16500 <_vfiprintf_r+0x1154>
   163cc:	04067693          	and	a3,a2,64
   163d0:	12068463          	beqz	a3,164f8 <_vfiprintf_r+0x114c>
   163d4:	01079d93          	sll	s11,a5,0x10
   163d8:	010ddd93          	srl	s11,s11,0x10
   163dc:	00000d13          	li	s10,0
   163e0:	ff4ff06f          	j	15bd4 <_vfiprintf_r+0x828>
   163e4:	0106f613          	and	a2,a3,16
   163e8:	000aa783          	lw	a5,0(s5)
   163ec:	004a8a93          	add	s5,s5,4
   163f0:	12061263          	bnez	a2,16514 <_vfiprintf_r+0x1168>
   163f4:	0406f613          	and	a2,a3,64
   163f8:	10060a63          	beqz	a2,1650c <_vfiprintf_r+0x1160>
   163fc:	01079793          	sll	a5,a5,0x10
   16400:	0107d793          	srl	a5,a5,0x10
   16404:	00000593          	li	a1,0
   16408:	83dff06f          	j	15c44 <_vfiprintf_r+0x898>
   1640c:	010e7693          	and	a3,t3,16
   16410:	000aa783          	lw	a5,0(s5)
   16414:	004a8a93          	add	s5,s5,4
   16418:	0c069863          	bnez	a3,164e8 <_vfiprintf_r+0x113c>
   1641c:	040e7693          	and	a3,t3,64
   16420:	0c068063          	beqz	a3,164e0 <_vfiprintf_r+0x1134>
   16424:	01079d93          	sll	s11,a5,0x10
   16428:	410ddd93          	sra	s11,s11,0x10
   1642c:	41fddd13          	sra	s10,s11,0x1f
   16430:	000d0693          	mv	a3,s10
   16434:	f24ff06f          	j	15b58 <_vfiprintf_r+0x7ac>
   16438:	00100f13          	li	t5,1
   1643c:	00000613          	li	a2,0
   16440:	000a0c13          	mv	s8,s4
   16444:	a38ff06f          	j	1567c <_vfiprintf_r+0x2d0>
   16448:	1a078463          	beqz	a5,165f0 <_vfiprintf_r+0x1244>
   1644c:	06010613          	add	a2,sp,96
   16450:	00098593          	mv	a1,s3
   16454:	00040513          	mv	a0,s0
   16458:	03d12e23          	sw	t4,60(sp)
   1645c:	02e12c23          	sw	a4,56(sp)
   16460:	03112423          	sw	a7,40(sp)
   16464:	03012223          	sw	a6,36(sp)
   16468:	02512023          	sw	t0,32(sp)
   1646c:	01f12e23          	sw	t6,28(sp)
   16470:	01c12c23          	sw	t3,24(sp)
   16474:	dfdfe0ef          	jal	15270 <__sprint_r.part.0>
   16478:	c0051063          	bnez	a0,15878 <_vfiprintf_r+0x4cc>
   1647c:	06412603          	lw	a2,100(sp)
   16480:	06812783          	lw	a5,104(sp)
   16484:	03c12e83          	lw	t4,60(sp)
   16488:	03812703          	lw	a4,56(sp)
   1648c:	02812883          	lw	a7,40(sp)
   16490:	02412803          	lw	a6,36(sp)
   16494:	02012283          	lw	t0,32(sp)
   16498:	01c12f83          	lw	t6,28(sp)
   1649c:	01812e03          	lw	t3,24(sp)
   164a0:	000a0c13          	mv	s8,s4
   164a4:	00160f13          	add	t5,a2,1
   164a8:	91cff06f          	j	155c4 <_vfiprintf_r+0x218>
   164ac:	000d8e13          	mv	t3,s11
   164b0:	e88ff06f          	j	15b38 <_vfiprintf_r+0x78c>
   164b4:	00000e93          	li	t4,0
   164b8:	11010813          	add	a6,sp,272
   164bc:	9edff06f          	j	15ea8 <_vfiprintf_r+0xafc>
   164c0:	0589a503          	lw	a0,88(s3)
   164c4:	8c4fb0ef          	jal	11588 <__retarget_lock_acquire_recursive>
   164c8:	00c99783          	lh	a5,12(s3)
   164cc:	f45fe06f          	j	15410 <_vfiprintf_r+0x64>
   164d0:	008c0c13          	add	s8,s8,8
   164d4:	00150f13          	add	t5,a0,1
   164d8:	00050613          	mv	a2,a0
   164dc:	9a8ff06f          	j	15684 <_vfiprintf_r+0x2d8>
   164e0:	200e7693          	and	a3,t3,512
   164e4:	50069463          	bnez	a3,169ec <_vfiprintf_r+0x1640>
   164e8:	41f7dd13          	sra	s10,a5,0x1f
   164ec:	00078d93          	mv	s11,a5
   164f0:	000d0693          	mv	a3,s10
   164f4:	e64ff06f          	j	15b58 <_vfiprintf_r+0x7ac>
   164f8:	20067693          	and	a3,a2,512
   164fc:	4c069663          	bnez	a3,169c8 <_vfiprintf_r+0x161c>
   16500:	00078d93          	mv	s11,a5
   16504:	00000d13          	li	s10,0
   16508:	eccff06f          	j	15bd4 <_vfiprintf_r+0x828>
   1650c:	2006f613          	and	a2,a3,512
   16510:	4c061863          	bnez	a2,169e0 <_vfiprintf_r+0x1634>
   16514:	00000593          	li	a1,0
   16518:	f2cff06f          	j	15c44 <_vfiprintf_r+0x898>
   1651c:	00c12683          	lw	a3,12(sp)
   16520:	000aa783          	lw	a5,0(s5)
   16524:	004a8a93          	add	s5,s5,4
   16528:	41f6d713          	sra	a4,a3,0x1f
   1652c:	00d7a023          	sw	a3,0(a5)
   16530:	00e7a223          	sw	a4,4(a5)
   16534:	f8dfe06f          	j	154c0 <_vfiprintf_r+0x114>
   16538:	00000613          	li	a2,0
   1653c:	00100f13          	li	t5,1
   16540:	000a0c13          	mv	s8,s4
   16544:	938ff06f          	j	1567c <_vfiprintf_r+0x2d0>
   16548:	000aa783          	lw	a5,0(s5)
   1654c:	00100e93          	li	t4,1
   16550:	00100d13          	li	s10,1
   16554:	0af10623          	sb	a5,172(sp)
   16558:	0ac10593          	add	a1,sp,172
   1655c:	db8ff06f          	j	15b14 <_vfiprintf_r+0x768>
   16560:	000d0e93          	mv	t4,s10
   16564:	00050813          	mv	a6,a0
   16568:	941ff06f          	j	15ea8 <_vfiprintf_r+0xafc>
   1656c:	fff00713          	li	a4,-1
   16570:	00058c93          	mv	s9,a1
   16574:	fb9fe06f          	j	1552c <_vfiprintf_r+0x180>
   16578:	000d8613          	mv	a2,s11
   1657c:	e3cff06f          	j	15bb8 <_vfiprintf_r+0x80c>
   16580:	0000c797          	auipc	a5,0xc
   16584:	cf078793          	add	a5,a5,-784 # 22270 <__clzsi2+0xcc>
   16588:	000d8e13          	mv	t3,s11
   1658c:	00f12a23          	sw	a5,20(sp)
   16590:	020e7793          	and	a5,t3,32
   16594:	1c078c63          	beqz	a5,1676c <_vfiprintf_r+0x13c0>
   16598:	007a8a93          	add	s5,s5,7
   1659c:	ff8afa93          	and	s5,s5,-8
   165a0:	000aa783          	lw	a5,0(s5)
   165a4:	004aa583          	lw	a1,4(s5)
   165a8:	008a8a93          	add	s5,s5,8
   165ac:	001e7613          	and	a2,t3,1
   165b0:	00060e63          	beqz	a2,165cc <_vfiprintf_r+0x1220>
   165b4:	00b7e633          	or	a2,a5,a1
   165b8:	00060a63          	beqz	a2,165cc <_vfiprintf_r+0x1220>
   165bc:	03000613          	li	a2,48
   165c0:	04c10223          	sb	a2,68(sp)
   165c4:	04d102a3          	sb	a3,69(sp)
   165c8:	002e6e13          	or	t3,t3,2
   165cc:	bffe7e13          	and	t3,t3,-1025
   165d0:	f3cff06f          	j	15d0c <_vfiprintf_r+0x960>
   165d4:	000d8693          	mv	a3,s11
   165d8:	e50ff06f          	j	15c28 <_vfiprintf_r+0x87c>
   165dc:	0000c797          	auipc	a5,0xc
   165e0:	c8078793          	add	a5,a5,-896 # 2225c <__clzsi2+0xb8>
   165e4:	000d8e13          	mv	t3,s11
   165e8:	00f12a23          	sw	a5,20(sp)
   165ec:	fa5ff06f          	j	16590 <_vfiprintf_r+0x11e4>
   165f0:	04314603          	lbu	a2,67(sp)
   165f4:	3a060a63          	beqz	a2,169a8 <_vfiprintf_r+0x15fc>
   165f8:	04310793          	add	a5,sp,67
   165fc:	06f12623          	sw	a5,108(sp)
   16600:	00100793          	li	a5,1
   16604:	06f12823          	sw	a5,112(sp)
   16608:	00100f13          	li	t5,1
   1660c:	000a0c13          	mv	s8,s4
   16610:	fe1fe06f          	j	155f0 <_vfiprintf_r+0x244>
   16614:	00800613          	li	a2,8
   16618:	00000593          	li	a1,0
   1661c:	05810513          	add	a0,sp,88
   16620:	02e12023          	sw	a4,32(sp)
   16624:	01112e23          	sw	a7,28(sp)
   16628:	01c12c23          	sw	t3,24(sp)
   1662c:	05012623          	sw	a6,76(sp)
   16630:	01012823          	sw	a6,16(sp)
   16634:	f71fa0ef          	jal	115a4 <memset>
   16638:	02012703          	lw	a4,32(sp)
   1663c:	01012803          	lw	a6,16(sp)
   16640:	01812e03          	lw	t3,24(sp)
   16644:	01c12883          	lw	a7,28(sp)
   16648:	2a074463          	bltz	a4,168f0 <_vfiprintf_r+0x1544>
   1664c:	00000d93          	li	s11,0
   16650:	00000d13          	li	s10,0
   16654:	01812823          	sw	s8,16(sp)
   16658:	01012e23          	sw	a6,28(sp)
   1665c:	000d8c13          	mv	s8,s11
   16660:	03112023          	sw	a7,32(sp)
   16664:	000c8d93          	mv	s11,s9
   16668:	000a8c93          	mv	s9,s5
   1666c:	000d0a93          	mv	s5,s10
   16670:	00098d13          	mv	s10,s3
   16674:	00070993          	mv	s3,a4
   16678:	0300006f          	j	166a8 <_vfiprintf_r+0x12fc>
   1667c:	05810693          	add	a3,sp,88
   16680:	0ac10593          	add	a1,sp,172
   16684:	00040513          	mv	a0,s0
   16688:	311060ef          	jal	1d198 <_wcrtomb_r>
   1668c:	fff00793          	li	a5,-1
   16690:	48f50063          	beq	a0,a5,16b10 <_vfiprintf_r+0x1764>
   16694:	00aa87b3          	add	a5,s5,a0
   16698:	02f9c063          	blt	s3,a5,166b8 <_vfiprintf_r+0x130c>
   1669c:	004c0c13          	add	s8,s8,4
   166a0:	45378463          	beq	a5,s3,16ae8 <_vfiprintf_r+0x173c>
   166a4:	00078a93          	mv	s5,a5
   166a8:	04c12783          	lw	a5,76(sp)
   166ac:	018787b3          	add	a5,a5,s8
   166b0:	0007a603          	lw	a2,0(a5)
   166b4:	fc0614e3          	bnez	a2,1667c <_vfiprintf_r+0x12d0>
   166b8:	01012c03          	lw	s8,16(sp)
   166bc:	01812e03          	lw	t3,24(sp)
   166c0:	01c12803          	lw	a6,28(sp)
   166c4:	02012883          	lw	a7,32(sp)
   166c8:	000d0993          	mv	s3,s10
   166cc:	000a8d13          	mv	s10,s5
   166d0:	000c8a93          	mv	s5,s9
   166d4:	000d8c93          	mv	s9,s11
   166d8:	280d0e63          	beqz	s10,16974 <_vfiprintf_r+0x15c8>
   166dc:	06300793          	li	a5,99
   166e0:	33a7d463          	bge	a5,s10,16a08 <_vfiprintf_r+0x165c>
   166e4:	001d0593          	add	a1,s10,1
   166e8:	00040513          	mv	a0,s0
   166ec:	01112c23          	sw	a7,24(sp)
   166f0:	01c12823          	sw	t3,16(sp)
   166f4:	dfcfb0ef          	jal	11cf0 <_malloc_r>
   166f8:	01012e03          	lw	t3,16(sp)
   166fc:	01812883          	lw	a7,24(sp)
   16700:	00050813          	mv	a6,a0
   16704:	42050063          	beqz	a0,16b24 <_vfiprintf_r+0x1778>
   16708:	00a12823          	sw	a0,16(sp)
   1670c:	00800613          	li	a2,8
   16710:	00000593          	li	a1,0
   16714:	05810513          	add	a0,sp,88
   16718:	03112023          	sw	a7,32(sp)
   1671c:	01c12e23          	sw	t3,28(sp)
   16720:	01012c23          	sw	a6,24(sp)
   16724:	e81fa0ef          	jal	115a4 <memset>
   16728:	01812803          	lw	a6,24(sp)
   1672c:	05810713          	add	a4,sp,88
   16730:	000d0693          	mv	a3,s10
   16734:	00080593          	mv	a1,a6
   16738:	04c10613          	add	a2,sp,76
   1673c:	00040513          	mv	a0,s0
   16740:	37d060ef          	jal	1d2bc <_wcsrtombs_r>
   16744:	01812803          	lw	a6,24(sp)
   16748:	01c12e03          	lw	t3,28(sp)
   1674c:	02012883          	lw	a7,32(sp)
   16750:	40ad1063          	bne	s10,a0,16b50 <_vfiprintf_r+0x17a4>
   16754:	fffd4e93          	not	t4,s10
   16758:	01a807b3          	add	a5,a6,s10
   1675c:	41fede93          	sra	t4,t4,0x1f
   16760:	00078023          	sb	zero,0(a5)
   16764:	01dd7eb3          	and	t4,s10,t4
   16768:	2140006f          	j	1697c <_vfiprintf_r+0x15d0>
   1676c:	010e7613          	and	a2,t3,16
   16770:	000aa783          	lw	a5,0(s5)
   16774:	004a8a93          	add	s5,s5,4
   16778:	02061263          	bnez	a2,1679c <_vfiprintf_r+0x13f0>
   1677c:	040e7613          	and	a2,t3,64
   16780:	00060a63          	beqz	a2,16794 <_vfiprintf_r+0x13e8>
   16784:	01079793          	sll	a5,a5,0x10
   16788:	0107d793          	srl	a5,a5,0x10
   1678c:	00000593          	li	a1,0
   16790:	e1dff06f          	j	165ac <_vfiprintf_r+0x1200>
   16794:	200e7613          	and	a2,t3,512
   16798:	22061e63          	bnez	a2,169d4 <_vfiprintf_r+0x1628>
   1679c:	00000593          	li	a1,0
   167a0:	e0dff06f          	j	165ac <_vfiprintf_r+0x1200>
   167a4:	400e7793          	and	a5,t3,1024
   167a8:	00000693          	li	a3,0
   167ac:	11010e93          	add	t4,sp,272
   167b0:	01812823          	sw	s8,16(sp)
   167b4:	02812223          	sw	s0,36(sp)
   167b8:	03912c23          	sw	s9,56(sp)
   167bc:	03512e23          	sw	s5,60(sp)
   167c0:	02c12c83          	lw	s9,44(sp)
   167c4:	01c12c23          	sw	t3,24(sp)
   167c8:	01112e23          	sw	a7,28(sp)
   167cc:	02e12023          	sw	a4,32(sp)
   167d0:	00078c13          	mv	s8,a5
   167d4:	00068413          	mv	s0,a3
   167d8:	03312423          	sw	s3,40(sp)
   167dc:	000e8a93          	mv	s5,t4
   167e0:	0280006f          	j	16808 <_vfiprintf_r+0x145c>
   167e4:	00a00613          	li	a2,10
   167e8:	00000693          	li	a3,0
   167ec:	000d8513          	mv	a0,s11
   167f0:	000d0593          	mv	a1,s10
   167f4:	104080ef          	jal	1e8f8 <__udivdi3>
   167f8:	220d0a63          	beqz	s10,16a2c <_vfiprintf_r+0x1680>
   167fc:	00050d93          	mv	s11,a0
   16800:	00058d13          	mv	s10,a1
   16804:	00098a93          	mv	s5,s3
   16808:	00a00613          	li	a2,10
   1680c:	00000693          	li	a3,0
   16810:	000d8513          	mv	a0,s11
   16814:	000d0593          	mv	a1,s10
   16818:	78c080ef          	jal	1efa4 <__umoddi3>
   1681c:	03050513          	add	a0,a0,48
   16820:	feaa8fa3          	sb	a0,-1(s5)
   16824:	fffa8993          	add	s3,s5,-1
   16828:	00140413          	add	s0,s0,1
   1682c:	fa0c0ce3          	beqz	s8,167e4 <_vfiprintf_r+0x1438>
   16830:	000cc783          	lbu	a5,0(s9)
   16834:	fa8798e3          	bne	a5,s0,167e4 <_vfiprintf_r+0x1438>
   16838:	0ff00793          	li	a5,255
   1683c:	faf404e3          	beq	s0,a5,167e4 <_vfiprintf_r+0x1438>
   16840:	0e0d1a63          	bnez	s10,16934 <_vfiprintf_r+0x1588>
   16844:	00900793          	li	a5,9
   16848:	0fb7e663          	bltu	a5,s11,16934 <_vfiprintf_r+0x1588>
   1684c:	00098813          	mv	a6,s3
   16850:	03912623          	sw	s9,44(sp)
   16854:	01012c03          	lw	s8,16(sp)
   16858:	01812e03          	lw	t3,24(sp)
   1685c:	01c12883          	lw	a7,28(sp)
   16860:	02012703          	lw	a4,32(sp)
   16864:	02412403          	lw	s0,36(sp)
   16868:	02812983          	lw	s3,40(sp)
   1686c:	03812c83          	lw	s9,56(sp)
   16870:	03c12a83          	lw	s5,60(sp)
   16874:	9a1ff06f          	j	16214 <_vfiprintf_r+0xe68>
   16878:	00068e13          	mv	t3,a3
   1687c:	00000693          	li	a3,0
   16880:	c0068263          	beqz	a3,15c84 <_vfiprintf_r+0x8d8>
   16884:	95dff06f          	j	161e0 <_vfiprintf_r+0xe34>
   16888:	00040513          	mv	a0,s0
   1688c:	e54fa0ef          	jal	10ee0 <__sinit>
   16890:	b65fe06f          	j	153f4 <_vfiprintf_r+0x48>
   16894:	001cc683          	lbu	a3,1(s9)
   16898:	200ded93          	or	s11,s11,512
   1689c:	001c8c93          	add	s9,s9,1
   168a0:	c89fe06f          	j	15528 <_vfiprintf_r+0x17c>
   168a4:	001cc683          	lbu	a3,1(s9)
   168a8:	020ded93          	or	s11,s11,32
   168ac:	001c8c93          	add	s9,s9,1
   168b0:	c79fe06f          	j	15528 <_vfiprintf_r+0x17c>
   168b4:	000aa783          	lw	a5,0(s5)
   168b8:	00c12703          	lw	a4,12(sp)
   168bc:	004a8a93          	add	s5,s5,4
   168c0:	00e7a023          	sw	a4,0(a5)
   168c4:	bfdfe06f          	j	154c0 <_vfiprintf_r+0x114>
   168c8:	00600793          	li	a5,6
   168cc:	00070d13          	mv	s10,a4
   168d0:	0ce7e863          	bltu	a5,a4,169a0 <_vfiprintf_r+0x15f4>
   168d4:	000d0e93          	mv	t4,s10
   168d8:	0000c817          	auipc	a6,0xc
   168dc:	9ac80813          	add	a6,a6,-1620 # 22284 <__clzsi2+0xe0>
   168e0:	cb9fe06f          	j	15598 <_vfiprintf_r+0x1ec>
   168e4:	00000793          	li	a5,0
   168e8:	00000593          	li	a1,0
   168ec:	8f5ff06f          	j	161e0 <_vfiprintf_r+0xe34>
   168f0:	05810713          	add	a4,sp,88
   168f4:	00000693          	li	a3,0
   168f8:	04c10613          	add	a2,sp,76
   168fc:	00000593          	li	a1,0
   16900:	00040513          	mv	a0,s0
   16904:	01112e23          	sw	a7,28(sp)
   16908:	01012c23          	sw	a6,24(sp)
   1690c:	01c12823          	sw	t3,16(sp)
   16910:	1ad060ef          	jal	1d2bc <_wcsrtombs_r>
   16914:	fff00793          	li	a5,-1
   16918:	01012e03          	lw	t3,16(sp)
   1691c:	01812803          	lw	a6,24(sp)
   16920:	01c12883          	lw	a7,28(sp)
   16924:	00050d13          	mv	s10,a0
   16928:	1ef50e63          	beq	a0,a5,16b24 <_vfiprintf_r+0x1778>
   1692c:	05012623          	sw	a6,76(sp)
   16930:	da9ff06f          	j	166d8 <_vfiprintf_r+0x132c>
   16934:	03012783          	lw	a5,48(sp)
   16938:	03412583          	lw	a1,52(sp)
   1693c:	00000413          	li	s0,0
   16940:	40f989b3          	sub	s3,s3,a5
   16944:	00078613          	mv	a2,a5
   16948:	00098513          	mv	a0,s3
   1694c:	2cc010ef          	jal	17c18 <strncpy>
   16950:	001cc783          	lbu	a5,1(s9)
   16954:	00a00613          	li	a2,10
   16958:	00000693          	li	a3,0
   1695c:	00f037b3          	snez	a5,a5
   16960:	000d8513          	mv	a0,s11
   16964:	000d0593          	mv	a1,s10
   16968:	00fc8cb3          	add	s9,s9,a5
   1696c:	78d070ef          	jal	1e8f8 <__udivdi3>
   16970:	e8dff06f          	j	167fc <_vfiprintf_r+0x1450>
   16974:	00000e93          	li	t4,0
   16978:	00012823          	sw	zero,16(sp)
   1697c:	04314783          	lbu	a5,67(sp)
   16980:	00000713          	li	a4,0
   16984:	00000f93          	li	t6,0
   16988:	a0079063          	bnez	a5,15b88 <_vfiprintf_r+0x7dc>
   1698c:	c19fe06f          	j	155a4 <_vfiprintf_r+0x1f8>
   16990:	00100f13          	li	t5,1
   16994:	00000613          	li	a2,0
   16998:	000a0c13          	mv	s8,s4
   1699c:	ce9fe06f          	j	15684 <_vfiprintf_r+0x2d8>
   169a0:	00600d13          	li	s10,6
   169a4:	f31ff06f          	j	168d4 <_vfiprintf_r+0x1528>
   169a8:	00100f13          	li	t5,1
   169ac:	000a0c13          	mv	s8,s4
   169b0:	c4dfe06f          	j	155fc <_vfiprintf_r+0x250>
   169b4:	000aa783          	lw	a5,0(s5)
   169b8:	00c12703          	lw	a4,12(sp)
   169bc:	004a8a93          	add	s5,s5,4
   169c0:	00e79023          	sh	a4,0(a5)
   169c4:	afdfe06f          	j	154c0 <_vfiprintf_r+0x114>
   169c8:	0ff7fd93          	zext.b	s11,a5
   169cc:	00000d13          	li	s10,0
   169d0:	a04ff06f          	j	15bd4 <_vfiprintf_r+0x828>
   169d4:	0ff7f793          	zext.b	a5,a5
   169d8:	00000593          	li	a1,0
   169dc:	bd1ff06f          	j	165ac <_vfiprintf_r+0x1200>
   169e0:	0ff7f793          	zext.b	a5,a5
   169e4:	00000593          	li	a1,0
   169e8:	a5cff06f          	j	15c44 <_vfiprintf_r+0x898>
   169ec:	01879d93          	sll	s11,a5,0x18
   169f0:	418ddd93          	sra	s11,s11,0x18
   169f4:	41fddd13          	sra	s10,s11,0x1f
   169f8:	000d0693          	mv	a3,s10
   169fc:	95cff06f          	j	15b58 <_vfiprintf_r+0x7ac>
   16a00:	03000793          	li	a5,48
   16a04:	c8cff06f          	j	15e90 <_vfiprintf_r+0xae4>
   16a08:	00012823          	sw	zero,16(sp)
   16a0c:	0ac10813          	add	a6,sp,172
   16a10:	cfdff06f          	j	1670c <_vfiprintf_r+0x1360>
   16a14:	0589a503          	lw	a0,88(s3)
   16a18:	b89fa0ef          	jal	115a0 <__retarget_lock_release_recursive>
   16a1c:	d51fe06f          	j	1576c <_vfiprintf_r+0x3c0>
   16a20:	00070e93          	mv	t4,a4
   16a24:	00070d13          	mv	s10,a4
   16a28:	f55ff06f          	j	1697c <_vfiprintf_r+0x15d0>
   16a2c:	00900793          	li	a5,9
   16a30:	ddb7e6e3          	bltu	a5,s11,167fc <_vfiprintf_r+0x1450>
   16a34:	e19ff06f          	j	1684c <_vfiprintf_r+0x14a0>
   16a38:	00058513          	mv	a0,a1
   16a3c:	0000c317          	auipc	t1,0xc
   16a40:	e8c30313          	add	t1,t1,-372 # 228c8 <blanks.1>
   16a44:	8cdff06f          	j	16310 <_vfiprintf_r+0xf64>
   16a48:	00080513          	mv	a0,a6
   16a4c:	03112023          	sw	a7,32(sp)
   16a50:	01012c23          	sw	a6,24(sp)
   16a54:	01b12e23          	sw	s11,28(sp)
   16a58:	2ac020ef          	jal	18d04 <strlen>
   16a5c:	fff54e93          	not	t4,a0
   16a60:	41fede93          	sra	t4,t4,0x1f
   16a64:	01812803          	lw	a6,24(sp)
   16a68:	01c12e03          	lw	t3,28(sp)
   16a6c:	02012883          	lw	a7,32(sp)
   16a70:	00050d13          	mv	s10,a0
   16a74:	01d57eb3          	and	t4,a0,t4
   16a78:	00012823          	sw	zero,16(sp)
   16a7c:	f01ff06f          	j	1697c <_vfiprintf_r+0x15d0>
   16a80:	06010613          	add	a2,sp,96
   16a84:	00098593          	mv	a1,s3
   16a88:	00040513          	mv	a0,s0
   16a8c:	fe4fe0ef          	jal	15270 <__sprint_r.part.0>
   16a90:	00051463          	bnez	a0,16a98 <_vfiprintf_r+0x16ec>
   16a94:	dc5fe06f          	j	15858 <_vfiprintf_r+0x4ac>
   16a98:	df5fe06f          	j	1588c <_vfiprintf_r+0x4e0>
   16a9c:	00168613          	add	a2,a3,1
   16aa0:	0000c317          	auipc	t1,0xc
   16aa4:	e2830313          	add	t1,t1,-472 # 228c8 <blanks.1>
   16aa8:	f19fe06f          	j	159c0 <_vfiprintf_r+0x614>
   16aac:	000f0513          	mv	a0,t5
   16ab0:	0000cf97          	auipc	t6,0xc
   16ab4:	e08f8f93          	add	t6,t6,-504 # 228b8 <zeroes.0>
   16ab8:	d10ff06f          	j	15fc8 <_vfiprintf_r+0xc1c>
   16abc:	0649a783          	lw	a5,100(s3)
   16ac0:	0017f793          	and	a5,a5,1
   16ac4:	00079c63          	bnez	a5,16adc <_vfiprintf_r+0x1730>
   16ac8:	00c9d783          	lhu	a5,12(s3)
   16acc:	2007f793          	and	a5,a5,512
   16ad0:	00079663          	bnez	a5,16adc <_vfiprintf_r+0x1730>
   16ad4:	0589a503          	lw	a0,88(s3)
   16ad8:	ac9fa0ef          	jal	115a0 <__retarget_lock_release_recursive>
   16adc:	fff00793          	li	a5,-1
   16ae0:	00f12623          	sw	a5,12(sp)
   16ae4:	de5fe06f          	j	158c8 <_vfiprintf_r+0x51c>
   16ae8:	00098713          	mv	a4,s3
   16aec:	000c8a93          	mv	s5,s9
   16af0:	000d0993          	mv	s3,s10
   16af4:	01012c03          	lw	s8,16(sp)
   16af8:	01812e03          	lw	t3,24(sp)
   16afc:	01c12803          	lw	a6,28(sp)
   16b00:	02012883          	lw	a7,32(sp)
   16b04:	000d8c93          	mv	s9,s11
   16b08:	00070d13          	mv	s10,a4
   16b0c:	bcdff06f          	j	166d8 <_vfiprintf_r+0x132c>
   16b10:	00cd1783          	lh	a5,12(s10)
   16b14:	000d0993          	mv	s3,s10
   16b18:	0407e793          	or	a5,a5,64
   16b1c:	00fd1623          	sh	a5,12(s10)
   16b20:	d71fe06f          	j	15890 <_vfiprintf_r+0x4e4>
   16b24:	00c99783          	lh	a5,12(s3)
   16b28:	0407e793          	or	a5,a5,64
   16b2c:	00f99623          	sh	a5,12(s3)
   16b30:	d61fe06f          	j	15890 <_vfiprintf_r+0x4e4>
   16b34:	000aa703          	lw	a4,0(s5)
   16b38:	004a8a93          	add	s5,s5,4
   16b3c:	00075463          	bgez	a4,16b44 <_vfiprintf_r+0x1798>
   16b40:	fff00713          	li	a4,-1
   16b44:	001cc683          	lbu	a3,1(s9)
   16b48:	00058c93          	mv	s9,a1
   16b4c:	9ddfe06f          	j	15528 <_vfiprintf_r+0x17c>
   16b50:	00c9d783          	lhu	a5,12(s3)
   16b54:	0407e793          	or	a5,a5,64
   16b58:	00f99623          	sh	a5,12(s3)
   16b5c:	d1dfe06f          	j	15878 <_vfiprintf_r+0x4cc>

00016b60 <vfiprintf>:
   16b60:	00060693          	mv	a3,a2
   16b64:	00058613          	mv	a2,a1
   16b68:	00050593          	mv	a1,a0
   16b6c:	f341a503          	lw	a0,-204(gp) # 24904 <_impure_ptr>
   16b70:	83dfe06f          	j	153ac <_vfiprintf_r>

00016b74 <__sbprintf>:
   16b74:	b7010113          	add	sp,sp,-1168
   16b78:	00c59783          	lh	a5,12(a1)
   16b7c:	00e5d703          	lhu	a4,14(a1)
   16b80:	48812423          	sw	s0,1160(sp)
   16b84:	00058413          	mv	s0,a1
   16b88:	000105b7          	lui	a1,0x10
   16b8c:	ffd58593          	add	a1,a1,-3 # fffd <exit-0x97>
   16b90:	06442303          	lw	t1,100(s0)
   16b94:	01c42883          	lw	a7,28(s0)
   16b98:	02442803          	lw	a6,36(s0)
   16b9c:	01071713          	sll	a4,a4,0x10
   16ba0:	00b7f7b3          	and	a5,a5,a1
   16ba4:	00e7e7b3          	or	a5,a5,a4
   16ba8:	40000593          	li	a1,1024
   16bac:	49212023          	sw	s2,1152(sp)
   16bb0:	00f12a23          	sw	a5,20(sp)
   16bb4:	00050913          	mv	s2,a0
   16bb8:	07010793          	add	a5,sp,112
   16bbc:	06010513          	add	a0,sp,96
   16bc0:	48112623          	sw	ra,1164(sp)
   16bc4:	48912223          	sw	s1,1156(sp)
   16bc8:	47312e23          	sw	s3,1148(sp)
   16bcc:	00060493          	mv	s1,a2
   16bd0:	00068993          	mv	s3,a3
   16bd4:	06612623          	sw	t1,108(sp)
   16bd8:	03112223          	sw	a7,36(sp)
   16bdc:	03012623          	sw	a6,44(sp)
   16be0:	00f12423          	sw	a5,8(sp)
   16be4:	00f12c23          	sw	a5,24(sp)
   16be8:	00b12823          	sw	a1,16(sp)
   16bec:	00b12e23          	sw	a1,28(sp)
   16bf0:	02012023          	sw	zero,32(sp)
   16bf4:	985fa0ef          	jal	11578 <__retarget_lock_init_recursive>
   16bf8:	00048613          	mv	a2,s1
   16bfc:	00098693          	mv	a3,s3
   16c00:	00810593          	add	a1,sp,8
   16c04:	00090513          	mv	a0,s2
   16c08:	fa4fe0ef          	jal	153ac <_vfiprintf_r>
   16c0c:	00050493          	mv	s1,a0
   16c10:	04055263          	bgez	a0,16c54 <__sbprintf+0xe0>
   16c14:	01415783          	lhu	a5,20(sp)
   16c18:	0407f793          	and	a5,a5,64
   16c1c:	00078863          	beqz	a5,16c2c <__sbprintf+0xb8>
   16c20:	00c45783          	lhu	a5,12(s0)
   16c24:	0407e793          	or	a5,a5,64
   16c28:	00f41623          	sh	a5,12(s0)
   16c2c:	06012503          	lw	a0,96(sp)
   16c30:	951fa0ef          	jal	11580 <__retarget_lock_close_recursive>
   16c34:	48c12083          	lw	ra,1164(sp)
   16c38:	48812403          	lw	s0,1160(sp)
   16c3c:	48012903          	lw	s2,1152(sp)
   16c40:	47c12983          	lw	s3,1148(sp)
   16c44:	00048513          	mv	a0,s1
   16c48:	48412483          	lw	s1,1156(sp)
   16c4c:	49010113          	add	sp,sp,1168
   16c50:	00008067          	ret
   16c54:	00810593          	add	a1,sp,8
   16c58:	00090513          	mv	a0,s2
   16c5c:	3d8000ef          	jal	17034 <_fflush_r>
   16c60:	fa050ae3          	beqz	a0,16c14 <__sbprintf+0xa0>
   16c64:	fff00493          	li	s1,-1
   16c68:	fadff06f          	j	16c14 <__sbprintf+0xa0>

00016c6c <_fclose_r>:
   16c6c:	ff010113          	add	sp,sp,-16
   16c70:	00112623          	sw	ra,12(sp)
   16c74:	01212023          	sw	s2,0(sp)
   16c78:	0e058263          	beqz	a1,16d5c <_fclose_r+0xf0>
   16c7c:	00812423          	sw	s0,8(sp)
   16c80:	00912223          	sw	s1,4(sp)
   16c84:	00058413          	mv	s0,a1
   16c88:	00050493          	mv	s1,a0
   16c8c:	00050663          	beqz	a0,16c98 <_fclose_r+0x2c>
   16c90:	03452783          	lw	a5,52(a0)
   16c94:	10078063          	beqz	a5,16d94 <_fclose_r+0x128>
   16c98:	06442783          	lw	a5,100(s0)
   16c9c:	00c41703          	lh	a4,12(s0)
   16ca0:	0017f793          	and	a5,a5,1
   16ca4:	0a079663          	bnez	a5,16d50 <_fclose_r+0xe4>
   16ca8:	20077713          	and	a4,a4,512
   16cac:	0e070863          	beqz	a4,16d9c <_fclose_r+0x130>
   16cb0:	00040593          	mv	a1,s0
   16cb4:	00048513          	mv	a0,s1
   16cb8:	130000ef          	jal	16de8 <__sflush_r>
   16cbc:	02c42783          	lw	a5,44(s0)
   16cc0:	00050913          	mv	s2,a0
   16cc4:	00078a63          	beqz	a5,16cd8 <_fclose_r+0x6c>
   16cc8:	01c42583          	lw	a1,28(s0)
   16ccc:	00048513          	mv	a0,s1
   16cd0:	000780e7          	jalr	a5
   16cd4:	0a054063          	bltz	a0,16d74 <_fclose_r+0x108>
   16cd8:	00c45783          	lhu	a5,12(s0)
   16cdc:	0807f793          	and	a5,a5,128
   16ce0:	0a079263          	bnez	a5,16d84 <_fclose_r+0x118>
   16ce4:	03042583          	lw	a1,48(s0)
   16ce8:	00058c63          	beqz	a1,16d00 <_fclose_r+0x94>
   16cec:	04040793          	add	a5,s0,64
   16cf0:	00f58663          	beq	a1,a5,16cfc <_fclose_r+0x90>
   16cf4:	00048513          	mv	a0,s1
   16cf8:	cf5fa0ef          	jal	119ec <_free_r>
   16cfc:	02042823          	sw	zero,48(s0)
   16d00:	04442583          	lw	a1,68(s0)
   16d04:	00058863          	beqz	a1,16d14 <_fclose_r+0xa8>
   16d08:	00048513          	mv	a0,s1
   16d0c:	ce1fa0ef          	jal	119ec <_free_r>
   16d10:	04042223          	sw	zero,68(s0)
   16d14:	a2cfa0ef          	jal	10f40 <__sfp_lock_acquire>
   16d18:	06442783          	lw	a5,100(s0)
   16d1c:	00041623          	sh	zero,12(s0)
   16d20:	0017f793          	and	a5,a5,1
   16d24:	0a078663          	beqz	a5,16dd0 <_fclose_r+0x164>
   16d28:	05842503          	lw	a0,88(s0)
   16d2c:	855fa0ef          	jal	11580 <__retarget_lock_close_recursive>
   16d30:	a18fa0ef          	jal	10f48 <__sfp_lock_release>
   16d34:	00c12083          	lw	ra,12(sp)
   16d38:	00812403          	lw	s0,8(sp)
   16d3c:	00412483          	lw	s1,4(sp)
   16d40:	00090513          	mv	a0,s2
   16d44:	00012903          	lw	s2,0(sp)
   16d48:	01010113          	add	sp,sp,16
   16d4c:	00008067          	ret
   16d50:	f60710e3          	bnez	a4,16cb0 <_fclose_r+0x44>
   16d54:	00812403          	lw	s0,8(sp)
   16d58:	00412483          	lw	s1,4(sp)
   16d5c:	00000913          	li	s2,0
   16d60:	00c12083          	lw	ra,12(sp)
   16d64:	00090513          	mv	a0,s2
   16d68:	00012903          	lw	s2,0(sp)
   16d6c:	01010113          	add	sp,sp,16
   16d70:	00008067          	ret
   16d74:	00c45783          	lhu	a5,12(s0)
   16d78:	fff00913          	li	s2,-1
   16d7c:	0807f793          	and	a5,a5,128
   16d80:	f60782e3          	beqz	a5,16ce4 <_fclose_r+0x78>
   16d84:	01042583          	lw	a1,16(s0)
   16d88:	00048513          	mv	a0,s1
   16d8c:	c61fa0ef          	jal	119ec <_free_r>
   16d90:	f55ff06f          	j	16ce4 <_fclose_r+0x78>
   16d94:	94cfa0ef          	jal	10ee0 <__sinit>
   16d98:	f01ff06f          	j	16c98 <_fclose_r+0x2c>
   16d9c:	05842503          	lw	a0,88(s0)
   16da0:	fe8fa0ef          	jal	11588 <__retarget_lock_acquire_recursive>
   16da4:	00c41783          	lh	a5,12(s0)
   16da8:	f00794e3          	bnez	a5,16cb0 <_fclose_r+0x44>
   16dac:	06442783          	lw	a5,100(s0)
   16db0:	0017f793          	and	a5,a5,1
   16db4:	fa0790e3          	bnez	a5,16d54 <_fclose_r+0xe8>
   16db8:	05842503          	lw	a0,88(s0)
   16dbc:	00000913          	li	s2,0
   16dc0:	fe0fa0ef          	jal	115a0 <__retarget_lock_release_recursive>
   16dc4:	00812403          	lw	s0,8(sp)
   16dc8:	00412483          	lw	s1,4(sp)
   16dcc:	f95ff06f          	j	16d60 <_fclose_r+0xf4>
   16dd0:	05842503          	lw	a0,88(s0)
   16dd4:	fccfa0ef          	jal	115a0 <__retarget_lock_release_recursive>
   16dd8:	f51ff06f          	j	16d28 <_fclose_r+0xbc>

00016ddc <fclose>:
   16ddc:	00050593          	mv	a1,a0
   16de0:	f341a503          	lw	a0,-204(gp) # 24904 <_impure_ptr>
   16de4:	e89ff06f          	j	16c6c <_fclose_r>

00016de8 <__sflush_r>:
   16de8:	00c59703          	lh	a4,12(a1)
   16dec:	fe010113          	add	sp,sp,-32
   16df0:	00812c23          	sw	s0,24(sp)
   16df4:	01312623          	sw	s3,12(sp)
   16df8:	00112e23          	sw	ra,28(sp)
   16dfc:	00877793          	and	a5,a4,8
   16e00:	00058413          	mv	s0,a1
   16e04:	00050993          	mv	s3,a0
   16e08:	12079063          	bnez	a5,16f28 <__sflush_r+0x140>
   16e0c:	000017b7          	lui	a5,0x1
   16e10:	80078793          	add	a5,a5,-2048 # 800 <exit-0xf894>
   16e14:	0045a683          	lw	a3,4(a1)
   16e18:	00f767b3          	or	a5,a4,a5
   16e1c:	00f59623          	sh	a5,12(a1)
   16e20:	18d05263          	blez	a3,16fa4 <__sflush_r+0x1bc>
   16e24:	02842803          	lw	a6,40(s0)
   16e28:	0e080463          	beqz	a6,16f10 <__sflush_r+0x128>
   16e2c:	00912a23          	sw	s1,20(sp)
   16e30:	01371693          	sll	a3,a4,0x13
   16e34:	0009a483          	lw	s1,0(s3)
   16e38:	0009a023          	sw	zero,0(s3)
   16e3c:	01c42583          	lw	a1,28(s0)
   16e40:	1606ce63          	bltz	a3,16fbc <__sflush_r+0x1d4>
   16e44:	00000613          	li	a2,0
   16e48:	00100693          	li	a3,1
   16e4c:	00098513          	mv	a0,s3
   16e50:	000800e7          	jalr	a6
   16e54:	fff00793          	li	a5,-1
   16e58:	00050613          	mv	a2,a0
   16e5c:	1af50463          	beq	a0,a5,17004 <__sflush_r+0x21c>
   16e60:	00c41783          	lh	a5,12(s0)
   16e64:	02842803          	lw	a6,40(s0)
   16e68:	01c42583          	lw	a1,28(s0)
   16e6c:	0047f793          	and	a5,a5,4
   16e70:	00078e63          	beqz	a5,16e8c <__sflush_r+0xa4>
   16e74:	00442703          	lw	a4,4(s0)
   16e78:	03042783          	lw	a5,48(s0)
   16e7c:	40e60633          	sub	a2,a2,a4
   16e80:	00078663          	beqz	a5,16e8c <__sflush_r+0xa4>
   16e84:	03c42783          	lw	a5,60(s0)
   16e88:	40f60633          	sub	a2,a2,a5
   16e8c:	00000693          	li	a3,0
   16e90:	00098513          	mv	a0,s3
   16e94:	000800e7          	jalr	a6
   16e98:	fff00793          	li	a5,-1
   16e9c:	12f51463          	bne	a0,a5,16fc4 <__sflush_r+0x1dc>
   16ea0:	0009a683          	lw	a3,0(s3)
   16ea4:	01d00793          	li	a5,29
   16ea8:	00c41703          	lh	a4,12(s0)
   16eac:	16d7ea63          	bltu	a5,a3,17020 <__sflush_r+0x238>
   16eb0:	204007b7          	lui	a5,0x20400
   16eb4:	00178793          	add	a5,a5,1 # 20400001 <__BSS_END__+0x203db0f1>
   16eb8:	00d7d7b3          	srl	a5,a5,a3
   16ebc:	0017f793          	and	a5,a5,1
   16ec0:	16078063          	beqz	a5,17020 <__sflush_r+0x238>
   16ec4:	01042603          	lw	a2,16(s0)
   16ec8:	fffff7b7          	lui	a5,0xfffff
   16ecc:	7ff78793          	add	a5,a5,2047 # fffff7ff <__BSS_END__+0xfffda8ef>
   16ed0:	00f777b3          	and	a5,a4,a5
   16ed4:	00f41623          	sh	a5,12(s0)
   16ed8:	00042223          	sw	zero,4(s0)
   16edc:	00c42023          	sw	a2,0(s0)
   16ee0:	01371793          	sll	a5,a4,0x13
   16ee4:	0007d463          	bgez	a5,16eec <__sflush_r+0x104>
   16ee8:	10068263          	beqz	a3,16fec <__sflush_r+0x204>
   16eec:	03042583          	lw	a1,48(s0)
   16ef0:	0099a023          	sw	s1,0(s3)
   16ef4:	10058463          	beqz	a1,16ffc <__sflush_r+0x214>
   16ef8:	04040793          	add	a5,s0,64
   16efc:	00f58663          	beq	a1,a5,16f08 <__sflush_r+0x120>
   16f00:	00098513          	mv	a0,s3
   16f04:	ae9fa0ef          	jal	119ec <_free_r>
   16f08:	01412483          	lw	s1,20(sp)
   16f0c:	02042823          	sw	zero,48(s0)
   16f10:	00000513          	li	a0,0
   16f14:	01c12083          	lw	ra,28(sp)
   16f18:	01812403          	lw	s0,24(sp)
   16f1c:	00c12983          	lw	s3,12(sp)
   16f20:	02010113          	add	sp,sp,32
   16f24:	00008067          	ret
   16f28:	01212823          	sw	s2,16(sp)
   16f2c:	0105a903          	lw	s2,16(a1)
   16f30:	08090263          	beqz	s2,16fb4 <__sflush_r+0x1cc>
   16f34:	00912a23          	sw	s1,20(sp)
   16f38:	0005a483          	lw	s1,0(a1)
   16f3c:	00377713          	and	a4,a4,3
   16f40:	0125a023          	sw	s2,0(a1)
   16f44:	412484b3          	sub	s1,s1,s2
   16f48:	00000793          	li	a5,0
   16f4c:	00071463          	bnez	a4,16f54 <__sflush_r+0x16c>
   16f50:	0145a783          	lw	a5,20(a1)
   16f54:	00f42423          	sw	a5,8(s0)
   16f58:	00904863          	bgtz	s1,16f68 <__sflush_r+0x180>
   16f5c:	0540006f          	j	16fb0 <__sflush_r+0x1c8>
   16f60:	00a90933          	add	s2,s2,a0
   16f64:	04905663          	blez	s1,16fb0 <__sflush_r+0x1c8>
   16f68:	02442783          	lw	a5,36(s0)
   16f6c:	01c42583          	lw	a1,28(s0)
   16f70:	00048693          	mv	a3,s1
   16f74:	00090613          	mv	a2,s2
   16f78:	00098513          	mv	a0,s3
   16f7c:	000780e7          	jalr	a5
   16f80:	40a484b3          	sub	s1,s1,a0
   16f84:	fca04ee3          	bgtz	a0,16f60 <__sflush_r+0x178>
   16f88:	00c41703          	lh	a4,12(s0)
   16f8c:	01012903          	lw	s2,16(sp)
   16f90:	04076713          	or	a4,a4,64
   16f94:	01412483          	lw	s1,20(sp)
   16f98:	00e41623          	sh	a4,12(s0)
   16f9c:	fff00513          	li	a0,-1
   16fa0:	f75ff06f          	j	16f14 <__sflush_r+0x12c>
   16fa4:	03c5a683          	lw	a3,60(a1)
   16fa8:	e6d04ee3          	bgtz	a3,16e24 <__sflush_r+0x3c>
   16fac:	f65ff06f          	j	16f10 <__sflush_r+0x128>
   16fb0:	01412483          	lw	s1,20(sp)
   16fb4:	01012903          	lw	s2,16(sp)
   16fb8:	f59ff06f          	j	16f10 <__sflush_r+0x128>
   16fbc:	05042603          	lw	a2,80(s0)
   16fc0:	eadff06f          	j	16e6c <__sflush_r+0x84>
   16fc4:	00c41703          	lh	a4,12(s0)
   16fc8:	01042683          	lw	a3,16(s0)
   16fcc:	fffff7b7          	lui	a5,0xfffff
   16fd0:	7ff78793          	add	a5,a5,2047 # fffff7ff <__BSS_END__+0xfffda8ef>
   16fd4:	00f777b3          	and	a5,a4,a5
   16fd8:	00f41623          	sh	a5,12(s0)
   16fdc:	00042223          	sw	zero,4(s0)
   16fe0:	00d42023          	sw	a3,0(s0)
   16fe4:	01371793          	sll	a5,a4,0x13
   16fe8:	f007d2e3          	bgez	a5,16eec <__sflush_r+0x104>
   16fec:	03042583          	lw	a1,48(s0)
   16ff0:	04a42823          	sw	a0,80(s0)
   16ff4:	0099a023          	sw	s1,0(s3)
   16ff8:	f00590e3          	bnez	a1,16ef8 <__sflush_r+0x110>
   16ffc:	01412483          	lw	s1,20(sp)
   17000:	f11ff06f          	j	16f10 <__sflush_r+0x128>
   17004:	0009a783          	lw	a5,0(s3)
   17008:	e4078ce3          	beqz	a5,16e60 <__sflush_r+0x78>
   1700c:	01d00713          	li	a4,29
   17010:	00e78c63          	beq	a5,a4,17028 <__sflush_r+0x240>
   17014:	01600713          	li	a4,22
   17018:	00e78863          	beq	a5,a4,17028 <__sflush_r+0x240>
   1701c:	00c41703          	lh	a4,12(s0)
   17020:	04076713          	or	a4,a4,64
   17024:	f71ff06f          	j	16f94 <__sflush_r+0x1ac>
   17028:	0099a023          	sw	s1,0(s3)
   1702c:	01412483          	lw	s1,20(sp)
   17030:	ee1ff06f          	j	16f10 <__sflush_r+0x128>

00017034 <_fflush_r>:
   17034:	ff010113          	add	sp,sp,-16
   17038:	00812423          	sw	s0,8(sp)
   1703c:	00912223          	sw	s1,4(sp)
   17040:	00112623          	sw	ra,12(sp)
   17044:	01212023          	sw	s2,0(sp)
   17048:	00050493          	mv	s1,a0
   1704c:	00058413          	mv	s0,a1
   17050:	00050663          	beqz	a0,1705c <_fflush_r+0x28>
   17054:	03452783          	lw	a5,52(a0)
   17058:	0a078a63          	beqz	a5,1710c <_fflush_r+0xd8>
   1705c:	00c41783          	lh	a5,12(s0)
   17060:	00000913          	li	s2,0
   17064:	04078063          	beqz	a5,170a4 <_fflush_r+0x70>
   17068:	06442703          	lw	a4,100(s0)
   1706c:	00177713          	and	a4,a4,1
   17070:	00071663          	bnez	a4,1707c <_fflush_r+0x48>
   17074:	2007f793          	and	a5,a5,512
   17078:	04078463          	beqz	a5,170c0 <_fflush_r+0x8c>
   1707c:	00040593          	mv	a1,s0
   17080:	00048513          	mv	a0,s1
   17084:	d65ff0ef          	jal	16de8 <__sflush_r>
   17088:	06442783          	lw	a5,100(s0)
   1708c:	00050913          	mv	s2,a0
   17090:	0017f793          	and	a5,a5,1
   17094:	00079863          	bnez	a5,170a4 <_fflush_r+0x70>
   17098:	00c45783          	lhu	a5,12(s0)
   1709c:	2007f793          	and	a5,a5,512
   170a0:	04078463          	beqz	a5,170e8 <_fflush_r+0xb4>
   170a4:	00c12083          	lw	ra,12(sp)
   170a8:	00812403          	lw	s0,8(sp)
   170ac:	00412483          	lw	s1,4(sp)
   170b0:	00090513          	mv	a0,s2
   170b4:	00012903          	lw	s2,0(sp)
   170b8:	01010113          	add	sp,sp,16
   170bc:	00008067          	ret
   170c0:	05842503          	lw	a0,88(s0)
   170c4:	cc4fa0ef          	jal	11588 <__retarget_lock_acquire_recursive>
   170c8:	00040593          	mv	a1,s0
   170cc:	00048513          	mv	a0,s1
   170d0:	d19ff0ef          	jal	16de8 <__sflush_r>
   170d4:	06442783          	lw	a5,100(s0)
   170d8:	00050913          	mv	s2,a0
   170dc:	0017f793          	and	a5,a5,1
   170e0:	fc0792e3          	bnez	a5,170a4 <_fflush_r+0x70>
   170e4:	fb5ff06f          	j	17098 <_fflush_r+0x64>
   170e8:	05842503          	lw	a0,88(s0)
   170ec:	cb4fa0ef          	jal	115a0 <__retarget_lock_release_recursive>
   170f0:	00c12083          	lw	ra,12(sp)
   170f4:	00812403          	lw	s0,8(sp)
   170f8:	00412483          	lw	s1,4(sp)
   170fc:	00090513          	mv	a0,s2
   17100:	00012903          	lw	s2,0(sp)
   17104:	01010113          	add	sp,sp,16
   17108:	00008067          	ret
   1710c:	dd5f90ef          	jal	10ee0 <__sinit>
   17110:	f4dff06f          	j	1705c <_fflush_r+0x28>

00017114 <fflush>:
   17114:	0a050a63          	beqz	a0,171c8 <fflush+0xb4>
   17118:	ff010113          	add	sp,sp,-16
   1711c:	00812423          	sw	s0,8(sp)
   17120:	01212023          	sw	s2,0(sp)
   17124:	00112623          	sw	ra,12(sp)
   17128:	00912223          	sw	s1,4(sp)
   1712c:	f341a903          	lw	s2,-204(gp) # 24904 <_impure_ptr>
   17130:	00050413          	mv	s0,a0
   17134:	00090663          	beqz	s2,17140 <fflush+0x2c>
   17138:	03492783          	lw	a5,52(s2)
   1713c:	06078463          	beqz	a5,171a4 <fflush+0x90>
   17140:	00c41783          	lh	a5,12(s0)
   17144:	00000493          	li	s1,0
   17148:	04078063          	beqz	a5,17188 <fflush+0x74>
   1714c:	06442703          	lw	a4,100(s0)
   17150:	00177713          	and	a4,a4,1
   17154:	00071663          	bnez	a4,17160 <fflush+0x4c>
   17158:	2007f793          	and	a5,a5,512
   1715c:	04078a63          	beqz	a5,171b0 <fflush+0x9c>
   17160:	00040593          	mv	a1,s0
   17164:	00090513          	mv	a0,s2
   17168:	c81ff0ef          	jal	16de8 <__sflush_r>
   1716c:	06442783          	lw	a5,100(s0)
   17170:	00050493          	mv	s1,a0
   17174:	0017f793          	and	a5,a5,1
   17178:	00079863          	bnez	a5,17188 <fflush+0x74>
   1717c:	00c45783          	lhu	a5,12(s0)
   17180:	2007f793          	and	a5,a5,512
   17184:	02078c63          	beqz	a5,171bc <fflush+0xa8>
   17188:	00c12083          	lw	ra,12(sp)
   1718c:	00812403          	lw	s0,8(sp)
   17190:	00012903          	lw	s2,0(sp)
   17194:	00048513          	mv	a0,s1
   17198:	00412483          	lw	s1,4(sp)
   1719c:	01010113          	add	sp,sp,16
   171a0:	00008067          	ret
   171a4:	00090513          	mv	a0,s2
   171a8:	d39f90ef          	jal	10ee0 <__sinit>
   171ac:	f95ff06f          	j	17140 <fflush+0x2c>
   171b0:	05842503          	lw	a0,88(s0)
   171b4:	bd4fa0ef          	jal	11588 <__retarget_lock_acquire_recursive>
   171b8:	fa9ff06f          	j	17160 <fflush+0x4c>
   171bc:	05842503          	lw	a0,88(s0)
   171c0:	be0fa0ef          	jal	115a0 <__retarget_lock_release_recursive>
   171c4:	fc5ff06f          	j	17188 <fflush+0x74>
   171c8:	0000d617          	auipc	a2,0xd
   171cc:	00860613          	add	a2,a2,8 # 241d0 <__sglue>
   171d0:	00000597          	auipc	a1,0x0
   171d4:	e6458593          	add	a1,a1,-412 # 17034 <_fflush_r>
   171d8:	0000d517          	auipc	a0,0xd
   171dc:	00850513          	add	a0,a0,8 # 241e0 <_impure_data>
   171e0:	dd1f906f          	j	10fb0 <_fwalk_sglue>

000171e4 <__sfvwrite_r>:
   171e4:	00862783          	lw	a5,8(a2)
   171e8:	2c078463          	beqz	a5,174b0 <__sfvwrite_r+0x2cc>
   171ec:	00c59683          	lh	a3,12(a1)
   171f0:	fd010113          	add	sp,sp,-48
   171f4:	02812423          	sw	s0,40(sp)
   171f8:	01412c23          	sw	s4,24(sp)
   171fc:	01612823          	sw	s6,16(sp)
   17200:	02112623          	sw	ra,44(sp)
   17204:	0086f793          	and	a5,a3,8
   17208:	00060b13          	mv	s6,a2
   1720c:	00050a13          	mv	s4,a0
   17210:	00058413          	mv	s0,a1
   17214:	08078e63          	beqz	a5,172b0 <__sfvwrite_r+0xcc>
   17218:	0105a783          	lw	a5,16(a1)
   1721c:	08078a63          	beqz	a5,172b0 <__sfvwrite_r+0xcc>
   17220:	02912223          	sw	s1,36(sp)
   17224:	03212023          	sw	s2,32(sp)
   17228:	01312e23          	sw	s3,28(sp)
   1722c:	01512a23          	sw	s5,20(sp)
   17230:	0026f793          	and	a5,a3,2
   17234:	000b2483          	lw	s1,0(s6)
   17238:	0a078463          	beqz	a5,172e0 <__sfvwrite_r+0xfc>
   1723c:	02442783          	lw	a5,36(s0)
   17240:	01c42583          	lw	a1,28(s0)
   17244:	80000ab7          	lui	s5,0x80000
   17248:	00000993          	li	s3,0
   1724c:	00000913          	li	s2,0
   17250:	c00a8a93          	add	s5,s5,-1024 # 7ffffc00 <__BSS_END__+0x7ffdacf0>
   17254:	00098613          	mv	a2,s3
   17258:	000a0513          	mv	a0,s4
   1725c:	04090263          	beqz	s2,172a0 <__sfvwrite_r+0xbc>
   17260:	00090693          	mv	a3,s2
   17264:	012af463          	bgeu	s5,s2,1726c <__sfvwrite_r+0x88>
   17268:	000a8693          	mv	a3,s5
   1726c:	000780e7          	jalr	a5
   17270:	46a05263          	blez	a0,176d4 <__sfvwrite_r+0x4f0>
   17274:	008b2783          	lw	a5,8(s6)
   17278:	00a989b3          	add	s3,s3,a0
   1727c:	40a90933          	sub	s2,s2,a0
   17280:	40a787b3          	sub	a5,a5,a0
   17284:	00fb2423          	sw	a5,8(s6)
   17288:	1a078663          	beqz	a5,17434 <__sfvwrite_r+0x250>
   1728c:	02442783          	lw	a5,36(s0)
   17290:	01c42583          	lw	a1,28(s0)
   17294:	00098613          	mv	a2,s3
   17298:	000a0513          	mv	a0,s4
   1729c:	fc0912e3          	bnez	s2,17260 <__sfvwrite_r+0x7c>
   172a0:	0004a983          	lw	s3,0(s1)
   172a4:	0044a903          	lw	s2,4(s1)
   172a8:	00848493          	add	s1,s1,8
   172ac:	fa9ff06f          	j	17254 <__sfvwrite_r+0x70>
   172b0:	00040593          	mv	a1,s0
   172b4:	000a0513          	mv	a0,s4
   172b8:	440000ef          	jal	176f8 <__swsetup_r>
   172bc:	1c051c63          	bnez	a0,17494 <__sfvwrite_r+0x2b0>
   172c0:	00c41683          	lh	a3,12(s0)
   172c4:	02912223          	sw	s1,36(sp)
   172c8:	03212023          	sw	s2,32(sp)
   172cc:	01312e23          	sw	s3,28(sp)
   172d0:	01512a23          	sw	s5,20(sp)
   172d4:	0026f793          	and	a5,a3,2
   172d8:	000b2483          	lw	s1,0(s6)
   172dc:	f60790e3          	bnez	a5,1723c <__sfvwrite_r+0x58>
   172e0:	01712623          	sw	s7,12(sp)
   172e4:	01812423          	sw	s8,8(sp)
   172e8:	0016f793          	and	a5,a3,1
   172ec:	1c079663          	bnez	a5,174b8 <__sfvwrite_r+0x2d4>
   172f0:	00042783          	lw	a5,0(s0)
   172f4:	00842703          	lw	a4,8(s0)
   172f8:	80000ab7          	lui	s5,0x80000
   172fc:	01912223          	sw	s9,4(sp)
   17300:	00000b93          	li	s7,0
   17304:	00000993          	li	s3,0
   17308:	fffa8a93          	add	s5,s5,-1 # 7fffffff <__BSS_END__+0x7ffdb0ef>
   1730c:	00078513          	mv	a0,a5
   17310:	00070c13          	mv	s8,a4
   17314:	10098263          	beqz	s3,17418 <__sfvwrite_r+0x234>
   17318:	2006f613          	and	a2,a3,512
   1731c:	28060863          	beqz	a2,175ac <__sfvwrite_r+0x3c8>
   17320:	00070c93          	mv	s9,a4
   17324:	32e9e863          	bltu	s3,a4,17654 <__sfvwrite_r+0x470>
   17328:	4806f713          	and	a4,a3,1152
   1732c:	08070a63          	beqz	a4,173c0 <__sfvwrite_r+0x1dc>
   17330:	01442603          	lw	a2,20(s0)
   17334:	01042583          	lw	a1,16(s0)
   17338:	00161713          	sll	a4,a2,0x1
   1733c:	00c70733          	add	a4,a4,a2
   17340:	40b78933          	sub	s2,a5,a1
   17344:	01f75c13          	srl	s8,a4,0x1f
   17348:	00ec0c33          	add	s8,s8,a4
   1734c:	00190793          	add	a5,s2,1
   17350:	401c5c13          	sra	s8,s8,0x1
   17354:	013787b3          	add	a5,a5,s3
   17358:	000c0613          	mv	a2,s8
   1735c:	00fc7663          	bgeu	s8,a5,17368 <__sfvwrite_r+0x184>
   17360:	00078c13          	mv	s8,a5
   17364:	00078613          	mv	a2,a5
   17368:	4006f693          	and	a3,a3,1024
   1736c:	32068063          	beqz	a3,1768c <__sfvwrite_r+0x4a8>
   17370:	00060593          	mv	a1,a2
   17374:	000a0513          	mv	a0,s4
   17378:	979fa0ef          	jal	11cf0 <_malloc_r>
   1737c:	00050c93          	mv	s9,a0
   17380:	34050e63          	beqz	a0,176dc <__sfvwrite_r+0x4f8>
   17384:	01042583          	lw	a1,16(s0)
   17388:	00090613          	mv	a2,s2
   1738c:	7d4010ef          	jal	18b60 <memcpy>
   17390:	00c45783          	lhu	a5,12(s0)
   17394:	b7f7f793          	and	a5,a5,-1153
   17398:	0807e793          	or	a5,a5,128
   1739c:	00f41623          	sh	a5,12(s0)
   173a0:	012c8533          	add	a0,s9,s2
   173a4:	412c07b3          	sub	a5,s8,s2
   173a8:	01942823          	sw	s9,16(s0)
   173ac:	01842a23          	sw	s8,20(s0)
   173b0:	00a42023          	sw	a0,0(s0)
   173b4:	00098c13          	mv	s8,s3
   173b8:	00f42423          	sw	a5,8(s0)
   173bc:	00098c93          	mv	s9,s3
   173c0:	000c8613          	mv	a2,s9
   173c4:	000b8593          	mv	a1,s7
   173c8:	68c010ef          	jal	18a54 <memmove>
   173cc:	00842703          	lw	a4,8(s0)
   173d0:	00042783          	lw	a5,0(s0)
   173d4:	00098913          	mv	s2,s3
   173d8:	41870733          	sub	a4,a4,s8
   173dc:	019787b3          	add	a5,a5,s9
   173e0:	00e42423          	sw	a4,8(s0)
   173e4:	00f42023          	sw	a5,0(s0)
   173e8:	00000993          	li	s3,0
   173ec:	008b2783          	lw	a5,8(s6)
   173f0:	012b8bb3          	add	s7,s7,s2
   173f4:	412787b3          	sub	a5,a5,s2
   173f8:	00fb2423          	sw	a5,8(s6)
   173fc:	02078663          	beqz	a5,17428 <__sfvwrite_r+0x244>
   17400:	00042783          	lw	a5,0(s0)
   17404:	00842703          	lw	a4,8(s0)
   17408:	00c41683          	lh	a3,12(s0)
   1740c:	00078513          	mv	a0,a5
   17410:	00070c13          	mv	s8,a4
   17414:	f00992e3          	bnez	s3,17318 <__sfvwrite_r+0x134>
   17418:	0004ab83          	lw	s7,0(s1)
   1741c:	0044a983          	lw	s3,4(s1)
   17420:	00848493          	add	s1,s1,8
   17424:	ee9ff06f          	j	1730c <__sfvwrite_r+0x128>
   17428:	00c12b83          	lw	s7,12(sp)
   1742c:	00812c03          	lw	s8,8(sp)
   17430:	00412c83          	lw	s9,4(sp)
   17434:	02c12083          	lw	ra,44(sp)
   17438:	02812403          	lw	s0,40(sp)
   1743c:	02412483          	lw	s1,36(sp)
   17440:	02012903          	lw	s2,32(sp)
   17444:	01c12983          	lw	s3,28(sp)
   17448:	01412a83          	lw	s5,20(sp)
   1744c:	01812a03          	lw	s4,24(sp)
   17450:	01012b03          	lw	s6,16(sp)
   17454:	00000513          	li	a0,0
   17458:	03010113          	add	sp,sp,48
   1745c:	00008067          	ret
   17460:	00040593          	mv	a1,s0
   17464:	000a0513          	mv	a0,s4
   17468:	bcdff0ef          	jal	17034 <_fflush_r>
   1746c:	0a050e63          	beqz	a0,17528 <__sfvwrite_r+0x344>
   17470:	00c41783          	lh	a5,12(s0)
   17474:	00c12b83          	lw	s7,12(sp)
   17478:	00812c03          	lw	s8,8(sp)
   1747c:	02412483          	lw	s1,36(sp)
   17480:	02012903          	lw	s2,32(sp)
   17484:	01c12983          	lw	s3,28(sp)
   17488:	01412a83          	lw	s5,20(sp)
   1748c:	0407e793          	or	a5,a5,64
   17490:	00f41623          	sh	a5,12(s0)
   17494:	02c12083          	lw	ra,44(sp)
   17498:	02812403          	lw	s0,40(sp)
   1749c:	01812a03          	lw	s4,24(sp)
   174a0:	01012b03          	lw	s6,16(sp)
   174a4:	fff00513          	li	a0,-1
   174a8:	03010113          	add	sp,sp,48
   174ac:	00008067          	ret
   174b0:	00000513          	li	a0,0
   174b4:	00008067          	ret
   174b8:	00000a93          	li	s5,0
   174bc:	00000513          	li	a0,0
   174c0:	00000c13          	li	s8,0
   174c4:	00000993          	li	s3,0
   174c8:	08098263          	beqz	s3,1754c <__sfvwrite_r+0x368>
   174cc:	08050a63          	beqz	a0,17560 <__sfvwrite_r+0x37c>
   174d0:	000a8793          	mv	a5,s5
   174d4:	00098b93          	mv	s7,s3
   174d8:	0137f463          	bgeu	a5,s3,174e0 <__sfvwrite_r+0x2fc>
   174dc:	00078b93          	mv	s7,a5
   174e0:	00042503          	lw	a0,0(s0)
   174e4:	01042783          	lw	a5,16(s0)
   174e8:	00842903          	lw	s2,8(s0)
   174ec:	01442683          	lw	a3,20(s0)
   174f0:	00a7f663          	bgeu	a5,a0,174fc <__sfvwrite_r+0x318>
   174f4:	00d90933          	add	s2,s2,a3
   174f8:	09794463          	blt	s2,s7,17580 <__sfvwrite_r+0x39c>
   174fc:	16dbc263          	blt	s7,a3,17660 <__sfvwrite_r+0x47c>
   17500:	02442783          	lw	a5,36(s0)
   17504:	01c42583          	lw	a1,28(s0)
   17508:	000c0613          	mv	a2,s8
   1750c:	000a0513          	mv	a0,s4
   17510:	000780e7          	jalr	a5
   17514:	00050913          	mv	s2,a0
   17518:	f4a05ce3          	blez	a0,17470 <__sfvwrite_r+0x28c>
   1751c:	412a8ab3          	sub	s5,s5,s2
   17520:	00100513          	li	a0,1
   17524:	f20a8ee3          	beqz	s5,17460 <__sfvwrite_r+0x27c>
   17528:	008b2783          	lw	a5,8(s6)
   1752c:	012c0c33          	add	s8,s8,s2
   17530:	412989b3          	sub	s3,s3,s2
   17534:	412787b3          	sub	a5,a5,s2
   17538:	00fb2423          	sw	a5,8(s6)
   1753c:	f80796e3          	bnez	a5,174c8 <__sfvwrite_r+0x2e4>
   17540:	00c12b83          	lw	s7,12(sp)
   17544:	00812c03          	lw	s8,8(sp)
   17548:	eedff06f          	j	17434 <__sfvwrite_r+0x250>
   1754c:	0044a983          	lw	s3,4(s1)
   17550:	00048793          	mv	a5,s1
   17554:	00848493          	add	s1,s1,8
   17558:	fe098ae3          	beqz	s3,1754c <__sfvwrite_r+0x368>
   1755c:	0007ac03          	lw	s8,0(a5)
   17560:	00098613          	mv	a2,s3
   17564:	00a00593          	li	a1,10
   17568:	000c0513          	mv	a0,s8
   1756c:	5e8000ef          	jal	17b54 <memchr>
   17570:	14050c63          	beqz	a0,176c8 <__sfvwrite_r+0x4e4>
   17574:	00150513          	add	a0,a0,1
   17578:	41850ab3          	sub	s5,a0,s8
   1757c:	f55ff06f          	j	174d0 <__sfvwrite_r+0x2ec>
   17580:	000c0593          	mv	a1,s8
   17584:	00090613          	mv	a2,s2
   17588:	4cc010ef          	jal	18a54 <memmove>
   1758c:	00042783          	lw	a5,0(s0)
   17590:	00040593          	mv	a1,s0
   17594:	000a0513          	mv	a0,s4
   17598:	012787b3          	add	a5,a5,s2
   1759c:	00f42023          	sw	a5,0(s0)
   175a0:	a95ff0ef          	jal	17034 <_fflush_r>
   175a4:	f6050ce3          	beqz	a0,1751c <__sfvwrite_r+0x338>
   175a8:	ec9ff06f          	j	17470 <__sfvwrite_r+0x28c>
   175ac:	01042683          	lw	a3,16(s0)
   175b0:	04f6e463          	bltu	a3,a5,175f8 <__sfvwrite_r+0x414>
   175b4:	01442583          	lw	a1,20(s0)
   175b8:	04b9e063          	bltu	s3,a1,175f8 <__sfvwrite_r+0x414>
   175bc:	00098913          	mv	s2,s3
   175c0:	013af463          	bgeu	s5,s3,175c8 <__sfvwrite_r+0x3e4>
   175c4:	000a8913          	mv	s2,s5
   175c8:	00090513          	mv	a0,s2
   175cc:	3a90a0ef          	jal	22174 <__modsi3>
   175d0:	02442783          	lw	a5,36(s0)
   175d4:	01c42583          	lw	a1,28(s0)
   175d8:	40a906b3          	sub	a3,s2,a0
   175dc:	000b8613          	mv	a2,s7
   175e0:	000a0513          	mv	a0,s4
   175e4:	000780e7          	jalr	a5
   175e8:	00050913          	mv	s2,a0
   175ec:	04a05a63          	blez	a0,17640 <__sfvwrite_r+0x45c>
   175f0:	412989b3          	sub	s3,s3,s2
   175f4:	df9ff06f          	j	173ec <__sfvwrite_r+0x208>
   175f8:	00070913          	mv	s2,a4
   175fc:	00e9f463          	bgeu	s3,a4,17604 <__sfvwrite_r+0x420>
   17600:	00098913          	mv	s2,s3
   17604:	00078513          	mv	a0,a5
   17608:	00090613          	mv	a2,s2
   1760c:	000b8593          	mv	a1,s7
   17610:	444010ef          	jal	18a54 <memmove>
   17614:	00842703          	lw	a4,8(s0)
   17618:	00042783          	lw	a5,0(s0)
   1761c:	41270733          	sub	a4,a4,s2
   17620:	012787b3          	add	a5,a5,s2
   17624:	00e42423          	sw	a4,8(s0)
   17628:	00f42023          	sw	a5,0(s0)
   1762c:	fc0712e3          	bnez	a4,175f0 <__sfvwrite_r+0x40c>
   17630:	00040593          	mv	a1,s0
   17634:	000a0513          	mv	a0,s4
   17638:	9fdff0ef          	jal	17034 <_fflush_r>
   1763c:	fa050ae3          	beqz	a0,175f0 <__sfvwrite_r+0x40c>
   17640:	00c41783          	lh	a5,12(s0)
   17644:	00c12b83          	lw	s7,12(sp)
   17648:	00812c03          	lw	s8,8(sp)
   1764c:	00412c83          	lw	s9,4(sp)
   17650:	e2dff06f          	j	1747c <__sfvwrite_r+0x298>
   17654:	00098c13          	mv	s8,s3
   17658:	00098c93          	mv	s9,s3
   1765c:	d65ff06f          	j	173c0 <__sfvwrite_r+0x1dc>
   17660:	000b8613          	mv	a2,s7
   17664:	000c0593          	mv	a1,s8
   17668:	3ec010ef          	jal	18a54 <memmove>
   1766c:	00842703          	lw	a4,8(s0)
   17670:	00042783          	lw	a5,0(s0)
   17674:	000b8913          	mv	s2,s7
   17678:	41770733          	sub	a4,a4,s7
   1767c:	017787b3          	add	a5,a5,s7
   17680:	00e42423          	sw	a4,8(s0)
   17684:	00f42023          	sw	a5,0(s0)
   17688:	e95ff06f          	j	1751c <__sfvwrite_r+0x338>
   1768c:	000a0513          	mv	a0,s4
   17690:	7d1040ef          	jal	1c660 <_realloc_r>
   17694:	00050c93          	mv	s9,a0
   17698:	d00514e3          	bnez	a0,173a0 <__sfvwrite_r+0x1bc>
   1769c:	01042583          	lw	a1,16(s0)
   176a0:	000a0513          	mv	a0,s4
   176a4:	b48fa0ef          	jal	119ec <_free_r>
   176a8:	00c41783          	lh	a5,12(s0)
   176ac:	00c00713          	li	a4,12
   176b0:	00c12b83          	lw	s7,12(sp)
   176b4:	00812c03          	lw	s8,8(sp)
   176b8:	00412c83          	lw	s9,4(sp)
   176bc:	00ea2023          	sw	a4,0(s4)
   176c0:	f7f7f793          	and	a5,a5,-129
   176c4:	db9ff06f          	j	1747c <__sfvwrite_r+0x298>
   176c8:	00198793          	add	a5,s3,1
   176cc:	00078a93          	mv	s5,a5
   176d0:	e05ff06f          	j	174d4 <__sfvwrite_r+0x2f0>
   176d4:	00c41783          	lh	a5,12(s0)
   176d8:	da5ff06f          	j	1747c <__sfvwrite_r+0x298>
   176dc:	00c00713          	li	a4,12
   176e0:	00c41783          	lh	a5,12(s0)
   176e4:	00c12b83          	lw	s7,12(sp)
   176e8:	00812c03          	lw	s8,8(sp)
   176ec:	00412c83          	lw	s9,4(sp)
   176f0:	00ea2023          	sw	a4,0(s4)
   176f4:	d89ff06f          	j	1747c <__sfvwrite_r+0x298>

000176f8 <__swsetup_r>:
   176f8:	ff010113          	add	sp,sp,-16
   176fc:	00812423          	sw	s0,8(sp)
   17700:	00912223          	sw	s1,4(sp)
   17704:	00112623          	sw	ra,12(sp)
   17708:	f341a783          	lw	a5,-204(gp) # 24904 <_impure_ptr>
   1770c:	00050493          	mv	s1,a0
   17710:	00058413          	mv	s0,a1
   17714:	00078663          	beqz	a5,17720 <__swsetup_r+0x28>
   17718:	0347a703          	lw	a4,52(a5)
   1771c:	0e070c63          	beqz	a4,17814 <__swsetup_r+0x11c>
   17720:	00c41783          	lh	a5,12(s0)
   17724:	0087f713          	and	a4,a5,8
   17728:	06070a63          	beqz	a4,1779c <__swsetup_r+0xa4>
   1772c:	01042703          	lw	a4,16(s0)
   17730:	08070663          	beqz	a4,177bc <__swsetup_r+0xc4>
   17734:	0017f693          	and	a3,a5,1
   17738:	02068863          	beqz	a3,17768 <__swsetup_r+0x70>
   1773c:	01442683          	lw	a3,20(s0)
   17740:	00042423          	sw	zero,8(s0)
   17744:	00000513          	li	a0,0
   17748:	40d006b3          	neg	a3,a3
   1774c:	00d42c23          	sw	a3,24(s0)
   17750:	02070a63          	beqz	a4,17784 <__swsetup_r+0x8c>
   17754:	00c12083          	lw	ra,12(sp)
   17758:	00812403          	lw	s0,8(sp)
   1775c:	00412483          	lw	s1,4(sp)
   17760:	01010113          	add	sp,sp,16
   17764:	00008067          	ret
   17768:	0027f693          	and	a3,a5,2
   1776c:	00000613          	li	a2,0
   17770:	00069463          	bnez	a3,17778 <__swsetup_r+0x80>
   17774:	01442603          	lw	a2,20(s0)
   17778:	00c42423          	sw	a2,8(s0)
   1777c:	00000513          	li	a0,0
   17780:	fc071ae3          	bnez	a4,17754 <__swsetup_r+0x5c>
   17784:	0807f713          	and	a4,a5,128
   17788:	fc0706e3          	beqz	a4,17754 <__swsetup_r+0x5c>
   1778c:	0407e793          	or	a5,a5,64
   17790:	00f41623          	sh	a5,12(s0)
   17794:	fff00513          	li	a0,-1
   17798:	fbdff06f          	j	17754 <__swsetup_r+0x5c>
   1779c:	0107f713          	and	a4,a5,16
   177a0:	08070063          	beqz	a4,17820 <__swsetup_r+0x128>
   177a4:	0047f713          	and	a4,a5,4
   177a8:	02071c63          	bnez	a4,177e0 <__swsetup_r+0xe8>
   177ac:	01042703          	lw	a4,16(s0)
   177b0:	0087e793          	or	a5,a5,8
   177b4:	00f41623          	sh	a5,12(s0)
   177b8:	f6071ee3          	bnez	a4,17734 <__swsetup_r+0x3c>
   177bc:	2807f693          	and	a3,a5,640
   177c0:	20000613          	li	a2,512
   177c4:	f6c688e3          	beq	a3,a2,17734 <__swsetup_r+0x3c>
   177c8:	00040593          	mv	a1,s0
   177cc:	00048513          	mv	a0,s1
   177d0:	329050ef          	jal	1d2f8 <__smakebuf_r>
   177d4:	00c41783          	lh	a5,12(s0)
   177d8:	01042703          	lw	a4,16(s0)
   177dc:	f59ff06f          	j	17734 <__swsetup_r+0x3c>
   177e0:	03042583          	lw	a1,48(s0)
   177e4:	00058e63          	beqz	a1,17800 <__swsetup_r+0x108>
   177e8:	04040713          	add	a4,s0,64
   177ec:	00e58863          	beq	a1,a4,177fc <__swsetup_r+0x104>
   177f0:	00048513          	mv	a0,s1
   177f4:	9f8fa0ef          	jal	119ec <_free_r>
   177f8:	00c41783          	lh	a5,12(s0)
   177fc:	02042823          	sw	zero,48(s0)
   17800:	01042703          	lw	a4,16(s0)
   17804:	fdb7f793          	and	a5,a5,-37
   17808:	00042223          	sw	zero,4(s0)
   1780c:	00e42023          	sw	a4,0(s0)
   17810:	fa1ff06f          	j	177b0 <__swsetup_r+0xb8>
   17814:	00078513          	mv	a0,a5
   17818:	ec8f90ef          	jal	10ee0 <__sinit>
   1781c:	f05ff06f          	j	17720 <__swsetup_r+0x28>
   17820:	00900713          	li	a4,9
   17824:	00e4a023          	sw	a4,0(s1)
   17828:	0407e793          	or	a5,a5,64
   1782c:	00f41623          	sh	a5,12(s0)
   17830:	fff00513          	li	a0,-1
   17834:	f21ff06f          	j	17754 <__swsetup_r+0x5c>

00017838 <__fputwc>:
   17838:	fc010113          	add	sp,sp,-64
   1783c:	02812c23          	sw	s0,56(sp)
   17840:	03412423          	sw	s4,40(sp)
   17844:	03512223          	sw	s5,36(sp)
   17848:	02112e23          	sw	ra,60(sp)
   1784c:	02912a23          	sw	s1,52(sp)
   17850:	03312623          	sw	s3,44(sp)
   17854:	00050a13          	mv	s4,a0
   17858:	00058a93          	mv	s5,a1
   1785c:	00060413          	mv	s0,a2
   17860:	174010ef          	jal	189d4 <__locale_mb_cur_max>
   17864:	00100793          	li	a5,1
   17868:	02f51663          	bne	a0,a5,17894 <__fputwc+0x5c>
   1786c:	fffa8793          	add	a5,s5,-1
   17870:	0fe00713          	li	a4,254
   17874:	02f76063          	bltu	a4,a5,17894 <__fputwc+0x5c>
   17878:	03212823          	sw	s2,48(sp)
   1787c:	03612023          	sw	s6,32(sp)
   17880:	01712e23          	sw	s7,28(sp)
   17884:	01510423          	sb	s5,8(sp)
   17888:	00100993          	li	s3,1
   1788c:	00810493          	add	s1,sp,8
   17890:	0380006f          	j	178c8 <__fputwc+0x90>
   17894:	00810493          	add	s1,sp,8
   17898:	05c40693          	add	a3,s0,92
   1789c:	000a8613          	mv	a2,s5
   178a0:	00048593          	mv	a1,s1
   178a4:	000a0513          	mv	a0,s4
   178a8:	0f1050ef          	jal	1d198 <_wcrtomb_r>
   178ac:	fff00793          	li	a5,-1
   178b0:	00050993          	mv	s3,a0
   178b4:	0cf50a63          	beq	a0,a5,17988 <__fputwc+0x150>
   178b8:	0a050663          	beqz	a0,17964 <__fputwc+0x12c>
   178bc:	03212823          	sw	s2,48(sp)
   178c0:	03612023          	sw	s6,32(sp)
   178c4:	01712e23          	sw	s7,28(sp)
   178c8:	00000913          	li	s2,0
   178cc:	fff00b13          	li	s6,-1
   178d0:	00a00b93          	li	s7,10
   178d4:	0200006f          	j	178f4 <__fputwc+0xbc>
   178d8:	00042783          	lw	a5,0(s0)
   178dc:	00178693          	add	a3,a5,1
   178e0:	00d42023          	sw	a3,0(s0)
   178e4:	00e78023          	sb	a4,0(a5)
   178e8:	00190913          	add	s2,s2,1
   178ec:	00148493          	add	s1,s1,1
   178f0:	07397463          	bgeu	s2,s3,17958 <__fputwc+0x120>
   178f4:	00842783          	lw	a5,8(s0)
   178f8:	0004c703          	lbu	a4,0(s1)
   178fc:	fff78793          	add	a5,a5,-1
   17900:	00f42423          	sw	a5,8(s0)
   17904:	fc07dae3          	bgez	a5,178d8 <__fputwc+0xa0>
   17908:	01842683          	lw	a3,24(s0)
   1790c:	00040613          	mv	a2,s0
   17910:	00070593          	mv	a1,a4
   17914:	000a0513          	mv	a0,s4
   17918:	00d7c463          	blt	a5,a3,17920 <__fputwc+0xe8>
   1791c:	fb771ee3          	bne	a4,s7,178d8 <__fputwc+0xa0>
   17920:	449050ef          	jal	1d568 <__swbuf_r>
   17924:	fd6512e3          	bne	a0,s6,178e8 <__fputwc+0xb0>
   17928:	03012903          	lw	s2,48(sp)
   1792c:	02012b03          	lw	s6,32(sp)
   17930:	01c12b83          	lw	s7,28(sp)
   17934:	03c12083          	lw	ra,60(sp)
   17938:	03812403          	lw	s0,56(sp)
   1793c:	03412483          	lw	s1,52(sp)
   17940:	02c12983          	lw	s3,44(sp)
   17944:	02812a03          	lw	s4,40(sp)
   17948:	02412a83          	lw	s5,36(sp)
   1794c:	fff00513          	li	a0,-1
   17950:	04010113          	add	sp,sp,64
   17954:	00008067          	ret
   17958:	03012903          	lw	s2,48(sp)
   1795c:	02012b03          	lw	s6,32(sp)
   17960:	01c12b83          	lw	s7,28(sp)
   17964:	03c12083          	lw	ra,60(sp)
   17968:	03812403          	lw	s0,56(sp)
   1796c:	03412483          	lw	s1,52(sp)
   17970:	02c12983          	lw	s3,44(sp)
   17974:	02812a03          	lw	s4,40(sp)
   17978:	000a8513          	mv	a0,s5
   1797c:	02412a83          	lw	s5,36(sp)
   17980:	04010113          	add	sp,sp,64
   17984:	00008067          	ret
   17988:	00c45783          	lhu	a5,12(s0)
   1798c:	0407e793          	or	a5,a5,64
   17990:	00f41623          	sh	a5,12(s0)
   17994:	fa1ff06f          	j	17934 <__fputwc+0xfc>

00017998 <_fputwc_r>:
   17998:	06462783          	lw	a5,100(a2)
   1799c:	fe010113          	add	sp,sp,-32
   179a0:	00812c23          	sw	s0,24(sp)
   179a4:	00912a23          	sw	s1,20(sp)
   179a8:	0017f713          	and	a4,a5,1
   179ac:	00112e23          	sw	ra,28(sp)
   179b0:	00c61783          	lh	a5,12(a2)
   179b4:	00060413          	mv	s0,a2
   179b8:	00050493          	mv	s1,a0
   179bc:	00071663          	bnez	a4,179c8 <_fputwc_r+0x30>
   179c0:	2007f713          	and	a4,a5,512
   179c4:	08070463          	beqz	a4,17a4c <_fputwc_r+0xb4>
   179c8:	01279713          	sll	a4,a5,0x12
   179cc:	02074063          	bltz	a4,179ec <_fputwc_r+0x54>
   179d0:	06442703          	lw	a4,100(s0)
   179d4:	000026b7          	lui	a3,0x2
   179d8:	00d7e7b3          	or	a5,a5,a3
   179dc:	000026b7          	lui	a3,0x2
   179e0:	00d76733          	or	a4,a4,a3
   179e4:	00f41623          	sh	a5,12(s0)
   179e8:	06e42223          	sw	a4,100(s0)
   179ec:	00048513          	mv	a0,s1
   179f0:	00040613          	mv	a2,s0
   179f4:	e45ff0ef          	jal	17838 <__fputwc>
   179f8:	06442783          	lw	a5,100(s0)
   179fc:	00050493          	mv	s1,a0
   17a00:	0017f793          	and	a5,a5,1
   17a04:	00079863          	bnez	a5,17a14 <_fputwc_r+0x7c>
   17a08:	00c45783          	lhu	a5,12(s0)
   17a0c:	2007f793          	and	a5,a5,512
   17a10:	00078e63          	beqz	a5,17a2c <_fputwc_r+0x94>
   17a14:	01c12083          	lw	ra,28(sp)
   17a18:	01812403          	lw	s0,24(sp)
   17a1c:	00048513          	mv	a0,s1
   17a20:	01412483          	lw	s1,20(sp)
   17a24:	02010113          	add	sp,sp,32
   17a28:	00008067          	ret
   17a2c:	05842503          	lw	a0,88(s0)
   17a30:	b71f90ef          	jal	115a0 <__retarget_lock_release_recursive>
   17a34:	01c12083          	lw	ra,28(sp)
   17a38:	01812403          	lw	s0,24(sp)
   17a3c:	00048513          	mv	a0,s1
   17a40:	01412483          	lw	s1,20(sp)
   17a44:	02010113          	add	sp,sp,32
   17a48:	00008067          	ret
   17a4c:	05862503          	lw	a0,88(a2)
   17a50:	00b12623          	sw	a1,12(sp)
   17a54:	b35f90ef          	jal	11588 <__retarget_lock_acquire_recursive>
   17a58:	00c41783          	lh	a5,12(s0)
   17a5c:	00c12583          	lw	a1,12(sp)
   17a60:	f69ff06f          	j	179c8 <_fputwc_r+0x30>

00017a64 <fputwc>:
   17a64:	fe010113          	add	sp,sp,-32
   17a68:	00812c23          	sw	s0,24(sp)
   17a6c:	00912a23          	sw	s1,20(sp)
   17a70:	00112e23          	sw	ra,28(sp)
   17a74:	f341a483          	lw	s1,-204(gp) # 24904 <_impure_ptr>
   17a78:	00058413          	mv	s0,a1
   17a7c:	00050593          	mv	a1,a0
   17a80:	00048663          	beqz	s1,17a8c <fputwc+0x28>
   17a84:	0344a783          	lw	a5,52(s1)
   17a88:	0a078c63          	beqz	a5,17b40 <fputwc+0xdc>
   17a8c:	06442703          	lw	a4,100(s0)
   17a90:	00c41783          	lh	a5,12(s0)
   17a94:	00177713          	and	a4,a4,1
   17a98:	00071663          	bnez	a4,17aa4 <fputwc+0x40>
   17a9c:	2007f713          	and	a4,a5,512
   17aa0:	08070463          	beqz	a4,17b28 <fputwc+0xc4>
   17aa4:	01279713          	sll	a4,a5,0x12
   17aa8:	02074063          	bltz	a4,17ac8 <fputwc+0x64>
   17aac:	06442703          	lw	a4,100(s0)
   17ab0:	000026b7          	lui	a3,0x2
   17ab4:	00d7e7b3          	or	a5,a5,a3
   17ab8:	000026b7          	lui	a3,0x2
   17abc:	00d76733          	or	a4,a4,a3
   17ac0:	00f41623          	sh	a5,12(s0)
   17ac4:	06e42223          	sw	a4,100(s0)
   17ac8:	00048513          	mv	a0,s1
   17acc:	00040613          	mv	a2,s0
   17ad0:	d69ff0ef          	jal	17838 <__fputwc>
   17ad4:	06442783          	lw	a5,100(s0)
   17ad8:	00050493          	mv	s1,a0
   17adc:	0017f793          	and	a5,a5,1
   17ae0:	00079863          	bnez	a5,17af0 <fputwc+0x8c>
   17ae4:	00c45783          	lhu	a5,12(s0)
   17ae8:	2007f793          	and	a5,a5,512
   17aec:	00078e63          	beqz	a5,17b08 <fputwc+0xa4>
   17af0:	01c12083          	lw	ra,28(sp)
   17af4:	01812403          	lw	s0,24(sp)
   17af8:	00048513          	mv	a0,s1
   17afc:	01412483          	lw	s1,20(sp)
   17b00:	02010113          	add	sp,sp,32
   17b04:	00008067          	ret
   17b08:	05842503          	lw	a0,88(s0)
   17b0c:	a95f90ef          	jal	115a0 <__retarget_lock_release_recursive>
   17b10:	01c12083          	lw	ra,28(sp)
   17b14:	01812403          	lw	s0,24(sp)
   17b18:	00048513          	mv	a0,s1
   17b1c:	01412483          	lw	s1,20(sp)
   17b20:	02010113          	add	sp,sp,32
   17b24:	00008067          	ret
   17b28:	05842503          	lw	a0,88(s0)
   17b2c:	00b12623          	sw	a1,12(sp)
   17b30:	a59f90ef          	jal	11588 <__retarget_lock_acquire_recursive>
   17b34:	00c41783          	lh	a5,12(s0)
   17b38:	00c12583          	lw	a1,12(sp)
   17b3c:	f69ff06f          	j	17aa4 <fputwc+0x40>
   17b40:	00a12623          	sw	a0,12(sp)
   17b44:	00048513          	mv	a0,s1
   17b48:	b98f90ef          	jal	10ee0 <__sinit>
   17b4c:	00c12583          	lw	a1,12(sp)
   17b50:	f3dff06f          	j	17a8c <fputwc+0x28>

00017b54 <memchr>:
   17b54:	00357793          	and	a5,a0,3
   17b58:	0ff5f693          	zext.b	a3,a1
   17b5c:	02078a63          	beqz	a5,17b90 <memchr+0x3c>
   17b60:	fff60793          	add	a5,a2,-1
   17b64:	02060e63          	beqz	a2,17ba0 <memchr+0x4c>
   17b68:	fff00613          	li	a2,-1
   17b6c:	0180006f          	j	17b84 <memchr+0x30>
   17b70:	00150513          	add	a0,a0,1
   17b74:	00357713          	and	a4,a0,3
   17b78:	00070e63          	beqz	a4,17b94 <memchr+0x40>
   17b7c:	fff78793          	add	a5,a5,-1
   17b80:	02c78063          	beq	a5,a2,17ba0 <memchr+0x4c>
   17b84:	00054703          	lbu	a4,0(a0)
   17b88:	fed714e3          	bne	a4,a3,17b70 <memchr+0x1c>
   17b8c:	00008067          	ret
   17b90:	00060793          	mv	a5,a2
   17b94:	00300713          	li	a4,3
   17b98:	00f76863          	bltu	a4,a5,17ba8 <memchr+0x54>
   17b9c:	06079063          	bnez	a5,17bfc <memchr+0xa8>
   17ba0:	00000513          	li	a0,0
   17ba4:	00008067          	ret
   17ba8:	0ff5f593          	zext.b	a1,a1
   17bac:	00859713          	sll	a4,a1,0x8
   17bb0:	00b705b3          	add	a1,a4,a1
   17bb4:	01059713          	sll	a4,a1,0x10
   17bb8:	feff08b7          	lui	a7,0xfeff0
   17bbc:	80808837          	lui	a6,0x80808
   17bc0:	00e585b3          	add	a1,a1,a4
   17bc4:	eff88893          	add	a7,a7,-257 # fefefeff <__BSS_END__+0xfefcafef>
   17bc8:	08080813          	add	a6,a6,128 # 80808080 <__BSS_END__+0x807e3170>
   17bcc:	00300313          	li	t1,3
   17bd0:	0100006f          	j	17be0 <memchr+0x8c>
   17bd4:	ffc78793          	add	a5,a5,-4
   17bd8:	00450513          	add	a0,a0,4
   17bdc:	fcf370e3          	bgeu	t1,a5,17b9c <memchr+0x48>
   17be0:	00052703          	lw	a4,0(a0)
   17be4:	00e5c733          	xor	a4,a1,a4
   17be8:	01170633          	add	a2,a4,a7
   17bec:	fff74713          	not	a4,a4
   17bf0:	00e67733          	and	a4,a2,a4
   17bf4:	01077733          	and	a4,a4,a6
   17bf8:	fc070ee3          	beqz	a4,17bd4 <memchr+0x80>
   17bfc:	00f507b3          	add	a5,a0,a5
   17c00:	00c0006f          	j	17c0c <memchr+0xb8>
   17c04:	00150513          	add	a0,a0,1
   17c08:	f8f50ce3          	beq	a0,a5,17ba0 <memchr+0x4c>
   17c0c:	00054703          	lbu	a4,0(a0)
   17c10:	fed71ae3          	bne	a4,a3,17c04 <memchr+0xb0>
   17c14:	00008067          	ret

00017c18 <strncpy>:
   17c18:	00a5e7b3          	or	a5,a1,a0
   17c1c:	0037f793          	and	a5,a5,3
   17c20:	00079663          	bnez	a5,17c2c <strncpy+0x14>
   17c24:	00300793          	li	a5,3
   17c28:	04c7e663          	bltu	a5,a2,17c74 <strncpy+0x5c>
   17c2c:	00050713          	mv	a4,a0
   17c30:	01c0006f          	j	17c4c <strncpy+0x34>
   17c34:	fff5c683          	lbu	a3,-1(a1)
   17c38:	fff60813          	add	a6,a2,-1
   17c3c:	fed78fa3          	sb	a3,-1(a5)
   17c40:	00068e63          	beqz	a3,17c5c <strncpy+0x44>
   17c44:	00078713          	mv	a4,a5
   17c48:	00080613          	mv	a2,a6
   17c4c:	00158593          	add	a1,a1,1
   17c50:	00170793          	add	a5,a4,1
   17c54:	fe0610e3          	bnez	a2,17c34 <strncpy+0x1c>
   17c58:	00008067          	ret
   17c5c:	00c70733          	add	a4,a4,a2
   17c60:	06080063          	beqz	a6,17cc0 <strncpy+0xa8>
   17c64:	00178793          	add	a5,a5,1
   17c68:	fe078fa3          	sb	zero,-1(a5)
   17c6c:	fee79ce3          	bne	a5,a4,17c64 <strncpy+0x4c>
   17c70:	00008067          	ret
   17c74:	feff0337          	lui	t1,0xfeff0
   17c78:	808088b7          	lui	a7,0x80808
   17c7c:	00050713          	mv	a4,a0
   17c80:	eff30313          	add	t1,t1,-257 # fefefeff <__BSS_END__+0xfefcafef>
   17c84:	08088893          	add	a7,a7,128 # 80808080 <__BSS_END__+0x807e3170>
   17c88:	00300e13          	li	t3,3
   17c8c:	0180006f          	j	17ca4 <strncpy+0x8c>
   17c90:	00d72023          	sw	a3,0(a4)
   17c94:	ffc60613          	add	a2,a2,-4
   17c98:	00470713          	add	a4,a4,4
   17c9c:	00458593          	add	a1,a1,4
   17ca0:	face76e3          	bgeu	t3,a2,17c4c <strncpy+0x34>
   17ca4:	0005a683          	lw	a3,0(a1)
   17ca8:	006687b3          	add	a5,a3,t1
   17cac:	fff6c813          	not	a6,a3
   17cb0:	0107f7b3          	and	a5,a5,a6
   17cb4:	0117f7b3          	and	a5,a5,a7
   17cb8:	fc078ce3          	beqz	a5,17c90 <strncpy+0x78>
   17cbc:	f91ff06f          	j	17c4c <strncpy+0x34>
   17cc0:	00008067          	ret

00017cc4 <currentlocale>:
   17cc4:	fe010113          	add	sp,sp,-32
   17cc8:	00912a23          	sw	s1,20(sp)
   17ccc:	d5818593          	add	a1,gp,-680 # 24728 <__global_locale+0x20>
   17cd0:	45818513          	add	a0,gp,1112 # 24e28 <global_locale_string>
   17cd4:	d7818493          	add	s1,gp,-648 # 24748 <__global_locale+0x40>
   17cd8:	00812c23          	sw	s0,24(sp)
   17cdc:	01212823          	sw	s2,16(sp)
   17ce0:	01312623          	sw	s3,12(sp)
   17ce4:	00112e23          	sw	ra,28(sp)
   17ce8:	e1818913          	add	s2,gp,-488 # 247e8 <__global_locale+0xe0>
   17cec:	0a4010ef          	jal	18d90 <strcpy>
   17cf0:	00048413          	mv	s0,s1
   17cf4:	d5818993          	add	s3,gp,-680 # 24728 <__global_locale+0x20>
   17cf8:	00040593          	mv	a1,s0
   17cfc:	00098513          	mv	a0,s3
   17d00:	140010ef          	jal	18e40 <strcmp>
   17d04:	02040413          	add	s0,s0,32
   17d08:	02051463          	bnez	a0,17d30 <currentlocale+0x6c>
   17d0c:	ff2416e3          	bne	s0,s2,17cf8 <currentlocale+0x34>
   17d10:	01c12083          	lw	ra,28(sp)
   17d14:	01812403          	lw	s0,24(sp)
   17d18:	01412483          	lw	s1,20(sp)
   17d1c:	01012903          	lw	s2,16(sp)
   17d20:	00c12983          	lw	s3,12(sp)
   17d24:	45818513          	add	a0,gp,1112 # 24e28 <global_locale_string>
   17d28:	02010113          	add	sp,sp,32
   17d2c:	00008067          	ret
   17d30:	0000a997          	auipc	s3,0xa
   17d34:	56098993          	add	s3,s3,1376 # 22290 <__clzsi2+0xec>
   17d38:	45818413          	add	s0,gp,1112 # 24e28 <global_locale_string>
   17d3c:	00098593          	mv	a1,s3
   17d40:	00040513          	mv	a0,s0
   17d44:	231050ef          	jal	1d774 <strcat>
   17d48:	00048593          	mv	a1,s1
   17d4c:	00040513          	mv	a0,s0
   17d50:	02048493          	add	s1,s1,32
   17d54:	221050ef          	jal	1d774 <strcat>
   17d58:	ff2492e3          	bne	s1,s2,17d3c <currentlocale+0x78>
   17d5c:	01c12083          	lw	ra,28(sp)
   17d60:	01812403          	lw	s0,24(sp)
   17d64:	01412483          	lw	s1,20(sp)
   17d68:	01012903          	lw	s2,16(sp)
   17d6c:	00c12983          	lw	s3,12(sp)
   17d70:	45818513          	add	a0,gp,1112 # 24e28 <global_locale_string>
   17d74:	02010113          	add	sp,sp,32
   17d78:	00008067          	ret

00017d7c <__loadlocale>:
   17d7c:	fa010113          	add	sp,sp,-96
   17d80:	04912a23          	sw	s1,84(sp)
   17d84:	00559493          	sll	s1,a1,0x5
   17d88:	009504b3          	add	s1,a0,s1
   17d8c:	05212823          	sw	s2,80(sp)
   17d90:	05312623          	sw	s3,76(sp)
   17d94:	00050913          	mv	s2,a0
   17d98:	00058993          	mv	s3,a1
   17d9c:	00060513          	mv	a0,a2
   17da0:	00048593          	mv	a1,s1
   17da4:	04812c23          	sw	s0,88(sp)
   17da8:	04112e23          	sw	ra,92(sp)
   17dac:	00060413          	mv	s0,a2
   17db0:	090010ef          	jal	18e40 <strcmp>
   17db4:	02051263          	bnez	a0,17dd8 <__loadlocale+0x5c>
   17db8:	05c12083          	lw	ra,92(sp)
   17dbc:	05812403          	lw	s0,88(sp)
   17dc0:	05012903          	lw	s2,80(sp)
   17dc4:	04c12983          	lw	s3,76(sp)
   17dc8:	00048513          	mv	a0,s1
   17dcc:	05412483          	lw	s1,84(sp)
   17dd0:	06010113          	add	sp,sp,96
   17dd4:	00008067          	ret
   17dd8:	0000a597          	auipc	a1,0xa
   17ddc:	4bc58593          	add	a1,a1,1212 # 22294 <__clzsi2+0xf0>
   17de0:	00040513          	mv	a0,s0
   17de4:	05412423          	sw	s4,72(sp)
   17de8:	05512223          	sw	s5,68(sp)
   17dec:	054010ef          	jal	18e40 <strcmp>
   17df0:	08050663          	beqz	a0,17e7c <__loadlocale+0x100>
   17df4:	0000a597          	auipc	a1,0xa
   17df8:	4a858593          	add	a1,a1,1192 # 2229c <__clzsi2+0xf8>
   17dfc:	00040513          	mv	a0,s0
   17e00:	040010ef          	jal	18e40 <strcmp>
   17e04:	08050e63          	beqz	a0,17ea0 <__loadlocale+0x124>
   17e08:	00044783          	lbu	a5,0(s0)
   17e0c:	04300713          	li	a4,67
   17e10:	18e78063          	beq	a5,a4,17f90 <__loadlocale+0x214>
   17e14:	f9f78793          	add	a5,a5,-97
   17e18:	0ff7f793          	zext.b	a5,a5
   17e1c:	01900713          	li	a4,25
   17e20:	04f76063          	bltu	a4,a5,17e60 <__loadlocale+0xe4>
   17e24:	00144783          	lbu	a5,1(s0)
   17e28:	f9f78793          	add	a5,a5,-97
   17e2c:	0ff7f793          	zext.b	a5,a5
   17e30:	02f76863          	bltu	a4,a5,17e60 <__loadlocale+0xe4>
   17e34:	00244783          	lbu	a5,2(s0)
   17e38:	00240a93          	add	s5,s0,2
   17e3c:	f9f78693          	add	a3,a5,-97
   17e40:	0ff6f693          	zext.b	a3,a3
   17e44:	02d77663          	bgeu	a4,a3,17e70 <__loadlocale+0xf4>
   17e48:	05f00713          	li	a4,95
   17e4c:	1ee78e63          	beq	a5,a4,18048 <__loadlocale+0x2cc>
   17e50:	02e00713          	li	a4,46
   17e54:	66e78e63          	beq	a5,a4,184d0 <__loadlocale+0x754>
   17e58:	0bf7f793          	and	a5,a5,191
   17e5c:	18078463          	beqz	a5,17fe4 <__loadlocale+0x268>
   17e60:	04812a03          	lw	s4,72(sp)
   17e64:	04412a83          	lw	s5,68(sp)
   17e68:	00000493          	li	s1,0
   17e6c:	f4dff06f          	j	17db8 <__loadlocale+0x3c>
   17e70:	00344783          	lbu	a5,3(s0)
   17e74:	00340a93          	add	s5,s0,3
   17e78:	fd1ff06f          	j	17e48 <__loadlocale+0xcc>
   17e7c:	0000a597          	auipc	a1,0xa
   17e80:	42058593          	add	a1,a1,1056 # 2229c <__clzsi2+0xf8>
   17e84:	00040513          	mv	a0,s0
   17e88:	709000ef          	jal	18d90 <strcpy>
   17e8c:	0000a597          	auipc	a1,0xa
   17e90:	41058593          	add	a1,a1,1040 # 2229c <__clzsi2+0xf8>
   17e94:	00040513          	mv	a0,s0
   17e98:	7a9000ef          	jal	18e40 <strcmp>
   17e9c:	f60516e3          	bnez	a0,17e08 <__loadlocale+0x8c>
   17ea0:	01010a13          	add	s4,sp,16
   17ea4:	0000a597          	auipc	a1,0xa
   17ea8:	3fc58593          	add	a1,a1,1020 # 222a0 <__clzsi2+0xfc>
   17eac:	000a0513          	mv	a0,s4
   17eb0:	05612023          	sw	s6,64(sp)
   17eb4:	03712e23          	sw	s7,60(sp)
   17eb8:	6d9000ef          	jal	18d90 <strcpy>
   17ebc:	00000a93          	li	s5,0
   17ec0:	00000b13          	li	s6,0
   17ec4:	00000b93          	li	s7,0
   17ec8:	01014783          	lbu	a5,16(sp)
   17ecc:	03400713          	li	a4,52
   17ed0:	fbf78793          	add	a5,a5,-65
   17ed4:	0ff7f793          	zext.b	a5,a5
   17ed8:	16f76263          	bltu	a4,a5,1803c <__loadlocale+0x2c0>
   17edc:	0000b717          	auipc	a4,0xb
   17ee0:	9fc70713          	add	a4,a4,-1540 # 228d8 <blanks.1+0x10>
   17ee4:	00279793          	sll	a5,a5,0x2
   17ee8:	00e787b3          	add	a5,a5,a4
   17eec:	0007a783          	lw	a5,0(a5)
   17ef0:	03812c23          	sw	s8,56(sp)
   17ef4:	03912a23          	sw	s9,52(sp)
   17ef8:	00e787b3          	add	a5,a5,a4
   17efc:	03a12823          	sw	s10,48(sp)
   17f00:	00078067          	jr	a5
   17f04:	01114783          	lbu	a5,17(sp)
   17f08:	05000713          	li	a4,80
   17f0c:	0df7f793          	and	a5,a5,223
   17f10:	06e79463          	bne	a5,a4,17f78 <__loadlocale+0x1fc>
   17f14:	00200613          	li	a2,2
   17f18:	0000a597          	auipc	a1,0xa
   17f1c:	40058593          	add	a1,a1,1024 # 22318 <__clzsi2+0x174>
   17f20:	000a0513          	mv	a0,s4
   17f24:	cf5ff0ef          	jal	17c18 <strncpy>
   17f28:	00a00613          	li	a2,10
   17f2c:	00c10593          	add	a1,sp,12
   17f30:	01210513          	add	a0,sp,18
   17f34:	73d040ef          	jal	1ce70 <strtol>
   17f38:	00c12783          	lw	a5,12(sp)
   17f3c:	0007c783          	lbu	a5,0(a5)
   17f40:	02079c63          	bnez	a5,17f78 <__loadlocale+0x1fc>
   17f44:	3a400793          	li	a5,932
   17f48:	26f50863          	beq	a0,a5,181b8 <__loadlocale+0x43c>
   17f4c:	5aa7c463          	blt	a5,a0,184f4 <__loadlocale+0x778>
   17f50:	36a00793          	li	a5,874
   17f54:	02a7c263          	blt	a5,a0,17f78 <__loadlocale+0x1fc>
   17f58:	35100793          	li	a5,849
   17f5c:	5aa7d863          	bge	a5,a0,1850c <__loadlocale+0x790>
   17f60:	010117b7          	lui	a5,0x1011
   17f64:	cae50513          	add	a0,a0,-850
   17f68:	1a578793          	add	a5,a5,421 # 10111a5 <__BSS_END__+0xfec295>
   17f6c:	00a7d7b3          	srl	a5,a5,a0
   17f70:	0017f793          	and	a5,a5,1
   17f74:	20079463          	bnez	a5,1817c <__loadlocale+0x400>
   17f78:	04012b03          	lw	s6,64(sp)
   17f7c:	03c12b83          	lw	s7,60(sp)
   17f80:	03812c03          	lw	s8,56(sp)
   17f84:	03412c83          	lw	s9,52(sp)
   17f88:	03012d03          	lw	s10,48(sp)
   17f8c:	ed5ff06f          	j	17e60 <__loadlocale+0xe4>
   17f90:	00144783          	lbu	a5,1(s0)
   17f94:	00100713          	li	a4,1
   17f98:	fd378793          	add	a5,a5,-45
   17f9c:	0ff7f793          	zext.b	a5,a5
   17fa0:	ecf760e3          	bltu	a4,a5,17e60 <__loadlocale+0xe4>
   17fa4:	05612023          	sw	s6,64(sp)
   17fa8:	03712e23          	sw	s7,60(sp)
   17fac:	00240a93          	add	s5,s0,2
   17fb0:	01010a13          	add	s4,sp,16
   17fb4:	000a8593          	mv	a1,s5
   17fb8:	000a0513          	mv	a0,s4
   17fbc:	5d5000ef          	jal	18d90 <strcpy>
   17fc0:	04000593          	li	a1,64
   17fc4:	000a0513          	mv	a0,s4
   17fc8:	035050ef          	jal	1d7fc <strchr>
   17fcc:	00050463          	beqz	a0,17fd4 <__loadlocale+0x258>
   17fd0:	00050023          	sb	zero,0(a0)
   17fd4:	000a0513          	mv	a0,s4
   17fd8:	52d000ef          	jal	18d04 <strlen>
   17fdc:	00aa8ab3          	add	s5,s5,a0
   17fe0:	0200006f          	j	18000 <__loadlocale+0x284>
   17fe4:	01010a13          	add	s4,sp,16
   17fe8:	0000a597          	auipc	a1,0xa
   17fec:	2c058593          	add	a1,a1,704 # 222a8 <__clzsi2+0x104>
   17ff0:	000a0513          	mv	a0,s4
   17ff4:	05612023          	sw	s6,64(sp)
   17ff8:	03712e23          	sw	s7,60(sp)
   17ffc:	595000ef          	jal	18d90 <strcpy>
   18000:	000ac703          	lbu	a4,0(s5)
   18004:	04000793          	li	a5,64
   18008:	eaf71ae3          	bne	a4,a5,17ebc <__loadlocale+0x140>
   1800c:	03812c23          	sw	s8,56(sp)
   18010:	001a8c13          	add	s8,s5,1
   18014:	0000a597          	auipc	a1,0xa
   18018:	2a058593          	add	a1,a1,672 # 222b4 <__clzsi2+0x110>
   1801c:	000c0513          	mv	a0,s8
   18020:	621000ef          	jal	18e40 <strcmp>
   18024:	00050b13          	mv	s6,a0
   18028:	00000a93          	li	s5,0
   1802c:	00100b93          	li	s7,1
   18030:	40051463          	bnez	a0,18438 <__loadlocale+0x6bc>
   18034:	03812c03          	lw	s8,56(sp)
   18038:	e91ff06f          	j	17ec8 <__loadlocale+0x14c>
   1803c:	04012b03          	lw	s6,64(sp)
   18040:	03c12b83          	lw	s7,60(sp)
   18044:	e1dff06f          	j	17e60 <__loadlocale+0xe4>
   18048:	001ac783          	lbu	a5,1(s5)
   1804c:	01900713          	li	a4,25
   18050:	fbf78793          	add	a5,a5,-65
   18054:	0ff7f793          	zext.b	a5,a5
   18058:	e0f764e3          	bltu	a4,a5,17e60 <__loadlocale+0xe4>
   1805c:	002ac783          	lbu	a5,2(s5)
   18060:	fbf78793          	add	a5,a5,-65
   18064:	0ff7f793          	zext.b	a5,a5
   18068:	def76ce3          	bltu	a4,a5,17e60 <__loadlocale+0xe4>
   1806c:	003ac783          	lbu	a5,3(s5)
   18070:	003a8a93          	add	s5,s5,3
   18074:	dddff06f          	j	17e50 <__loadlocale+0xd4>
   18078:	0000a597          	auipc	a1,0xa
   1807c:	25c58593          	add	a1,a1,604 # 222d4 <__clzsi2+0x130>
   18080:	000a0513          	mv	a0,s4
   18084:	684050ef          	jal	1d708 <strcasecmp>
   18088:	00050c63          	beqz	a0,180a0 <__loadlocale+0x324>
   1808c:	0000a597          	auipc	a1,0xa
   18090:	25058593          	add	a1,a1,592 # 222dc <__clzsi2+0x138>
   18094:	000a0513          	mv	a0,s4
   18098:	670050ef          	jal	1d708 <strcasecmp>
   1809c:	ec051ee3          	bnez	a0,17f78 <__loadlocale+0x1fc>
   180a0:	0000a597          	auipc	a1,0xa
   180a4:	23458593          	add	a1,a1,564 # 222d4 <__clzsi2+0x130>
   180a8:	000a0513          	mv	a0,s4
   180ac:	4e5000ef          	jal	18d90 <strcpy>
   180b0:	00003c97          	auipc	s9,0x3
   180b4:	a60c8c93          	add	s9,s9,-1440 # 1ab10 <__utf8_mbtowc>
   180b8:	00005d17          	auipc	s10,0x5
   180bc:	e04d0d13          	add	s10,s10,-508 # 1cebc <__utf8_wctomb>
   180c0:	00600c13          	li	s8,6
   180c4:	00200793          	li	a5,2
   180c8:	3af98863          	beq	s3,a5,18478 <__loadlocale+0x6fc>
   180cc:	00600793          	li	a5,6
   180d0:	00f99863          	bne	s3,a5,180e0 <__loadlocale+0x364>
   180d4:	000a0593          	mv	a1,s4
   180d8:	14a90513          	add	a0,s2,330
   180dc:	4b5000ef          	jal	18d90 <strcpy>
   180e0:	00040593          	mv	a1,s0
   180e4:	00048513          	mv	a0,s1
   180e8:	4a9000ef          	jal	18d90 <strcpy>
   180ec:	05c12083          	lw	ra,92(sp)
   180f0:	05812403          	lw	s0,88(sp)
   180f4:	00050493          	mv	s1,a0
   180f8:	04812a03          	lw	s4,72(sp)
   180fc:	04412a83          	lw	s5,68(sp)
   18100:	04012b03          	lw	s6,64(sp)
   18104:	03c12b83          	lw	s7,60(sp)
   18108:	03812c03          	lw	s8,56(sp)
   1810c:	03412c83          	lw	s9,52(sp)
   18110:	03012d03          	lw	s10,48(sp)
   18114:	05012903          	lw	s2,80(sp)
   18118:	04c12983          	lw	s3,76(sp)
   1811c:	00048513          	mv	a0,s1
   18120:	05412483          	lw	s1,84(sp)
   18124:	06010113          	add	sp,sp,96
   18128:	00008067          	ret
   1812c:	00300613          	li	a2,3
   18130:	0000a597          	auipc	a1,0xa
   18134:	22c58593          	add	a1,a1,556 # 2235c <__clzsi2+0x1b8>
   18138:	000a0513          	mv	a0,s4
   1813c:	045050ef          	jal	1d980 <strncasecmp>
   18140:	e2051ce3          	bnez	a0,17f78 <__loadlocale+0x1fc>
   18144:	01314503          	lbu	a0,19(sp)
   18148:	0000a597          	auipc	a1,0xa
   1814c:	21858593          	add	a1,a1,536 # 22360 <__clzsi2+0x1bc>
   18150:	fd350513          	add	a0,a0,-45
   18154:	00153513          	seqz	a0,a0
   18158:	03050793          	add	a5,a0,48
   1815c:	00278533          	add	a0,a5,sp
   18160:	fe350513          	add	a0,a0,-29
   18164:	4dd000ef          	jal	18e40 <strcmp>
   18168:	e00518e3          	bnez	a0,17f78 <__loadlocale+0x1fc>
   1816c:	0000a597          	auipc	a1,0xa
   18170:	1f858593          	add	a1,a1,504 # 22364 <__clzsi2+0x1c0>
   18174:	000a0513          	mv	a0,s4
   18178:	419000ef          	jal	18d90 <strcpy>
   1817c:	00003c97          	auipc	s9,0x3
   18180:	92cc8c93          	add	s9,s9,-1748 # 1aaa8 <__ascii_mbtowc>
   18184:	00005d17          	auipc	s10,0x5
   18188:	d08d0d13          	add	s10,s10,-760 # 1ce8c <__ascii_wctomb>
   1818c:	00100c13          	li	s8,1
   18190:	f35ff06f          	j	180c4 <__loadlocale+0x348>
   18194:	0000a597          	auipc	a1,0xa
   18198:	16458593          	add	a1,a1,356 # 222f8 <__clzsi2+0x154>
   1819c:	000a0513          	mv	a0,s4
   181a0:	568050ef          	jal	1d708 <strcasecmp>
   181a4:	dc051ae3          	bnez	a0,17f78 <__loadlocale+0x1fc>
   181a8:	0000a597          	auipc	a1,0xa
   181ac:	15058593          	add	a1,a1,336 # 222f8 <__clzsi2+0x154>
   181b0:	000a0513          	mv	a0,s4
   181b4:	3dd000ef          	jal	18d90 <strcpy>
   181b8:	00003c97          	auipc	s9,0x3
   181bc:	c50c8c93          	add	s9,s9,-944 # 1ae08 <__sjis_mbtowc>
   181c0:	00005d17          	auipc	s10,0x5
   181c4:	de8d0d13          	add	s10,s10,-536 # 1cfa8 <__sjis_wctomb>
   181c8:	00200c13          	li	s8,2
   181cc:	ef9ff06f          	j	180c4 <__loadlocale+0x348>
   181d0:	0000a597          	auipc	a1,0xa
   181d4:	17c58593          	add	a1,a1,380 # 2234c <__clzsi2+0x1a8>
   181d8:	000a0513          	mv	a0,s4
   181dc:	52c050ef          	jal	1d708 <strcasecmp>
   181e0:	d8051ce3          	bnez	a0,17f78 <__loadlocale+0x1fc>
   181e4:	0000a597          	auipc	a1,0xa
   181e8:	17058593          	add	a1,a1,368 # 22354 <__clzsi2+0x1b0>
   181ec:	000a0513          	mv	a0,s4
   181f0:	3a1000ef          	jal	18d90 <strcpy>
   181f4:	f89ff06f          	j	1817c <__loadlocale+0x400>
   181f8:	00400613          	li	a2,4
   181fc:	0000a597          	auipc	a1,0xa
   18200:	12058593          	add	a1,a1,288 # 2231c <__clzsi2+0x178>
   18204:	000a0513          	mv	a0,s4
   18208:	778050ef          	jal	1d980 <strncasecmp>
   1820c:	d60516e3          	bnez	a0,17f78 <__loadlocale+0x1fc>
   18210:	01414783          	lbu	a5,20(sp)
   18214:	02d00713          	li	a4,45
   18218:	00e79463          	bne	a5,a4,18220 <__loadlocale+0x4a4>
   1821c:	01514783          	lbu	a5,21(sp)
   18220:	0df7f793          	and	a5,a5,223
   18224:	05200713          	li	a4,82
   18228:	2ae78c63          	beq	a5,a4,184e0 <__loadlocale+0x764>
   1822c:	05500713          	li	a4,85
   18230:	d4e794e3          	bne	a5,a4,17f78 <__loadlocale+0x1fc>
   18234:	0000a597          	auipc	a1,0xa
   18238:	0f858593          	add	a1,a1,248 # 2232c <__clzsi2+0x188>
   1823c:	000a0513          	mv	a0,s4
   18240:	351000ef          	jal	18d90 <strcpy>
   18244:	f39ff06f          	j	1817c <__loadlocale+0x400>
   18248:	0000a597          	auipc	a1,0xa
   1824c:	09c58593          	add	a1,a1,156 # 222e4 <__clzsi2+0x140>
   18250:	000a0513          	mv	a0,s4
   18254:	4b4050ef          	jal	1d708 <strcasecmp>
   18258:	d20510e3          	bnez	a0,17f78 <__loadlocale+0x1fc>
   1825c:	0000a597          	auipc	a1,0xa
   18260:	08858593          	add	a1,a1,136 # 222e4 <__clzsi2+0x140>
   18264:	000a0513          	mv	a0,s4
   18268:	329000ef          	jal	18d90 <strcpy>
   1826c:	00003c97          	auipc	s9,0x3
   18270:	f18c8c93          	add	s9,s9,-232 # 1b184 <__jis_mbtowc>
   18274:	00005d17          	auipc	s10,0x5
   18278:	e64d0d13          	add	s10,s10,-412 # 1d0d8 <__jis_wctomb>
   1827c:	00800c13          	li	s8,8
   18280:	e45ff06f          	j	180c4 <__loadlocale+0x348>
   18284:	00300613          	li	a2,3
   18288:	0000a597          	auipc	a1,0xa
   1828c:	07858593          	add	a1,a1,120 # 22300 <__clzsi2+0x15c>
   18290:	000a0513          	mv	a0,s4
   18294:	6ec050ef          	jal	1d980 <strncasecmp>
   18298:	ce0510e3          	bnez	a0,17f78 <__loadlocale+0x1fc>
   1829c:	01314783          	lbu	a5,19(sp)
   182a0:	00400613          	li	a2,4
   182a4:	0000a597          	auipc	a1,0xa
   182a8:	06058593          	add	a1,a1,96 # 22304 <__clzsi2+0x160>
   182ac:	fd378793          	add	a5,a5,-45
   182b0:	0017b793          	seqz	a5,a5
   182b4:	03078793          	add	a5,a5,48
   182b8:	002787b3          	add	a5,a5,sp
   182bc:	fe378c13          	add	s8,a5,-29
   182c0:	000c0513          	mv	a0,s8
   182c4:	6bc050ef          	jal	1d980 <strncasecmp>
   182c8:	ca0518e3          	bnez	a0,17f78 <__loadlocale+0x1fc>
   182cc:	004c4503          	lbu	a0,4(s8)
   182d0:	00a00613          	li	a2,10
   182d4:	00c10593          	add	a1,sp,12
   182d8:	fd350513          	add	a0,a0,-45
   182dc:	00153513          	seqz	a0,a0
   182e0:	00ac0533          	add	a0,s8,a0
   182e4:	00450513          	add	a0,a0,4
   182e8:	389040ef          	jal	1ce70 <strtol>
   182ec:	fff50713          	add	a4,a0,-1
   182f0:	00f00793          	li	a5,15
   182f4:	00050c13          	mv	s8,a0
   182f8:	c8e7e0e3          	bltu	a5,a4,17f78 <__loadlocale+0x1fc>
   182fc:	00c00793          	li	a5,12
   18300:	c6f50ce3          	beq	a0,a5,17f78 <__loadlocale+0x1fc>
   18304:	00c12783          	lw	a5,12(sp)
   18308:	0007c783          	lbu	a5,0(a5)
   1830c:	c60796e3          	bnez	a5,17f78 <__loadlocale+0x1fc>
   18310:	0000a597          	auipc	a1,0xa
   18314:	ffc58593          	add	a1,a1,-4 # 2230c <__clzsi2+0x168>
   18318:	000a0513          	mv	a0,s4
   1831c:	275000ef          	jal	18d90 <strcpy>
   18320:	00a00793          	li	a5,10
   18324:	01910c93          	add	s9,sp,25
   18328:	0187d863          	bge	a5,s8,18338 <__loadlocale+0x5bc>
   1832c:	03100793          	li	a5,49
   18330:	00f10ca3          	sb	a5,25(sp)
   18334:	01a10c93          	add	s9,sp,26
   18338:	00a00593          	li	a1,10
   1833c:	000c0513          	mv	a0,s8
   18340:	635090ef          	jal	22174 <__modsi3>
   18344:	03050793          	add	a5,a0,48
   18348:	00fc8023          	sb	a5,0(s9)
   1834c:	000c80a3          	sb	zero,1(s9)
   18350:	e2dff06f          	j	1817c <__loadlocale+0x400>
   18354:	00800613          	li	a2,8
   18358:	0000a597          	auipc	a1,0xa
   1835c:	fdc58593          	add	a1,a1,-36 # 22334 <__clzsi2+0x190>
   18360:	000a0513          	mv	a0,s4
   18364:	61c050ef          	jal	1d980 <strncasecmp>
   18368:	c00518e3          	bnez	a0,17f78 <__loadlocale+0x1fc>
   1836c:	01814503          	lbu	a0,24(sp)
   18370:	0000a597          	auipc	a1,0xa
   18374:	fd058593          	add	a1,a1,-48 # 22340 <__clzsi2+0x19c>
   18378:	fd350513          	add	a0,a0,-45
   1837c:	00153513          	seqz	a0,a0
   18380:	03050793          	add	a5,a0,48
   18384:	00278533          	add	a0,a5,sp
   18388:	fe850513          	add	a0,a0,-24
   1838c:	37c050ef          	jal	1d708 <strcasecmp>
   18390:	be0514e3          	bnez	a0,17f78 <__loadlocale+0x1fc>
   18394:	0000a597          	auipc	a1,0xa
   18398:	fb058593          	add	a1,a1,-80 # 22344 <__clzsi2+0x1a0>
   1839c:	000a0513          	mv	a0,s4
   183a0:	1f1000ef          	jal	18d90 <strcpy>
   183a4:	dd9ff06f          	j	1817c <__loadlocale+0x400>
   183a8:	00300613          	li	a2,3
   183ac:	0000a597          	auipc	a1,0xa
   183b0:	f3c58593          	add	a1,a1,-196 # 222e8 <__clzsi2+0x144>
   183b4:	000a0513          	mv	a0,s4
   183b8:	5c8050ef          	jal	1d980 <strncasecmp>
   183bc:	ba051ee3          	bnez	a0,17f78 <__loadlocale+0x1fc>
   183c0:	01314503          	lbu	a0,19(sp)
   183c4:	0000a597          	auipc	a1,0xa
   183c8:	f2858593          	add	a1,a1,-216 # 222ec <__clzsi2+0x148>
   183cc:	fd350513          	add	a0,a0,-45
   183d0:	00153513          	seqz	a0,a0
   183d4:	03050793          	add	a5,a0,48
   183d8:	00278533          	add	a0,a5,sp
   183dc:	fe350513          	add	a0,a0,-29
   183e0:	328050ef          	jal	1d708 <strcasecmp>
   183e4:	b8051ae3          	bnez	a0,17f78 <__loadlocale+0x1fc>
   183e8:	0000a597          	auipc	a1,0xa
   183ec:	f0858593          	add	a1,a1,-248 # 222f0 <__clzsi2+0x14c>
   183f0:	000a0513          	mv	a0,s4
   183f4:	19d000ef          	jal	18d90 <strcpy>
   183f8:	00003c97          	auipc	s9,0x3
   183fc:	b80c8c93          	add	s9,s9,-1152 # 1af78 <__eucjp_mbtowc>
   18400:	00005d17          	auipc	s10,0x5
   18404:	c2cd0d13          	add	s10,s10,-980 # 1d02c <__eucjp_wctomb>
   18408:	00300c13          	li	s8,3
   1840c:	cb9ff06f          	j	180c4 <__loadlocale+0x348>
   18410:	0000a597          	auipc	a1,0xa
   18414:	e9058593          	add	a1,a1,-368 # 222a0 <__clzsi2+0xfc>
   18418:	000a0513          	mv	a0,s4
   1841c:	2ec050ef          	jal	1d708 <strcasecmp>
   18420:	b4051ce3          	bnez	a0,17f78 <__loadlocale+0x1fc>
   18424:	0000a597          	auipc	a1,0xa
   18428:	e7c58593          	add	a1,a1,-388 # 222a0 <__clzsi2+0xfc>
   1842c:	000a0513          	mv	a0,s4
   18430:	161000ef          	jal	18d90 <strcpy>
   18434:	d49ff06f          	j	1817c <__loadlocale+0x400>
   18438:	0000a597          	auipc	a1,0xa
   1843c:	e8858593          	add	a1,a1,-376 # 222c0 <__clzsi2+0x11c>
   18440:	000c0513          	mv	a0,s8
   18444:	1fd000ef          	jal	18e40 <strcmp>
   18448:	00050a93          	mv	s5,a0
   1844c:	00000b93          	li	s7,0
   18450:	00100b13          	li	s6,1
   18454:	be0500e3          	beqz	a0,18034 <__loadlocale+0x2b8>
   18458:	000c0513          	mv	a0,s8
   1845c:	0000a597          	auipc	a1,0xa
   18460:	e7058593          	add	a1,a1,-400 # 222cc <__clzsi2+0x128>
   18464:	1dd000ef          	jal	18e40 <strcmp>
   18468:	00153a93          	seqz	s5,a0
   1846c:	03812c03          	lw	s8,56(sp)
   18470:	00000b13          	li	s6,0
   18474:	a55ff06f          	j	17ec8 <__loadlocale+0x14c>
   18478:	000a0593          	mv	a1,s4
   1847c:	12a90513          	add	a0,s2,298
   18480:	111000ef          	jal	18d90 <strcpy>
   18484:	000a0593          	mv	a1,s4
   18488:	13890423          	sb	s8,296(s2)
   1848c:	0fa92023          	sw	s10,224(s2)
   18490:	0f992223          	sw	s9,228(s2)
   18494:	00090513          	mv	a0,s2
   18498:	651040ef          	jal	1d2e8 <__set_ctype>
   1849c:	000a9e63          	bnez	s5,184b8 <__loadlocale+0x73c>
   184a0:	000b1c63          	bnez	s6,184b8 <__loadlocale+0x73c>
   184a4:	00100793          	li	a5,1
   184a8:	00fc0863          	beq	s8,a5,184b8 <__loadlocale+0x73c>
   184ac:	01014a83          	lbu	s5,16(sp)
   184b0:	faba8a93          	add	s5,s5,-85
   184b4:	01503ab3          	snez	s5,s5
   184b8:	000b9663          	bnez	s7,184c4 <__loadlocale+0x748>
   184bc:	0f592423          	sw	s5,232(s2)
   184c0:	c21ff06f          	j	180e0 <__loadlocale+0x364>
   184c4:	fff00793          	li	a5,-1
   184c8:	0ef92423          	sw	a5,232(s2)
   184cc:	c15ff06f          	j	180e0 <__loadlocale+0x364>
   184d0:	05612023          	sw	s6,64(sp)
   184d4:	03712e23          	sw	s7,60(sp)
   184d8:	001a8a93          	add	s5,s5,1
   184dc:	ad5ff06f          	j	17fb0 <__loadlocale+0x234>
   184e0:	0000a597          	auipc	a1,0xa
   184e4:	e4458593          	add	a1,a1,-444 # 22324 <__clzsi2+0x180>
   184e8:	000a0513          	mv	a0,s4
   184ec:	0a5000ef          	jal	18d90 <strcpy>
   184f0:	c8dff06f          	j	1817c <__loadlocale+0x400>
   184f4:	46500793          	li	a5,1125
   184f8:	c8f502e3          	beq	a0,a5,1817c <__loadlocale+0x400>
   184fc:	b1e50513          	add	a0,a0,-1250
   18500:	00800793          	li	a5,8
   18504:	c6a7fce3          	bgeu	a5,a0,1817c <__loadlocale+0x400>
   18508:	a71ff06f          	j	17f78 <__loadlocale+0x1fc>
   1850c:	2e100793          	li	a5,737
   18510:	c6f506e3          	beq	a0,a5,1817c <__loadlocale+0x400>
   18514:	00a7cc63          	blt	a5,a0,1852c <__loadlocale+0x7b0>
   18518:	1b500793          	li	a5,437
   1851c:	c6f500e3          	beq	a0,a5,1817c <__loadlocale+0x400>
   18520:	2d000793          	li	a5,720
   18524:	a4f51ae3          	bne	a0,a5,17f78 <__loadlocale+0x1fc>
   18528:	c55ff06f          	j	1817c <__loadlocale+0x400>
   1852c:	30700793          	li	a5,775
   18530:	a4f514e3          	bne	a0,a5,17f78 <__loadlocale+0x1fc>
   18534:	c49ff06f          	j	1817c <__loadlocale+0x400>

00018538 <__get_locale_env>:
   18538:	ff010113          	add	sp,sp,-16
   1853c:	00812423          	sw	s0,8(sp)
   18540:	00058413          	mv	s0,a1
   18544:	0000a597          	auipc	a1,0xa
   18548:	e2858593          	add	a1,a1,-472 # 2236c <__clzsi2+0x1c8>
   1854c:	00912223          	sw	s1,4(sp)
   18550:	00112623          	sw	ra,12(sp)
   18554:	00050493          	mv	s1,a0
   18558:	52c020ef          	jal	1aa84 <_getenv_r>
   1855c:	00050663          	beqz	a0,18568 <__get_locale_env+0x30>
   18560:	00054783          	lbu	a5,0(a0)
   18564:	04079663          	bnez	a5,185b0 <__get_locale_env+0x78>
   18568:	00241793          	sll	a5,s0,0x2
   1856c:	0000a717          	auipc	a4,0xa
   18570:	5ac70713          	add	a4,a4,1452 # 22b18 <categories>
   18574:	00f707b3          	add	a5,a4,a5
   18578:	0007a583          	lw	a1,0(a5)
   1857c:	00048513          	mv	a0,s1
   18580:	504020ef          	jal	1aa84 <_getenv_r>
   18584:	00050663          	beqz	a0,18590 <__get_locale_env+0x58>
   18588:	00054783          	lbu	a5,0(a0)
   1858c:	02079263          	bnez	a5,185b0 <__get_locale_env+0x78>
   18590:	0000a597          	auipc	a1,0xa
   18594:	de458593          	add	a1,a1,-540 # 22374 <__clzsi2+0x1d0>
   18598:	00048513          	mv	a0,s1
   1859c:	4e8020ef          	jal	1aa84 <_getenv_r>
   185a0:	00050663          	beqz	a0,185ac <__get_locale_env+0x74>
   185a4:	00054783          	lbu	a5,0(a0)
   185a8:	00079463          	bnez	a5,185b0 <__get_locale_env+0x78>
   185ac:	ea418513          	add	a0,gp,-348 # 24874 <__default_locale>
   185b0:	00c12083          	lw	ra,12(sp)
   185b4:	00812403          	lw	s0,8(sp)
   185b8:	00412483          	lw	s1,4(sp)
   185bc:	01010113          	add	sp,sp,16
   185c0:	00008067          	ret

000185c4 <_setlocale_r>:
   185c4:	fd010113          	add	sp,sp,-48
   185c8:	01312e23          	sw	s3,28(sp)
   185cc:	02112623          	sw	ra,44(sp)
   185d0:	01512a23          	sw	s5,20(sp)
   185d4:	00600793          	li	a5,6
   185d8:	00050993          	mv	s3,a0
   185dc:	1ab7e063          	bltu	a5,a1,1877c <_setlocale_r+0x1b8>
   185e0:	01612823          	sw	s6,16(sp)
   185e4:	01712623          	sw	s7,12(sp)
   185e8:	00060b13          	mv	s6,a2
   185ec:	00058b93          	mv	s7,a1
   185f0:	28060863          	beqz	a2,18880 <_setlocale_r+0x2bc>
   185f4:	03212023          	sw	s2,32(sp)
   185f8:	01412c23          	sw	s4,24(sp)
   185fc:	d5818913          	add	s2,gp,-680 # 24728 <__global_locale+0x20>
   18600:	39818a13          	add	s4,gp,920 # 24d68 <new_categories.1+0x20>
   18604:	02812423          	sw	s0,40(sp)
   18608:	02912223          	sw	s1,36(sp)
   1860c:	45818a93          	add	s5,gp,1112 # 24e28 <global_locale_string>
   18610:	00090493          	mv	s1,s2
   18614:	000a0413          	mv	s0,s4
   18618:	00048593          	mv	a1,s1
   1861c:	00040513          	mv	a0,s0
   18620:	02040413          	add	s0,s0,32
   18624:	76c000ef          	jal	18d90 <strcpy>
   18628:	02048493          	add	s1,s1,32
   1862c:	ff5416e3          	bne	s0,s5,18618 <_setlocale_r+0x54>
   18630:	000b4783          	lbu	a5,0(s6)
   18634:	0c079663          	bnez	a5,18700 <_setlocale_r+0x13c>
   18638:	260b9a63          	bnez	s7,188ac <_setlocale_r+0x2e8>
   1863c:	39818a93          	add	s5,gp,920 # 24d68 <new_categories.1+0x20>
   18640:	00100413          	li	s0,1
   18644:	01f00b13          	li	s6,31
   18648:	00700b93          	li	s7,7
   1864c:	00040593          	mv	a1,s0
   18650:	00098513          	mv	a0,s3
   18654:	ee5ff0ef          	jal	18538 <__get_locale_env>
   18658:	00050493          	mv	s1,a0
   1865c:	6a8000ef          	jal	18d04 <strlen>
   18660:	00050793          	mv	a5,a0
   18664:	00048593          	mv	a1,s1
   18668:	000a8513          	mv	a0,s5
   1866c:	0efb6c63          	bltu	s6,a5,18764 <_setlocale_r+0x1a0>
   18670:	00140413          	add	s0,s0,1
   18674:	71c000ef          	jal	18d90 <strcpy>
   18678:	020a8a93          	add	s5,s5,32
   1867c:	fd7418e3          	bne	s0,s7,1864c <_setlocale_r+0x88>
   18680:	01812423          	sw	s8,8(sp)
   18684:	2b818c13          	add	s8,gp,696 # 24c88 <saved_categories.0+0x20>
   18688:	39818a93          	add	s5,gp,920 # 24d68 <new_categories.1+0x20>
   1868c:	000c0493          	mv	s1,s8
   18690:	00100413          	li	s0,1
   18694:	d3818b93          	add	s7,gp,-712 # 24708 <__global_locale>
   18698:	00700b13          	li	s6,7
   1869c:	00090593          	mv	a1,s2
   186a0:	00048513          	mv	a0,s1
   186a4:	6ec000ef          	jal	18d90 <strcpy>
   186a8:	000a8613          	mv	a2,s5
   186ac:	00040593          	mv	a1,s0
   186b0:	000b8513          	mv	a0,s7
   186b4:	ec8ff0ef          	jal	17d7c <__loadlocale>
   186b8:	22050663          	beqz	a0,188e4 <_setlocale_r+0x320>
   186bc:	00140413          	add	s0,s0,1
   186c0:	02048493          	add	s1,s1,32
   186c4:	02090913          	add	s2,s2,32
   186c8:	020a8a93          	add	s5,s5,32
   186cc:	fd6418e3          	bne	s0,s6,1869c <_setlocale_r+0xd8>
   186d0:	02812403          	lw	s0,40(sp)
   186d4:	02412483          	lw	s1,36(sp)
   186d8:	02012903          	lw	s2,32(sp)
   186dc:	01812a03          	lw	s4,24(sp)
   186e0:	01012b03          	lw	s6,16(sp)
   186e4:	00c12b83          	lw	s7,12(sp)
   186e8:	00812c03          	lw	s8,8(sp)
   186ec:	02c12083          	lw	ra,44(sp)
   186f0:	01c12983          	lw	s3,28(sp)
   186f4:	01412a83          	lw	s5,20(sp)
   186f8:	03010113          	add	sp,sp,48
   186fc:	dc8ff06f          	j	17cc4 <currentlocale>
   18700:	080b8e63          	beqz	s7,1879c <_setlocale_r+0x1d8>
   18704:	000b0513          	mv	a0,s6
   18708:	5fc000ef          	jal	18d04 <strlen>
   1870c:	01f00793          	li	a5,31
   18710:	04a7ea63          	bltu	a5,a0,18764 <_setlocale_r+0x1a0>
   18714:	005b9413          	sll	s0,s7,0x5
   18718:	37818793          	add	a5,gp,888 # 24d48 <new_categories.1>
   1871c:	00f40433          	add	s0,s0,a5
   18720:	000b0593          	mv	a1,s6
   18724:	00040513          	mv	a0,s0
   18728:	668000ef          	jal	18d90 <strcpy>
   1872c:	00040613          	mv	a2,s0
   18730:	02812403          	lw	s0,40(sp)
   18734:	02412483          	lw	s1,36(sp)
   18738:	02012903          	lw	s2,32(sp)
   1873c:	01812a03          	lw	s4,24(sp)
   18740:	01012b03          	lw	s6,16(sp)
   18744:	02c12083          	lw	ra,44(sp)
   18748:	01c12983          	lw	s3,28(sp)
   1874c:	01412a83          	lw	s5,20(sp)
   18750:	000b8593          	mv	a1,s7
   18754:	00c12b83          	lw	s7,12(sp)
   18758:	d3818513          	add	a0,gp,-712 # 24708 <__global_locale>
   1875c:	03010113          	add	sp,sp,48
   18760:	e1cff06f          	j	17d7c <__loadlocale>
   18764:	02812403          	lw	s0,40(sp)
   18768:	02412483          	lw	s1,36(sp)
   1876c:	02012903          	lw	s2,32(sp)
   18770:	01812a03          	lw	s4,24(sp)
   18774:	01012b03          	lw	s6,16(sp)
   18778:	00c12b83          	lw	s7,12(sp)
   1877c:	01600a93          	li	s5,22
   18780:	02c12083          	lw	ra,44(sp)
   18784:	0159a023          	sw	s5,0(s3)
   18788:	00000513          	li	a0,0
   1878c:	01c12983          	lw	s3,28(sp)
   18790:	01412a83          	lw	s5,20(sp)
   18794:	03010113          	add	sp,sp,48
   18798:	00008067          	ret
   1879c:	02f00593          	li	a1,47
   187a0:	000b0513          	mv	a0,s6
   187a4:	058050ef          	jal	1d7fc <strchr>
   187a8:	00050413          	mv	s0,a0
   187ac:	1c050863          	beqz	a0,1897c <_setlocale_r+0x3b8>
   187b0:	00154783          	lbu	a5,1(a0)
   187b4:	02f00693          	li	a3,47
   187b8:	02f00713          	li	a4,47
   187bc:	00d79863          	bne	a5,a3,187cc <_setlocale_r+0x208>
   187c0:	00244783          	lbu	a5,2(s0)
   187c4:	00140413          	add	s0,s0,1
   187c8:	fee78ce3          	beq	a5,a4,187c0 <_setlocale_r+0x1fc>
   187cc:	f8078ce3          	beqz	a5,18764 <_setlocale_r+0x1a0>
   187d0:	01812423          	sw	s8,8(sp)
   187d4:	01912223          	sw	s9,4(sp)
   187d8:	01a12023          	sw	s10,0(sp)
   187dc:	00100c93          	li	s9,1
   187e0:	39818d13          	add	s10,gp,920 # 24d68 <new_categories.1+0x20>
   187e4:	01f00b93          	li	s7,31
   187e8:	02f00493          	li	s1,47
   187ec:	00700c13          	li	s8,7
   187f0:	41640633          	sub	a2,s0,s6
   187f4:	1acbcc63          	blt	s7,a2,189ac <_setlocale_r+0x3e8>
   187f8:	00160613          	add	a2,a2,1
   187fc:	000b0593          	mv	a1,s6
   18800:	000d0513          	mv	a0,s10
   18804:	138050ef          	jal	1d93c <strlcpy>
   18808:	00044783          	lbu	a5,0(s0)
   1880c:	001c8c93          	add	s9,s9,1
   18810:	00979863          	bne	a5,s1,18820 <_setlocale_r+0x25c>
   18814:	00144783          	lbu	a5,1(s0)
   18818:	00140413          	add	s0,s0,1
   1881c:	fe978ce3          	beq	a5,s1,18814 <_setlocale_r+0x250>
   18820:	02078663          	beqz	a5,1884c <_setlocale_r+0x288>
   18824:	00040793          	mv	a5,s0
   18828:	0017c703          	lbu	a4,1(a5)
   1882c:	00178793          	add	a5,a5,1
   18830:	00070463          	beqz	a4,18838 <_setlocale_r+0x274>
   18834:	fe971ae3          	bne	a4,s1,18828 <_setlocale_r+0x264>
   18838:	020d0d13          	add	s10,s10,32
   1883c:	038c8c63          	beq	s9,s8,18874 <_setlocale_r+0x2b0>
   18840:	00040b13          	mv	s6,s0
   18844:	00078413          	mv	s0,a5
   18848:	fa9ff06f          	j	187f0 <_setlocale_r+0x22c>
   1884c:	00700793          	li	a5,7
   18850:	02fc8263          	beq	s9,a5,18874 <_setlocale_r+0x2b0>
   18854:	005c9413          	sll	s0,s9,0x5
   18858:	37818793          	add	a5,gp,888 # 24d48 <new_categories.1>
   1885c:	00f40433          	add	s0,s0,a5
   18860:	fe040593          	add	a1,s0,-32
   18864:	00040513          	mv	a0,s0
   18868:	02040413          	add	s0,s0,32
   1886c:	524000ef          	jal	18d90 <strcpy>
   18870:	ff5418e3          	bne	s0,s5,18860 <_setlocale_r+0x29c>
   18874:	00412c83          	lw	s9,4(sp)
   18878:	00012d03          	lw	s10,0(sp)
   1887c:	e09ff06f          	j	18684 <_setlocale_r+0xc0>
   18880:	0e058863          	beqz	a1,18970 <_setlocale_r+0x3ac>
   18884:	02c12083          	lw	ra,44(sp)
   18888:	00559513          	sll	a0,a1,0x5
   1888c:	d3818793          	add	a5,gp,-712 # 24708 <__global_locale>
   18890:	01012b03          	lw	s6,16(sp)
   18894:	00c12b83          	lw	s7,12(sp)
   18898:	01c12983          	lw	s3,28(sp)
   1889c:	01412a83          	lw	s5,20(sp)
   188a0:	00f50533          	add	a0,a0,a5
   188a4:	03010113          	add	sp,sp,48
   188a8:	00008067          	ret
   188ac:	000b8593          	mv	a1,s7
   188b0:	00098513          	mv	a0,s3
   188b4:	c85ff0ef          	jal	18538 <__get_locale_env>
   188b8:	00050493          	mv	s1,a0
   188bc:	448000ef          	jal	18d04 <strlen>
   188c0:	01f00793          	li	a5,31
   188c4:	eaa7e0e3          	bltu	a5,a0,18764 <_setlocale_r+0x1a0>
   188c8:	005b9413          	sll	s0,s7,0x5
   188cc:	37818793          	add	a5,gp,888 # 24d48 <new_categories.1>
   188d0:	00f40433          	add	s0,s0,a5
   188d4:	00048593          	mv	a1,s1
   188d8:	00040513          	mv	a0,s0
   188dc:	4b4000ef          	jal	18d90 <strcpy>
   188e0:	e4dff06f          	j	1872c <_setlocale_r+0x168>
   188e4:	00100493          	li	s1,1
   188e8:	0009aa83          	lw	s5,0(s3)
   188ec:	d3818913          	add	s2,gp,-712 # 24708 <__global_locale>
   188f0:	0000ab17          	auipc	s6,0xa
   188f4:	9acb0b13          	add	s6,s6,-1620 # 2229c <__clzsi2+0xf8>
   188f8:	00941c63          	bne	s0,s1,18910 <_setlocale_r+0x34c>
   188fc:	0540006f          	j	18950 <_setlocale_r+0x38c>
   18900:	00148493          	add	s1,s1,1
   18904:	020a0a13          	add	s4,s4,32
   18908:	020c0c13          	add	s8,s8,32
   1890c:	04848263          	beq	s1,s0,18950 <_setlocale_r+0x38c>
   18910:	000c0593          	mv	a1,s8
   18914:	000a0513          	mv	a0,s4
   18918:	478000ef          	jal	18d90 <strcpy>
   1891c:	000a0613          	mv	a2,s4
   18920:	00048593          	mv	a1,s1
   18924:	00090513          	mv	a0,s2
   18928:	c54ff0ef          	jal	17d7c <__loadlocale>
   1892c:	fc051ae3          	bnez	a0,18900 <_setlocale_r+0x33c>
   18930:	000b0593          	mv	a1,s6
   18934:	000a0513          	mv	a0,s4
   18938:	458000ef          	jal	18d90 <strcpy>
   1893c:	000a0613          	mv	a2,s4
   18940:	00048593          	mv	a1,s1
   18944:	00090513          	mv	a0,s2
   18948:	c34ff0ef          	jal	17d7c <__loadlocale>
   1894c:	fb5ff06f          	j	18900 <_setlocale_r+0x33c>
   18950:	02812403          	lw	s0,40(sp)
   18954:	02412483          	lw	s1,36(sp)
   18958:	02012903          	lw	s2,32(sp)
   1895c:	01812a03          	lw	s4,24(sp)
   18960:	01012b03          	lw	s6,16(sp)
   18964:	00c12b83          	lw	s7,12(sp)
   18968:	00812c03          	lw	s8,8(sp)
   1896c:	e15ff06f          	j	18780 <_setlocale_r+0x1bc>
   18970:	01012b03          	lw	s6,16(sp)
   18974:	00c12b83          	lw	s7,12(sp)
   18978:	d75ff06f          	j	186ec <_setlocale_r+0x128>
   1897c:	000b0513          	mv	a0,s6
   18980:	384000ef          	jal	18d04 <strlen>
   18984:	01f00793          	li	a5,31
   18988:	dca7eee3          	bltu	a5,a0,18764 <_setlocale_r+0x1a0>
   1898c:	01812423          	sw	s8,8(sp)
   18990:	39818413          	add	s0,gp,920 # 24d68 <new_categories.1+0x20>
   18994:	00040513          	mv	a0,s0
   18998:	000b0593          	mv	a1,s6
   1899c:	02040413          	add	s0,s0,32
   189a0:	3f0000ef          	jal	18d90 <strcpy>
   189a4:	ff5418e3          	bne	s0,s5,18994 <_setlocale_r+0x3d0>
   189a8:	cddff06f          	j	18684 <_setlocale_r+0xc0>
   189ac:	02812403          	lw	s0,40(sp)
   189b0:	02412483          	lw	s1,36(sp)
   189b4:	02012903          	lw	s2,32(sp)
   189b8:	01812a03          	lw	s4,24(sp)
   189bc:	01012b03          	lw	s6,16(sp)
   189c0:	00c12b83          	lw	s7,12(sp)
   189c4:	00812c03          	lw	s8,8(sp)
   189c8:	00412c83          	lw	s9,4(sp)
   189cc:	00012d03          	lw	s10,0(sp)
   189d0:	dadff06f          	j	1877c <_setlocale_r+0x1b8>

000189d4 <__locale_mb_cur_max>:
   189d4:	e601c503          	lbu	a0,-416(gp) # 24830 <__global_locale+0x128>
   189d8:	00008067          	ret

000189dc <setlocale>:
   189dc:	00058613          	mv	a2,a1
   189e0:	00050593          	mv	a1,a0
   189e4:	f341a503          	lw	a0,-204(gp) # 24904 <_impure_ptr>
   189e8:	bddff06f          	j	185c4 <_setlocale_r>

000189ec <__localeconv_l>:
   189ec:	0f050513          	add	a0,a0,240
   189f0:	00008067          	ret

000189f4 <_localeconv_r>:
   189f4:	e2818513          	add	a0,gp,-472 # 247f8 <__global_locale+0xf0>
   189f8:	00008067          	ret

000189fc <localeconv>:
   189fc:	e2818513          	add	a0,gp,-472 # 247f8 <__global_locale+0xf0>
   18a00:	00008067          	ret

00018a04 <_sbrk_r>:
   18a04:	ff010113          	add	sp,sp,-16
   18a08:	00812423          	sw	s0,8(sp)
   18a0c:	00050413          	mv	s0,a0
   18a10:	00058513          	mv	a0,a1
   18a14:	f401a823          	sw	zero,-176(gp) # 24920 <errno>
   18a18:	00112623          	sw	ra,12(sp)
   18a1c:	575050ef          	jal	1e790 <_sbrk>
   18a20:	fff00793          	li	a5,-1
   18a24:	00f50a63          	beq	a0,a5,18a38 <_sbrk_r+0x34>
   18a28:	00c12083          	lw	ra,12(sp)
   18a2c:	00812403          	lw	s0,8(sp)
   18a30:	01010113          	add	sp,sp,16
   18a34:	00008067          	ret
   18a38:	f501a783          	lw	a5,-176(gp) # 24920 <errno>
   18a3c:	fe0786e3          	beqz	a5,18a28 <_sbrk_r+0x24>
   18a40:	00c12083          	lw	ra,12(sp)
   18a44:	00f42023          	sw	a5,0(s0)
   18a48:	00812403          	lw	s0,8(sp)
   18a4c:	01010113          	add	sp,sp,16
   18a50:	00008067          	ret

00018a54 <memmove>:
   18a54:	02a5f663          	bgeu	a1,a0,18a80 <memmove+0x2c>
   18a58:	00c58733          	add	a4,a1,a2
   18a5c:	02e57263          	bgeu	a0,a4,18a80 <memmove+0x2c>
   18a60:	00c507b3          	add	a5,a0,a2
   18a64:	04060663          	beqz	a2,18ab0 <memmove+0x5c>
   18a68:	fff74683          	lbu	a3,-1(a4)
   18a6c:	fff78793          	add	a5,a5,-1
   18a70:	fff70713          	add	a4,a4,-1
   18a74:	00d78023          	sb	a3,0(a5)
   18a78:	fef518e3          	bne	a0,a5,18a68 <memmove+0x14>
   18a7c:	00008067          	ret
   18a80:	00f00793          	li	a5,15
   18a84:	02c7e863          	bltu	a5,a2,18ab4 <memmove+0x60>
   18a88:	00050793          	mv	a5,a0
   18a8c:	fff60693          	add	a3,a2,-1
   18a90:	0c060263          	beqz	a2,18b54 <memmove+0x100>
   18a94:	00168693          	add	a3,a3,1 # 2001 <exit-0xe093>
   18a98:	00d786b3          	add	a3,a5,a3
   18a9c:	0005c703          	lbu	a4,0(a1)
   18aa0:	00178793          	add	a5,a5,1
   18aa4:	00158593          	add	a1,a1,1
   18aa8:	fee78fa3          	sb	a4,-1(a5)
   18aac:	fed798e3          	bne	a5,a3,18a9c <memmove+0x48>
   18ab0:	00008067          	ret
   18ab4:	00b567b3          	or	a5,a0,a1
   18ab8:	0037f793          	and	a5,a5,3
   18abc:	08079663          	bnez	a5,18b48 <memmove+0xf4>
   18ac0:	ff060893          	add	a7,a2,-16
   18ac4:	ff08f893          	and	a7,a7,-16
   18ac8:	01088893          	add	a7,a7,16
   18acc:	011506b3          	add	a3,a0,a7
   18ad0:	00058713          	mv	a4,a1
   18ad4:	00050793          	mv	a5,a0
   18ad8:	00072803          	lw	a6,0(a4)
   18adc:	01070713          	add	a4,a4,16
   18ae0:	01078793          	add	a5,a5,16
   18ae4:	ff07a823          	sw	a6,-16(a5)
   18ae8:	ff472803          	lw	a6,-12(a4)
   18aec:	ff07aa23          	sw	a6,-12(a5)
   18af0:	ff872803          	lw	a6,-8(a4)
   18af4:	ff07ac23          	sw	a6,-8(a5)
   18af8:	ffc72803          	lw	a6,-4(a4)
   18afc:	ff07ae23          	sw	a6,-4(a5)
   18b00:	fcd79ce3          	bne	a5,a3,18ad8 <memmove+0x84>
   18b04:	00c67813          	and	a6,a2,12
   18b08:	011585b3          	add	a1,a1,a7
   18b0c:	00f67713          	and	a4,a2,15
   18b10:	04080463          	beqz	a6,18b58 <memmove+0x104>
   18b14:	ffc70813          	add	a6,a4,-4
   18b18:	ffc87813          	and	a6,a6,-4
   18b1c:	00480813          	add	a6,a6,4
   18b20:	010687b3          	add	a5,a3,a6
   18b24:	00058713          	mv	a4,a1
   18b28:	00072883          	lw	a7,0(a4)
   18b2c:	00468693          	add	a3,a3,4
   18b30:	00470713          	add	a4,a4,4
   18b34:	ff16ae23          	sw	a7,-4(a3)
   18b38:	fef698e3          	bne	a3,a5,18b28 <memmove+0xd4>
   18b3c:	00367613          	and	a2,a2,3
   18b40:	010585b3          	add	a1,a1,a6
   18b44:	f49ff06f          	j	18a8c <memmove+0x38>
   18b48:	fff60693          	add	a3,a2,-1
   18b4c:	00050793          	mv	a5,a0
   18b50:	f45ff06f          	j	18a94 <memmove+0x40>
   18b54:	00008067          	ret
   18b58:	00070613          	mv	a2,a4
   18b5c:	f31ff06f          	j	18a8c <memmove+0x38>

00018b60 <memcpy>:
   18b60:	00a5c7b3          	xor	a5,a1,a0
   18b64:	0037f793          	and	a5,a5,3
   18b68:	00c508b3          	add	a7,a0,a2
   18b6c:	06079463          	bnez	a5,18bd4 <memcpy+0x74>
   18b70:	00300793          	li	a5,3
   18b74:	06c7f063          	bgeu	a5,a2,18bd4 <memcpy+0x74>
   18b78:	00357793          	and	a5,a0,3
   18b7c:	00050713          	mv	a4,a0
   18b80:	06079a63          	bnez	a5,18bf4 <memcpy+0x94>
   18b84:	ffc8f613          	and	a2,a7,-4
   18b88:	40e606b3          	sub	a3,a2,a4
   18b8c:	02000793          	li	a5,32
   18b90:	08d7ce63          	blt	a5,a3,18c2c <memcpy+0xcc>
   18b94:	00058693          	mv	a3,a1
   18b98:	00070793          	mv	a5,a4
   18b9c:	02c77863          	bgeu	a4,a2,18bcc <memcpy+0x6c>
   18ba0:	0006a803          	lw	a6,0(a3)
   18ba4:	00478793          	add	a5,a5,4
   18ba8:	00468693          	add	a3,a3,4
   18bac:	ff07ae23          	sw	a6,-4(a5)
   18bb0:	fec7e8e3          	bltu	a5,a2,18ba0 <memcpy+0x40>
   18bb4:	fff60793          	add	a5,a2,-1
   18bb8:	40e787b3          	sub	a5,a5,a4
   18bbc:	ffc7f793          	and	a5,a5,-4
   18bc0:	00478793          	add	a5,a5,4
   18bc4:	00f70733          	add	a4,a4,a5
   18bc8:	00f585b3          	add	a1,a1,a5
   18bcc:	01176863          	bltu	a4,a7,18bdc <memcpy+0x7c>
   18bd0:	00008067          	ret
   18bd4:	00050713          	mv	a4,a0
   18bd8:	05157863          	bgeu	a0,a7,18c28 <memcpy+0xc8>
   18bdc:	0005c783          	lbu	a5,0(a1)
   18be0:	00170713          	add	a4,a4,1
   18be4:	00158593          	add	a1,a1,1
   18be8:	fef70fa3          	sb	a5,-1(a4)
   18bec:	fee898e3          	bne	a7,a4,18bdc <memcpy+0x7c>
   18bf0:	00008067          	ret
   18bf4:	0005c683          	lbu	a3,0(a1)
   18bf8:	00170713          	add	a4,a4,1
   18bfc:	00377793          	and	a5,a4,3
   18c00:	fed70fa3          	sb	a3,-1(a4)
   18c04:	00158593          	add	a1,a1,1
   18c08:	f6078ee3          	beqz	a5,18b84 <memcpy+0x24>
   18c0c:	0005c683          	lbu	a3,0(a1)
   18c10:	00170713          	add	a4,a4,1
   18c14:	00377793          	and	a5,a4,3
   18c18:	fed70fa3          	sb	a3,-1(a4)
   18c1c:	00158593          	add	a1,a1,1
   18c20:	fc079ae3          	bnez	a5,18bf4 <memcpy+0x94>
   18c24:	f61ff06f          	j	18b84 <memcpy+0x24>
   18c28:	00008067          	ret
   18c2c:	ff010113          	add	sp,sp,-16
   18c30:	00812623          	sw	s0,12(sp)
   18c34:	02000413          	li	s0,32
   18c38:	0005a383          	lw	t2,0(a1)
   18c3c:	0045a283          	lw	t0,4(a1)
   18c40:	0085af83          	lw	t6,8(a1)
   18c44:	00c5af03          	lw	t5,12(a1)
   18c48:	0105ae83          	lw	t4,16(a1)
   18c4c:	0145ae03          	lw	t3,20(a1)
   18c50:	0185a303          	lw	t1,24(a1)
   18c54:	01c5a803          	lw	a6,28(a1)
   18c58:	0205a683          	lw	a3,32(a1)
   18c5c:	02470713          	add	a4,a4,36
   18c60:	40e607b3          	sub	a5,a2,a4
   18c64:	fc772e23          	sw	t2,-36(a4)
   18c68:	fe572023          	sw	t0,-32(a4)
   18c6c:	fff72223          	sw	t6,-28(a4)
   18c70:	ffe72423          	sw	t5,-24(a4)
   18c74:	ffd72623          	sw	t4,-20(a4)
   18c78:	ffc72823          	sw	t3,-16(a4)
   18c7c:	fe672a23          	sw	t1,-12(a4)
   18c80:	ff072c23          	sw	a6,-8(a4)
   18c84:	fed72e23          	sw	a3,-4(a4)
   18c88:	02458593          	add	a1,a1,36
   18c8c:	faf446e3          	blt	s0,a5,18c38 <memcpy+0xd8>
   18c90:	00058693          	mv	a3,a1
   18c94:	00070793          	mv	a5,a4
   18c98:	02c77863          	bgeu	a4,a2,18cc8 <memcpy+0x168>
   18c9c:	0006a803          	lw	a6,0(a3)
   18ca0:	00478793          	add	a5,a5,4
   18ca4:	00468693          	add	a3,a3,4
   18ca8:	ff07ae23          	sw	a6,-4(a5)
   18cac:	fec7e8e3          	bltu	a5,a2,18c9c <memcpy+0x13c>
   18cb0:	fff60793          	add	a5,a2,-1
   18cb4:	40e787b3          	sub	a5,a5,a4
   18cb8:	ffc7f793          	and	a5,a5,-4
   18cbc:	00478793          	add	a5,a5,4
   18cc0:	00f70733          	add	a4,a4,a5
   18cc4:	00f585b3          	add	a1,a1,a5
   18cc8:	01176863          	bltu	a4,a7,18cd8 <memcpy+0x178>
   18ccc:	00c12403          	lw	s0,12(sp)
   18cd0:	01010113          	add	sp,sp,16
   18cd4:	00008067          	ret
   18cd8:	0005c783          	lbu	a5,0(a1)
   18cdc:	00170713          	add	a4,a4,1
   18ce0:	00158593          	add	a1,a1,1
   18ce4:	fef70fa3          	sb	a5,-1(a4)
   18ce8:	fee882e3          	beq	a7,a4,18ccc <memcpy+0x16c>
   18cec:	0005c783          	lbu	a5,0(a1)
   18cf0:	00170713          	add	a4,a4,1
   18cf4:	00158593          	add	a1,a1,1
   18cf8:	fef70fa3          	sb	a5,-1(a4)
   18cfc:	fce89ee3          	bne	a7,a4,18cd8 <memcpy+0x178>
   18d00:	fcdff06f          	j	18ccc <memcpy+0x16c>

00018d04 <strlen>:
   18d04:	00357793          	and	a5,a0,3
   18d08:	00050713          	mv	a4,a0
   18d0c:	04079c63          	bnez	a5,18d64 <strlen+0x60>
   18d10:	7f7f86b7          	lui	a3,0x7f7f8
   18d14:	f7f68693          	add	a3,a3,-129 # 7f7f7f7f <__BSS_END__+0x7f7d306f>
   18d18:	fff00593          	li	a1,-1
   18d1c:	00072603          	lw	a2,0(a4)
   18d20:	00470713          	add	a4,a4,4
   18d24:	00d677b3          	and	a5,a2,a3
   18d28:	00d787b3          	add	a5,a5,a3
   18d2c:	00c7e7b3          	or	a5,a5,a2
   18d30:	00d7e7b3          	or	a5,a5,a3
   18d34:	feb784e3          	beq	a5,a1,18d1c <strlen+0x18>
   18d38:	ffc74683          	lbu	a3,-4(a4)
   18d3c:	40a707b3          	sub	a5,a4,a0
   18d40:	04068463          	beqz	a3,18d88 <strlen+0x84>
   18d44:	ffd74683          	lbu	a3,-3(a4)
   18d48:	02068c63          	beqz	a3,18d80 <strlen+0x7c>
   18d4c:	ffe74503          	lbu	a0,-2(a4)
   18d50:	00a03533          	snez	a0,a0
   18d54:	00f50533          	add	a0,a0,a5
   18d58:	ffe50513          	add	a0,a0,-2
   18d5c:	00008067          	ret
   18d60:	fa0688e3          	beqz	a3,18d10 <strlen+0xc>
   18d64:	00074783          	lbu	a5,0(a4)
   18d68:	00170713          	add	a4,a4,1
   18d6c:	00377693          	and	a3,a4,3
   18d70:	fe0798e3          	bnez	a5,18d60 <strlen+0x5c>
   18d74:	40a70733          	sub	a4,a4,a0
   18d78:	fff70513          	add	a0,a4,-1
   18d7c:	00008067          	ret
   18d80:	ffd78513          	add	a0,a5,-3
   18d84:	00008067          	ret
   18d88:	ffc78513          	add	a0,a5,-4
   18d8c:	00008067          	ret

00018d90 <strcpy>:
   18d90:	00b567b3          	or	a5,a0,a1
   18d94:	0037f793          	and	a5,a5,3
   18d98:	08079263          	bnez	a5,18e1c <strcpy+0x8c>
   18d9c:	0005a703          	lw	a4,0(a1)
   18da0:	7f7f86b7          	lui	a3,0x7f7f8
   18da4:	f7f68693          	add	a3,a3,-129 # 7f7f7f7f <__BSS_END__+0x7f7d306f>
   18da8:	00d777b3          	and	a5,a4,a3
   18dac:	00d787b3          	add	a5,a5,a3
   18db0:	00e7e7b3          	or	a5,a5,a4
   18db4:	00d7e7b3          	or	a5,a5,a3
   18db8:	fff00613          	li	a2,-1
   18dbc:	06c79e63          	bne	a5,a2,18e38 <strcpy+0xa8>
   18dc0:	00050613          	mv	a2,a0
   18dc4:	fff00813          	li	a6,-1
   18dc8:	00e62023          	sw	a4,0(a2)
   18dcc:	0045a703          	lw	a4,4(a1)
   18dd0:	00458593          	add	a1,a1,4
   18dd4:	00460613          	add	a2,a2,4
   18dd8:	00d777b3          	and	a5,a4,a3
   18ddc:	00d787b3          	add	a5,a5,a3
   18de0:	00e7e7b3          	or	a5,a5,a4
   18de4:	00d7e7b3          	or	a5,a5,a3
   18de8:	ff0780e3          	beq	a5,a6,18dc8 <strcpy+0x38>
   18dec:	0005c783          	lbu	a5,0(a1)
   18df0:	0015c703          	lbu	a4,1(a1)
   18df4:	0025c683          	lbu	a3,2(a1)
   18df8:	00f60023          	sb	a5,0(a2)
   18dfc:	00078a63          	beqz	a5,18e10 <strcpy+0x80>
   18e00:	00e600a3          	sb	a4,1(a2)
   18e04:	00070663          	beqz	a4,18e10 <strcpy+0x80>
   18e08:	00d60123          	sb	a3,2(a2)
   18e0c:	00069463          	bnez	a3,18e14 <strcpy+0x84>
   18e10:	00008067          	ret
   18e14:	000601a3          	sb	zero,3(a2)
   18e18:	00008067          	ret
   18e1c:	00050793          	mv	a5,a0
   18e20:	0005c703          	lbu	a4,0(a1)
   18e24:	00178793          	add	a5,a5,1
   18e28:	00158593          	add	a1,a1,1
   18e2c:	fee78fa3          	sb	a4,-1(a5)
   18e30:	fe0718e3          	bnez	a4,18e20 <strcpy+0x90>
   18e34:	00008067          	ret
   18e38:	00050613          	mv	a2,a0
   18e3c:	fb1ff06f          	j	18dec <strcpy+0x5c>

00018e40 <strcmp>:
   18e40:	00b56733          	or	a4,a0,a1
   18e44:	fff00393          	li	t2,-1
   18e48:	00377713          	and	a4,a4,3
   18e4c:	10071063          	bnez	a4,18f4c <strcmp+0x10c>
   18e50:	7f7f87b7          	lui	a5,0x7f7f8
   18e54:	f7f78793          	add	a5,a5,-129 # 7f7f7f7f <__BSS_END__+0x7f7d306f>
   18e58:	00052603          	lw	a2,0(a0)
   18e5c:	0005a683          	lw	a3,0(a1)
   18e60:	00f672b3          	and	t0,a2,a5
   18e64:	00f66333          	or	t1,a2,a5
   18e68:	00f282b3          	add	t0,t0,a5
   18e6c:	0062e2b3          	or	t0,t0,t1
   18e70:	10729263          	bne	t0,t2,18f74 <strcmp+0x134>
   18e74:	08d61663          	bne	a2,a3,18f00 <strcmp+0xc0>
   18e78:	00452603          	lw	a2,4(a0)
   18e7c:	0045a683          	lw	a3,4(a1)
   18e80:	00f672b3          	and	t0,a2,a5
   18e84:	00f66333          	or	t1,a2,a5
   18e88:	00f282b3          	add	t0,t0,a5
   18e8c:	0062e2b3          	or	t0,t0,t1
   18e90:	0c729e63          	bne	t0,t2,18f6c <strcmp+0x12c>
   18e94:	06d61663          	bne	a2,a3,18f00 <strcmp+0xc0>
   18e98:	00852603          	lw	a2,8(a0)
   18e9c:	0085a683          	lw	a3,8(a1)
   18ea0:	00f672b3          	and	t0,a2,a5
   18ea4:	00f66333          	or	t1,a2,a5
   18ea8:	00f282b3          	add	t0,t0,a5
   18eac:	0062e2b3          	or	t0,t0,t1
   18eb0:	0c729863          	bne	t0,t2,18f80 <strcmp+0x140>
   18eb4:	04d61663          	bne	a2,a3,18f00 <strcmp+0xc0>
   18eb8:	00c52603          	lw	a2,12(a0)
   18ebc:	00c5a683          	lw	a3,12(a1)
   18ec0:	00f672b3          	and	t0,a2,a5
   18ec4:	00f66333          	or	t1,a2,a5
   18ec8:	00f282b3          	add	t0,t0,a5
   18ecc:	0062e2b3          	or	t0,t0,t1
   18ed0:	0c729263          	bne	t0,t2,18f94 <strcmp+0x154>
   18ed4:	02d61663          	bne	a2,a3,18f00 <strcmp+0xc0>
   18ed8:	01052603          	lw	a2,16(a0)
   18edc:	0105a683          	lw	a3,16(a1)
   18ee0:	00f672b3          	and	t0,a2,a5
   18ee4:	00f66333          	or	t1,a2,a5
   18ee8:	00f282b3          	add	t0,t0,a5
   18eec:	0062e2b3          	or	t0,t0,t1
   18ef0:	0a729c63          	bne	t0,t2,18fa8 <strcmp+0x168>
   18ef4:	01450513          	add	a0,a0,20
   18ef8:	01458593          	add	a1,a1,20
   18efc:	f4d60ee3          	beq	a2,a3,18e58 <strcmp+0x18>
   18f00:	01061713          	sll	a4,a2,0x10
   18f04:	01069793          	sll	a5,a3,0x10
   18f08:	00f71e63          	bne	a4,a5,18f24 <strcmp+0xe4>
   18f0c:	01065713          	srl	a4,a2,0x10
   18f10:	0106d793          	srl	a5,a3,0x10
   18f14:	40f70533          	sub	a0,a4,a5
   18f18:	0ff57593          	zext.b	a1,a0
   18f1c:	02059063          	bnez	a1,18f3c <strcmp+0xfc>
   18f20:	00008067          	ret
   18f24:	01075713          	srl	a4,a4,0x10
   18f28:	0107d793          	srl	a5,a5,0x10
   18f2c:	40f70533          	sub	a0,a4,a5
   18f30:	0ff57593          	zext.b	a1,a0
   18f34:	00059463          	bnez	a1,18f3c <strcmp+0xfc>
   18f38:	00008067          	ret
   18f3c:	0ff77713          	zext.b	a4,a4
   18f40:	0ff7f793          	zext.b	a5,a5
   18f44:	40f70533          	sub	a0,a4,a5
   18f48:	00008067          	ret
   18f4c:	00054603          	lbu	a2,0(a0)
   18f50:	0005c683          	lbu	a3,0(a1)
   18f54:	00150513          	add	a0,a0,1
   18f58:	00158593          	add	a1,a1,1
   18f5c:	00d61463          	bne	a2,a3,18f64 <strcmp+0x124>
   18f60:	fe0616e3          	bnez	a2,18f4c <strcmp+0x10c>
   18f64:	40d60533          	sub	a0,a2,a3
   18f68:	00008067          	ret
   18f6c:	00450513          	add	a0,a0,4
   18f70:	00458593          	add	a1,a1,4
   18f74:	fcd61ce3          	bne	a2,a3,18f4c <strcmp+0x10c>
   18f78:	00000513          	li	a0,0
   18f7c:	00008067          	ret
   18f80:	00850513          	add	a0,a0,8
   18f84:	00858593          	add	a1,a1,8
   18f88:	fcd612e3          	bne	a2,a3,18f4c <strcmp+0x10c>
   18f8c:	00000513          	li	a0,0
   18f90:	00008067          	ret
   18f94:	00c50513          	add	a0,a0,12
   18f98:	00c58593          	add	a1,a1,12
   18f9c:	fad618e3          	bne	a2,a3,18f4c <strcmp+0x10c>
   18fa0:	00000513          	li	a0,0
   18fa4:	00008067          	ret
   18fa8:	01050513          	add	a0,a0,16
   18fac:	01058593          	add	a1,a1,16
   18fb0:	f8d61ee3          	bne	a2,a3,18f4c <strcmp+0x10c>
   18fb4:	00000513          	li	a0,0
   18fb8:	00008067          	ret

00018fbc <frexp>:
   18fbc:	ff010113          	add	sp,sp,-16
   18fc0:	00912223          	sw	s1,4(sp)
   18fc4:	800004b7          	lui	s1,0x80000
   18fc8:	00812423          	sw	s0,8(sp)
   18fcc:	00112623          	sw	ra,12(sp)
   18fd0:	fff48493          	add	s1,s1,-1 # 7fffffff <__BSS_END__+0x7ffdb0ef>
   18fd4:	00060413          	mv	s0,a2
   18fd8:	00062023          	sw	zero,0(a2)
   18fdc:	00b4f6b3          	and	a3,s1,a1
   18fe0:	7ff00637          	lui	a2,0x7ff00
   18fe4:	00058793          	mv	a5,a1
   18fe8:	00050713          	mv	a4,a0
   18fec:	04c6f063          	bgeu	a3,a2,1902c <frexp+0x70>
   18ff0:	00a6e633          	or	a2,a3,a0
   18ff4:	02060c63          	beqz	a2,1902c <frexp+0x70>
   18ff8:	0145d613          	srl	a2,a1,0x14
   18ffc:	7ff67613          	and	a2,a2,2047
   19000:	04060463          	beqz	a2,19048 <frexp+0x8c>
   19004:	00000593          	li	a1,0
   19008:	80100637          	lui	a2,0x80100
   1900c:	4146d693          	sra	a3,a3,0x14
   19010:	fff60613          	add	a2,a2,-1 # 800fffff <__BSS_END__+0x800db0ef>
   19014:	c0268693          	add	a3,a3,-1022
   19018:	00c7f7b3          	and	a5,a5,a2
   1901c:	00b686b3          	add	a3,a3,a1
   19020:	3fe00637          	lui	a2,0x3fe00
   19024:	00c7e7b3          	or	a5,a5,a2
   19028:	00d42023          	sw	a3,0(s0)
   1902c:	00c12083          	lw	ra,12(sp)
   19030:	00812403          	lw	s0,8(sp)
   19034:	00412483          	lw	s1,4(sp)
   19038:	00070513          	mv	a0,a4
   1903c:	00078593          	mv	a1,a5
   19040:	01010113          	add	sp,sp,16
   19044:	00008067          	ret
   19048:	0000c797          	auipc	a5,0xc
   1904c:	87078793          	add	a5,a5,-1936 # 248b8 <__SDATA_BEGIN__+0x20>
   19050:	0047a683          	lw	a3,4(a5)
   19054:	0007a603          	lw	a2,0(a5)
   19058:	1ad070ef          	jal	20a04 <__muldf3>
   1905c:	00058793          	mv	a5,a1
   19060:	00b4f6b3          	and	a3,s1,a1
   19064:	00050713          	mv	a4,a0
   19068:	fca00593          	li	a1,-54
   1906c:	f9dff06f          	j	19008 <frexp+0x4c>

00019070 <quorem>:
   19070:	fb010113          	add	sp,sp,-80
   19074:	04912223          	sw	s1,68(sp)
   19078:	01052783          	lw	a5,16(a0)
   1907c:	0105a483          	lw	s1,16(a1)
   19080:	04112623          	sw	ra,76(sp)
   19084:	00b12423          	sw	a1,8(sp)
   19088:	2097ca63          	blt	a5,s1,1929c <quorem+0x22c>
   1908c:	fff48493          	add	s1,s1,-1
   19090:	03512a23          	sw	s5,52(sp)
   19094:	03812423          	sw	s8,40(sp)
   19098:	00249a93          	sll	s5,s1,0x2
   1909c:	01458c13          	add	s8,a1,20
   190a0:	05212023          	sw	s2,64(sp)
   190a4:	03312e23          	sw	s3,60(sp)
   190a8:	015c0933          	add	s2,s8,s5
   190ac:	01450993          	add	s3,a0,20
   190b0:	015987b3          	add	a5,s3,s5
   190b4:	03712623          	sw	s7,44(sp)
   190b8:	00092b83          	lw	s7,0(s2)
   190bc:	03912223          	sw	s9,36(sp)
   190c0:	0007ac83          	lw	s9,0(a5)
   190c4:	001b8b93          	add	s7,s7,1
   190c8:	03412c23          	sw	s4,56(sp)
   190cc:	000b8593          	mv	a1,s7
   190d0:	00050a13          	mv	s4,a0
   190d4:	000c8513          	mv	a0,s9
   190d8:	04812423          	sw	s0,72(sp)
   190dc:	00f12623          	sw	a5,12(sp)
   190e0:	018090ef          	jal	220f8 <__hidden___udivsi3>
   190e4:	00050413          	mv	s0,a0
   190e8:	0d7cee63          	bltu	s9,s7,191c4 <quorem+0x154>
   190ec:	03a12023          	sw	s10,32(sp)
   190f0:	00010d37          	lui	s10,0x10
   190f4:	01b12e23          	sw	s11,28(sp)
   190f8:	03612823          	sw	s6,48(sp)
   190fc:	000c0a93          	mv	s5,s8
   19100:	00098d93          	mv	s11,s3
   19104:	00000c93          	li	s9,0
   19108:	00000b93          	li	s7,0
   1910c:	fffd0d13          	add	s10,s10,-1 # ffff <exit-0x95>
   19110:	000aab03          	lw	s6,0(s5)
   19114:	00040593          	mv	a1,s0
   19118:	004d8d93          	add	s11,s11,4
   1911c:	01ab7533          	and	a0,s6,s10
   19120:	7ad080ef          	jal	220cc <__mulsi3>
   19124:	00050793          	mv	a5,a0
   19128:	00040593          	mv	a1,s0
   1912c:	010b5513          	srl	a0,s6,0x10
   19130:	01978cb3          	add	s9,a5,s9
   19134:	799080ef          	jal	220cc <__mulsi3>
   19138:	ffcda603          	lw	a2,-4(s11)
   1913c:	01acf733          	and	a4,s9,s10
   19140:	010cdc93          	srl	s9,s9,0x10
   19144:	01a677b3          	and	a5,a2,s10
   19148:	40e787b3          	sub	a5,a5,a4
   1914c:	017787b3          	add	a5,a5,s7
   19150:	01950533          	add	a0,a0,s9
   19154:	4107d713          	sra	a4,a5,0x10
   19158:	01a575b3          	and	a1,a0,s10
   1915c:	01065613          	srl	a2,a2,0x10
   19160:	40b70733          	sub	a4,a4,a1
   19164:	00c70733          	add	a4,a4,a2
   19168:	01a7f7b3          	and	a5,a5,s10
   1916c:	01071613          	sll	a2,a4,0x10
   19170:	00c7e7b3          	or	a5,a5,a2
   19174:	004a8a93          	add	s5,s5,4
   19178:	fefdae23          	sw	a5,-4(s11)
   1917c:	01055c93          	srl	s9,a0,0x10
   19180:	41075b93          	sra	s7,a4,0x10
   19184:	f95976e3          	bgeu	s2,s5,19110 <quorem+0xa0>
   19188:	00c12703          	lw	a4,12(sp)
   1918c:	00072783          	lw	a5,0(a4)
   19190:	12079063          	bnez	a5,192b0 <quorem+0x240>
   19194:	ffc70a93          	add	s5,a4,-4
   19198:	0159e863          	bltu	s3,s5,191a8 <quorem+0x138>
   1919c:	0180006f          	j	191b4 <quorem+0x144>
   191a0:	fff48493          	add	s1,s1,-1
   191a4:	0159f863          	bgeu	s3,s5,191b4 <quorem+0x144>
   191a8:	000aa783          	lw	a5,0(s5)
   191ac:	ffca8a93          	add	s5,s5,-4
   191b0:	fe0788e3          	beqz	a5,191a0 <quorem+0x130>
   191b4:	03012b03          	lw	s6,48(sp)
   191b8:	02012d03          	lw	s10,32(sp)
   191bc:	01c12d83          	lw	s11,28(sp)
   191c0:	009a2823          	sw	s1,16(s4)
   191c4:	00812583          	lw	a1,8(sp)
   191c8:	000a0513          	mv	a0,s4
   191cc:	4e9020ef          	jal	1beb4 <__mcmp>
   191d0:	08054c63          	bltz	a0,19268 <quorem+0x1f8>
   191d4:	00010537          	lui	a0,0x10
   191d8:	00098593          	mv	a1,s3
   191dc:	00000713          	li	a4,0
   191e0:	fff50513          	add	a0,a0,-1 # ffff <exit-0x95>
   191e4:	0005a683          	lw	a3,0(a1)
   191e8:	000c2603          	lw	a2,0(s8)
   191ec:	00458593          	add	a1,a1,4
   191f0:	00a6f7b3          	and	a5,a3,a0
   191f4:	00a67833          	and	a6,a2,a0
   191f8:	410787b3          	sub	a5,a5,a6
   191fc:	00e787b3          	add	a5,a5,a4
   19200:	4107d713          	sra	a4,a5,0x10
   19204:	01065613          	srl	a2,a2,0x10
   19208:	0106d693          	srl	a3,a3,0x10
   1920c:	40c70733          	sub	a4,a4,a2
   19210:	00d70733          	add	a4,a4,a3
   19214:	01071693          	sll	a3,a4,0x10
   19218:	00a7f7b3          	and	a5,a5,a0
   1921c:	00d7e7b3          	or	a5,a5,a3
   19220:	004c0c13          	add	s8,s8,4
   19224:	fef5ae23          	sw	a5,-4(a1)
   19228:	41075713          	sra	a4,a4,0x10
   1922c:	fb897ce3          	bgeu	s2,s8,191e4 <quorem+0x174>
   19230:	00249793          	sll	a5,s1,0x2
   19234:	00f987b3          	add	a5,s3,a5
   19238:	0007a703          	lw	a4,0(a5)
   1923c:	02071463          	bnez	a4,19264 <quorem+0x1f4>
   19240:	ffc78793          	add	a5,a5,-4
   19244:	00f9e863          	bltu	s3,a5,19254 <quorem+0x1e4>
   19248:	0180006f          	j	19260 <quorem+0x1f0>
   1924c:	fff48493          	add	s1,s1,-1
   19250:	00f9f863          	bgeu	s3,a5,19260 <quorem+0x1f0>
   19254:	0007a703          	lw	a4,0(a5)
   19258:	ffc78793          	add	a5,a5,-4
   1925c:	fe0708e3          	beqz	a4,1924c <quorem+0x1dc>
   19260:	009a2823          	sw	s1,16(s4)
   19264:	00140413          	add	s0,s0,1
   19268:	04c12083          	lw	ra,76(sp)
   1926c:	00040513          	mv	a0,s0
   19270:	04812403          	lw	s0,72(sp)
   19274:	04012903          	lw	s2,64(sp)
   19278:	03c12983          	lw	s3,60(sp)
   1927c:	03812a03          	lw	s4,56(sp)
   19280:	03412a83          	lw	s5,52(sp)
   19284:	02c12b83          	lw	s7,44(sp)
   19288:	02812c03          	lw	s8,40(sp)
   1928c:	02412c83          	lw	s9,36(sp)
   19290:	04412483          	lw	s1,68(sp)
   19294:	05010113          	add	sp,sp,80
   19298:	00008067          	ret
   1929c:	04c12083          	lw	ra,76(sp)
   192a0:	04412483          	lw	s1,68(sp)
   192a4:	00000513          	li	a0,0
   192a8:	05010113          	add	sp,sp,80
   192ac:	00008067          	ret
   192b0:	00812583          	lw	a1,8(sp)
   192b4:	000a0513          	mv	a0,s4
   192b8:	03012b03          	lw	s6,48(sp)
   192bc:	02012d03          	lw	s10,32(sp)
   192c0:	01c12d83          	lw	s11,28(sp)
   192c4:	3f1020ef          	jal	1beb4 <__mcmp>
   192c8:	f00556e3          	bgez	a0,191d4 <quorem+0x164>
   192cc:	f9dff06f          	j	19268 <quorem+0x1f8>

000192d0 <_dtoa_r>:
   192d0:	03852303          	lw	t1,56(a0)
   192d4:	f5010113          	add	sp,sp,-176
   192d8:	0a812423          	sw	s0,168(sp)
   192dc:	0a912223          	sw	s1,164(sp)
   192e0:	0b212023          	sw	s2,160(sp)
   192e4:	09412c23          	sw	s4,152(sp)
   192e8:	07b12e23          	sw	s11,124(sp)
   192ec:	0a112623          	sw	ra,172(sp)
   192f0:	09312e23          	sw	s3,156(sp)
   192f4:	09512a23          	sw	s5,148(sp)
   192f8:	00e12a23          	sw	a4,20(sp)
   192fc:	00f12623          	sw	a5,12(sp)
   19300:	01112423          	sw	a7,8(sp)
   19304:	02b12223          	sw	a1,36(sp)
   19308:	00c12023          	sw	a2,0(sp)
   1930c:	00050413          	mv	s0,a0
   19310:	00058d93          	mv	s11,a1
   19314:	00060493          	mv	s1,a2
   19318:	00068a13          	mv	s4,a3
   1931c:	00080913          	mv	s2,a6
   19320:	02030263          	beqz	t1,19344 <_dtoa_r+0x74>
   19324:	03c52703          	lw	a4,60(a0)
   19328:	00100793          	li	a5,1
   1932c:	00030593          	mv	a1,t1
   19330:	00e797b3          	sll	a5,a5,a4
   19334:	00e32223          	sw	a4,4(t1)
   19338:	00f32423          	sw	a5,8(t1)
   1933c:	0e4020ef          	jal	1b420 <_Bfree>
   19340:	02042c23          	sw	zero,56(s0)
   19344:	00048993          	mv	s3,s1
   19348:	00000693          	li	a3,0
   1934c:	0004dc63          	bgez	s1,19364 <_dtoa_r+0x94>
   19350:	00149493          	sll	s1,s1,0x1
   19354:	0014d793          	srl	a5,s1,0x1
   19358:	00f12023          	sw	a5,0(sp)
   1935c:	00078993          	mv	s3,a5
   19360:	00100693          	li	a3,1
   19364:	7ff00737          	lui	a4,0x7ff00
   19368:	00d92023          	sw	a3,0(s2)
   1936c:	00e9f6b3          	and	a3,s3,a4
   19370:	64e68463          	beq	a3,a4,199b8 <_dtoa_r+0x6e8>
   19374:	00012483          	lw	s1,0(sp)
   19378:	000d8513          	mv	a0,s11
   1937c:	00000613          	li	a2,0
   19380:	00048593          	mv	a1,s1
   19384:	00000693          	li	a3,0
   19388:	01b12c23          	sw	s11,24(sp)
   1938c:	00912e23          	sw	s1,28(sp)
   19390:	3e0070ef          	jal	20770 <__eqdf2>
   19394:	04051c63          	bnez	a0,193ec <_dtoa_r+0x11c>
   19398:	00c12703          	lw	a4,12(sp)
   1939c:	00100793          	li	a5,1
   193a0:	00f72023          	sw	a5,0(a4) # 7ff00000 <__BSS_END__+0x7fedb0f0>
   193a4:	00812703          	lw	a4,8(sp)
   193a8:	00070863          	beqz	a4,193b8 <_dtoa_r+0xe8>
   193ac:	00009797          	auipc	a5,0x9
   193b0:	ee178793          	add	a5,a5,-287 # 2228d <__clzsi2+0xe9>
   193b4:	00f72023          	sw	a5,0(a4)
   193b8:	00009a97          	auipc	s5,0x9
   193bc:	ed4a8a93          	add	s5,s5,-300 # 2228c <__clzsi2+0xe8>
   193c0:	0ac12083          	lw	ra,172(sp)
   193c4:	0a812403          	lw	s0,168(sp)
   193c8:	0a412483          	lw	s1,164(sp)
   193cc:	0a012903          	lw	s2,160(sp)
   193d0:	09c12983          	lw	s3,156(sp)
   193d4:	09812a03          	lw	s4,152(sp)
   193d8:	07c12d83          	lw	s11,124(sp)
   193dc:	000a8513          	mv	a0,s5
   193e0:	09412a83          	lw	s5,148(sp)
   193e4:	0b010113          	add	sp,sp,176
   193e8:	00008067          	ret
   193ec:	00048613          	mv	a2,s1
   193f0:	06810713          	add	a4,sp,104
   193f4:	06c10693          	add	a3,sp,108
   193f8:	000d8593          	mv	a1,s11
   193fc:	00040513          	mv	a0,s0
   19400:	09612823          	sw	s6,144(sp)
   19404:	09712623          	sw	s7,140(sp)
   19408:	09812423          	sw	s8,136(sp)
   1940c:	09912223          	sw	s9,132(sp)
   19410:	09a12023          	sw	s10,128(sp)
   19414:	0149d913          	srl	s2,s3,0x14
   19418:	6d9020ef          	jal	1c2f0 <__d2b>
   1941c:	00050493          	mv	s1,a0
   19420:	5c091e63          	bnez	s2,199fc <_dtoa_r+0x72c>
   19424:	06812a83          	lw	s5,104(sp)
   19428:	06c12903          	lw	s2,108(sp)
   1942c:	02000793          	li	a5,32
   19430:	012a8933          	add	s2,s5,s2
   19434:	43290713          	add	a4,s2,1074
   19438:	36e7dae3          	bge	a5,a4,19fac <_dtoa_r+0xcdc>
   1943c:	04000793          	li	a5,64
   19440:	40e787b3          	sub	a5,a5,a4
   19444:	41290513          	add	a0,s2,1042
   19448:	00f997b3          	sll	a5,s3,a5
   1944c:	00add533          	srl	a0,s11,a0
   19450:	00a7e533          	or	a0,a5,a0
   19454:	7d8080ef          	jal	21c2c <__floatunsidf>
   19458:	fe1007b7          	lui	a5,0xfe100
   1945c:	00100693          	li	a3,1
   19460:	00050713          	mv	a4,a0
   19464:	00b787b3          	add	a5,a5,a1
   19468:	fff90913          	add	s2,s2,-1
   1946c:	02d12c23          	sw	a3,56(sp)
   19470:	0000b697          	auipc	a3,0xb
   19474:	45068693          	add	a3,a3,1104 # 248c0 <__SDATA_BEGIN__+0x28>
   19478:	0006a603          	lw	a2,0(a3)
   1947c:	0046a683          	lw	a3,4(a3)
   19480:	00070513          	mv	a0,a4
   19484:	00078593          	mv	a1,a5
   19488:	50d070ef          	jal	21194 <__subdf3>
   1948c:	0000b797          	auipc	a5,0xb
   19490:	43c78793          	add	a5,a5,1084 # 248c8 <__SDATA_BEGIN__+0x30>
   19494:	0007a603          	lw	a2,0(a5)
   19498:	0047a683          	lw	a3,4(a5)
   1949c:	568070ef          	jal	20a04 <__muldf3>
   194a0:	0000b797          	auipc	a5,0xb
   194a4:	43078793          	add	a5,a5,1072 # 248d0 <__SDATA_BEGIN__+0x38>
   194a8:	0007a603          	lw	a2,0(a5)
   194ac:	0047a683          	lw	a3,4(a5)
   194b0:	14c060ef          	jal	1f5fc <__adddf3>
   194b4:	00050b13          	mv	s6,a0
   194b8:	00090513          	mv	a0,s2
   194bc:	00058993          	mv	s3,a1
   194c0:	6b4080ef          	jal	21b74 <__floatsidf>
   194c4:	0000b797          	auipc	a5,0xb
   194c8:	41478793          	add	a5,a5,1044 # 248d8 <__SDATA_BEGIN__+0x40>
   194cc:	0007a603          	lw	a2,0(a5)
   194d0:	0047a683          	lw	a3,4(a5)
   194d4:	530070ef          	jal	20a04 <__muldf3>
   194d8:	00050613          	mv	a2,a0
   194dc:	00058693          	mv	a3,a1
   194e0:	000b0513          	mv	a0,s6
   194e4:	00098593          	mv	a1,s3
   194e8:	114060ef          	jal	1f5fc <__adddf3>
   194ec:	00050b93          	mv	s7,a0
   194f0:	00058b13          	mv	s6,a1
   194f4:	5fc080ef          	jal	21af0 <__fixdfsi>
   194f8:	00050993          	mv	s3,a0
   194fc:	000b0593          	mv	a1,s6
   19500:	000b8513          	mv	a0,s7
   19504:	00000613          	li	a2,0
   19508:	00000693          	li	a3,0
   1950c:	3f0070ef          	jal	208fc <__ledf2>
   19510:	02055063          	bgez	a0,19530 <_dtoa_r+0x260>
   19514:	00098513          	mv	a0,s3
   19518:	65c080ef          	jal	21b74 <__floatsidf>
   1951c:	000b8613          	mv	a2,s7
   19520:	000b0693          	mv	a3,s6
   19524:	24c070ef          	jal	20770 <__eqdf2>
   19528:	00a03533          	snez	a0,a0
   1952c:	40a989b3          	sub	s3,s3,a0
   19530:	412a8ab3          	sub	s5,s5,s2
   19534:	01600793          	li	a5,22
   19538:	fffa8b13          	add	s6,s5,-1
   1953c:	2137e2e3          	bltu	a5,s3,19f40 <_dtoa_r+0xc70>
   19540:	00399713          	sll	a4,s3,0x3
   19544:	00009797          	auipc	a5,0x9
   19548:	7b478793          	add	a5,a5,1972 # 22cf8 <__mprec_tens>
   1954c:	00e787b3          	add	a5,a5,a4
   19550:	0007a603          	lw	a2,0(a5)
   19554:	0047a683          	lw	a3,4(a5)
   19558:	01812503          	lw	a0,24(sp)
   1955c:	01c12583          	lw	a1,28(sp)
   19560:	39c070ef          	jal	208fc <__ledf2>
   19564:	220554e3          	bgez	a0,19f8c <_dtoa_r+0xcbc>
   19568:	fff98993          	add	s3,s3,-1
   1956c:	02012a23          	sw	zero,52(sp)
   19570:	00012823          	sw	zero,16(sp)
   19574:	4a0b4863          	bltz	s6,19a24 <_dtoa_r+0x754>
   19578:	4c09d063          	bgez	s3,19a38 <_dtoa_r+0x768>
   1957c:	01012783          	lw	a5,16(sp)
   19580:	03312023          	sw	s3,32(sp)
   19584:	413787b3          	sub	a5,a5,s3
   19588:	00f12823          	sw	a5,16(sp)
   1958c:	413007b3          	neg	a5,s3
   19590:	02f12823          	sw	a5,48(sp)
   19594:	00900793          	li	a5,9
   19598:	00000993          	li	s3,0
   1959c:	4b47e863          	bltu	a5,s4,19a4c <_dtoa_r+0x77c>
   195a0:	00500793          	li	a5,5
   195a4:	2147dae3          	bge	a5,s4,19fb8 <_dtoa_r+0xce8>
   195a8:	ffca0a13          	add	s4,s4,-4
   195ac:	00300793          	li	a5,3
   195b0:	00000913          	li	s2,0
   195b4:	66fa02e3          	beq	s4,a5,1a418 <_dtoa_r+0x1148>
   195b8:	6147dae3          	bge	a5,s4,1a3cc <_dtoa_r+0x10fc>
   195bc:	00400793          	li	a5,4
   195c0:	54fa1ae3          	bne	s4,a5,1a314 <_dtoa_r+0x1044>
   195c4:	00100793          	li	a5,1
   195c8:	02f12423          	sw	a5,40(sp)
   195cc:	01412603          	lw	a2,20(sp)
   195d0:	62c05ce3          	blez	a2,1a408 <_dtoa_r+0x1138>
   195d4:	02c12e23          	sw	a2,60(sp)
   195d8:	00060c13          	mv	s8,a2
   195dc:	01700693          	li	a3,23
   195e0:	00100713          	li	a4,1
   195e4:	00400793          	li	a5,4
   195e8:	00c6c463          	blt	a3,a2,195f0 <_dtoa_r+0x320>
   195ec:	3540106f          	j	1a940 <_dtoa_r+0x1670>
   195f0:	00179793          	sll	a5,a5,0x1
   195f4:	01478693          	add	a3,a5,20
   195f8:	00070593          	mv	a1,a4
   195fc:	00170713          	add	a4,a4,1
   19600:	fed678e3          	bgeu	a2,a3,195f0 <_dtoa_r+0x320>
   19604:	02b42e23          	sw	a1,60(s0)
   19608:	00040513          	mv	a0,s0
   1960c:	561010ef          	jal	1b36c <_Balloc>
   19610:	00050a93          	mv	s5,a0
   19614:	00051463          	bnez	a0,1961c <_dtoa_r+0x34c>
   19618:	30c0106f          	j	1a924 <_dtoa_r+0x1654>
   1961c:	02a42c23          	sw	a0,56(s0)
   19620:	00e00793          	li	a5,14
   19624:	5187ea63          	bltu	a5,s8,19b38 <_dtoa_r+0x868>
   19628:	50090863          	beqz	s2,19b38 <_dtoa_r+0x868>
   1962c:	02012783          	lw	a5,32(sp)
   19630:	62f054e3          	blez	a5,1a458 <_dtoa_r+0x1188>
   19634:	00f7f713          	and	a4,a5,15
   19638:	00371713          	sll	a4,a4,0x3
   1963c:	4047dc93          	sra	s9,a5,0x4
   19640:	00009797          	auipc	a5,0x9
   19644:	6b878793          	add	a5,a5,1720 # 22cf8 <__mprec_tens>
   19648:	00e787b3          	add	a5,a5,a4
   1964c:	010cf693          	and	a3,s9,16
   19650:	0007a803          	lw	a6,0(a5)
   19654:	0047a703          	lw	a4,4(a5)
   19658:	560682e3          	beqz	a3,1a3bc <_dtoa_r+0x10ec>
   1965c:	00009797          	auipc	a5,0x9
   19660:	67478793          	add	a5,a5,1652 # 22cd0 <__mprec_bigtens>
   19664:	0207a603          	lw	a2,32(a5)
   19668:	0247a683          	lw	a3,36(a5)
   1966c:	01812503          	lw	a0,24(sp)
   19670:	01c12583          	lw	a1,28(sp)
   19674:	04e12423          	sw	a4,72(sp)
   19678:	05012023          	sw	a6,64(sp)
   1967c:	049060ef          	jal	1fec4 <__divdf3>
   19680:	04012803          	lw	a6,64(sp)
   19684:	04812703          	lw	a4,72(sp)
   19688:	00fcfc93          	and	s9,s9,15
   1968c:	00050313          	mv	t1,a0
   19690:	00058d13          	mv	s10,a1
   19694:	00300913          	li	s2,3
   19698:	040c8c63          	beqz	s9,196f0 <_dtoa_r+0x420>
   1969c:	04812023          	sw	s0,64(sp)
   196a0:	00009b97          	auipc	s7,0x9
   196a4:	630b8b93          	add	s7,s7,1584 # 22cd0 <__mprec_bigtens>
   196a8:	00090413          	mv	s0,s2
   196ac:	00070593          	mv	a1,a4
   196b0:	00030913          	mv	s2,t1
   196b4:	001cf793          	and	a5,s9,1
   196b8:	00078e63          	beqz	a5,196d4 <_dtoa_r+0x404>
   196bc:	000ba603          	lw	a2,0(s7)
   196c0:	004ba683          	lw	a3,4(s7)
   196c4:	00080513          	mv	a0,a6
   196c8:	00140413          	add	s0,s0,1
   196cc:	338070ef          	jal	20a04 <__muldf3>
   196d0:	00050813          	mv	a6,a0
   196d4:	401cdc93          	sra	s9,s9,0x1
   196d8:	008b8b93          	add	s7,s7,8
   196dc:	fc0c9ce3          	bnez	s9,196b4 <_dtoa_r+0x3e4>
   196e0:	00090313          	mv	t1,s2
   196e4:	00040913          	mv	s2,s0
   196e8:	04012403          	lw	s0,64(sp)
   196ec:	00058713          	mv	a4,a1
   196f0:	00070693          	mv	a3,a4
   196f4:	00080613          	mv	a2,a6
   196f8:	00030513          	mv	a0,t1
   196fc:	000d0593          	mv	a1,s10
   19700:	7c4060ef          	jal	1fec4 <__divdf3>
   19704:	00050713          	mv	a4,a0
   19708:	00058793          	mv	a5,a1
   1970c:	03412683          	lw	a3,52(sp)
   19710:	02068c63          	beqz	a3,19748 <_dtoa_r+0x478>
   19714:	0000b697          	auipc	a3,0xb
   19718:	1cc68693          	add	a3,a3,460 # 248e0 <__SDATA_BEGIN__+0x48>
   1971c:	0006a603          	lw	a2,0(a3)
   19720:	0046a683          	lw	a3,4(a3)
   19724:	00070513          	mv	a0,a4
   19728:	00078593          	mv	a1,a5
   1972c:	04e12423          	sw	a4,72(sp)
   19730:	04f12023          	sw	a5,64(sp)
   19734:	1c8070ef          	jal	208fc <__ledf2>
   19738:	04012783          	lw	a5,64(sp)
   1973c:	04812703          	lw	a4,72(sp)
   19740:	00055463          	bgez	a0,19748 <_dtoa_r+0x478>
   19744:	04c0106f          	j	1a790 <_dtoa_r+0x14c0>
   19748:	00090513          	mv	a0,s2
   1974c:	04f12623          	sw	a5,76(sp)
   19750:	04e12023          	sw	a4,64(sp)
   19754:	420080ef          	jal	21b74 <__floatsidf>
   19758:	04012703          	lw	a4,64(sp)
   1975c:	04c12783          	lw	a5,76(sp)
   19760:	00070613          	mv	a2,a4
   19764:	00078693          	mv	a3,a5
   19768:	04e12423          	sw	a4,72(sp)
   1976c:	04f12023          	sw	a5,64(sp)
   19770:	294070ef          	jal	20a04 <__muldf3>
   19774:	0000b697          	auipc	a3,0xb
   19778:	17c68693          	add	a3,a3,380 # 248f0 <__SDATA_BEGIN__+0x58>
   1977c:	0006a603          	lw	a2,0(a3)
   19780:	0046a683          	lw	a3,4(a3)
   19784:	679050ef          	jal	1f5fc <__adddf3>
   19788:	fcc006b7          	lui	a3,0xfcc00
   1978c:	04012783          	lw	a5,64(sp)
   19790:	04812703          	lw	a4,72(sp)
   19794:	00050c93          	mv	s9,a0
   19798:	00b68bb3          	add	s7,a3,a1
   1979c:	340c0463          	beqz	s8,19ae4 <_dtoa_r+0x814>
   197a0:	02012683          	lw	a3,32(sp)
   197a4:	05812423          	sw	s8,72(sp)
   197a8:	04d12e23          	sw	a3,92(sp)
   197ac:	00070513          	mv	a0,a4
   197b0:	00078593          	mv	a1,a5
   197b4:	04e12623          	sw	a4,76(sp)
   197b8:	04f12023          	sw	a5,64(sp)
   197bc:	334080ef          	jal	21af0 <__fixdfsi>
   197c0:	04812783          	lw	a5,72(sp)
   197c4:	00050913          	mv	s2,a0
   197c8:	05912c23          	sw	s9,88(sp)
   197cc:	fff78693          	add	a3,a5,-1
   197d0:	00369693          	sll	a3,a3,0x3
   197d4:	00009797          	auipc	a5,0x9
   197d8:	52478793          	add	a5,a5,1316 # 22cf8 <__mprec_tens>
   197dc:	00d786b3          	add	a3,a5,a3
   197e0:	0006a783          	lw	a5,0(a3) # fcc00000 <__BSS_END__+0xfcbdb0f0>
   197e4:	0046a803          	lw	a6,4(a3)
   197e8:	001a8d13          	add	s10,s5,1
   197ec:	04f12823          	sw	a5,80(sp)
   197f0:	05012a23          	sw	a6,84(sp)
   197f4:	380080ef          	jal	21b74 <__floatsidf>
   197f8:	04c12703          	lw	a4,76(sp)
   197fc:	04012783          	lw	a5,64(sp)
   19800:	00050613          	mv	a2,a0
   19804:	00058693          	mv	a3,a1
   19808:	00070513          	mv	a0,a4
   1980c:	00078593          	mv	a1,a5
   19810:	185070ef          	jal	21194 <__subdf3>
   19814:	02812703          	lw	a4,40(sp)
   19818:	03090313          	add	t1,s2,48
   1981c:	05a12023          	sw	s10,64(sp)
   19820:	00050c93          	mv	s9,a0
   19824:	0ff37313          	zext.b	t1,t1
   19828:	5c0706e3          	beqz	a4,1a5f4 <_dtoa_r+0x1324>
   1982c:	0000b797          	auipc	a5,0xb
   19830:	08478793          	add	a5,a5,132 # 248b0 <__SDATA_BEGIN__+0x18>
   19834:	0007a503          	lw	a0,0(a5)
   19838:	05012603          	lw	a2,80(sp)
   1983c:	05412683          	lw	a3,84(sp)
   19840:	04b12023          	sw	a1,64(sp)
   19844:	0047a583          	lw	a1,4(a5)
   19848:	04612623          	sw	t1,76(sp)
   1984c:	678060ef          	jal	1fec4 <__divdf3>
   19850:	05812603          	lw	a2,88(sp)
   19854:	000b8693          	mv	a3,s7
   19858:	13d070ef          	jal	21194 <__subdf3>
   1985c:	04012883          	lw	a7,64(sp)
   19860:	04c12303          	lw	t1,76(sp)
   19864:	000c8613          	mv	a2,s9
   19868:	00088693          	mv	a3,a7
   1986c:	006a8023          	sb	t1,0(s5)
   19870:	00050913          	mv	s2,a0
   19874:	00058b93          	mv	s7,a1
   19878:	785060ef          	jal	207fc <__gedf2>
   1987c:	04012883          	lw	a7,64(sp)
   19880:	00a05463          	blez	a0,19888 <_dtoa_r+0x5b8>
   19884:	7c90006f          	j	1a84c <_dtoa_r+0x157c>
   19888:	0000b697          	auipc	a3,0xb
   1988c:	05868693          	add	a3,a3,88 # 248e0 <__SDATA_BEGIN__+0x48>
   19890:	0006a783          	lw	a5,0(a3)
   19894:	0046a803          	lw	a6,4(a3)
   19898:	05312623          	sw	s3,76(sp)
   1989c:	04f12023          	sw	a5,64(sp)
   198a0:	00000793          	li	a5,0
   198a4:	05612823          	sw	s6,80(sp)
   198a8:	05812c23          	sw	s8,88(sp)
   198ac:	05012223          	sw	a6,68(sp)
   198b0:	04812c03          	lw	s8,72(sp)
   198b4:	00078b13          	mv	s6,a5
   198b8:	05412423          	sw	s4,72(sp)
   198bc:	00088993          	mv	s3,a7
   198c0:	0980006f          	j	19958 <_dtoa_r+0x688>
   198c4:	001b0b13          	add	s6,s6,1
   198c8:	018b4463          	blt	s6,s8,198d0 <_dtoa_r+0x600>
   198cc:	7d10006f          	j	1a89c <_dtoa_r+0x15cc>
   198d0:	0000ba17          	auipc	s4,0xb
   198d4:	018a0a13          	add	s4,s4,24 # 248e8 <__SDATA_BEGIN__+0x50>
   198d8:	000a2603          	lw	a2,0(s4)
   198dc:	004a2683          	lw	a3,4(s4)
   198e0:	00090513          	mv	a0,s2
   198e4:	000b8593          	mv	a1,s7
   198e8:	11c070ef          	jal	20a04 <__muldf3>
   198ec:	000a2603          	lw	a2,0(s4)
   198f0:	004a2683          	lw	a3,4(s4)
   198f4:	00050913          	mv	s2,a0
   198f8:	00058b93          	mv	s7,a1
   198fc:	000c8513          	mv	a0,s9
   19900:	00098593          	mv	a1,s3
   19904:	100070ef          	jal	20a04 <__muldf3>
   19908:	00058c93          	mv	s9,a1
   1990c:	00050a13          	mv	s4,a0
   19910:	1e0080ef          	jal	21af0 <__fixdfsi>
   19914:	00050993          	mv	s3,a0
   19918:	25c080ef          	jal	21b74 <__floatsidf>
   1991c:	00050613          	mv	a2,a0
   19920:	00058693          	mv	a3,a1
   19924:	000a0513          	mv	a0,s4
   19928:	000c8593          	mv	a1,s9
   1992c:	069070ef          	jal	21194 <__subdf3>
   19930:	03098793          	add	a5,s3,48
   19934:	00090613          	mv	a2,s2
   19938:	000b8693          	mv	a3,s7
   1993c:	00fd0023          	sb	a5,0(s10)
   19940:	001d0d13          	add	s10,s10,1
   19944:	00050c93          	mv	s9,a0
   19948:	00058993          	mv	s3,a1
   1994c:	7b1060ef          	jal	208fc <__ledf2>
   19950:	00055463          	bgez	a0,19958 <_dtoa_r+0x688>
   19954:	6f90006f          	j	1a84c <_dtoa_r+0x157c>
   19958:	04012503          	lw	a0,64(sp)
   1995c:	04412583          	lw	a1,68(sp)
   19960:	000c8613          	mv	a2,s9
   19964:	00098693          	mv	a3,s3
   19968:	02d070ef          	jal	21194 <__subdf3>
   1996c:	00090613          	mv	a2,s2
   19970:	000b8693          	mv	a3,s7
   19974:	789060ef          	jal	208fc <__ledf2>
   19978:	f40556e3          	bgez	a0,198c4 <_dtoa_r+0x5f4>
   1997c:	05c12783          	lw	a5,92(sp)
   19980:	000d0b93          	mv	s7,s10
   19984:	00178c13          	add	s8,a5,1
   19988:	03900613          	li	a2,57
   1998c:	0080006f          	j	19994 <_dtoa_r+0x6c4>
   19990:	697a88e3          	beq	s5,s7,1a820 <_dtoa_r+0x1550>
   19994:	fffbc683          	lbu	a3,-1(s7)
   19998:	000b8d13          	mv	s10,s7
   1999c:	fffb8b93          	add	s7,s7,-1
   199a0:	fec688e3          	beq	a3,a2,19990 <_dtoa_r+0x6c0>
   199a4:	00168693          	add	a3,a3,1
   199a8:	0ff6f693          	zext.b	a3,a3
   199ac:	00db8023          	sb	a3,0(s7)
   199b0:	000c0a13          	mv	s4,s8
   199b4:	4f00006f          	j	19ea4 <_dtoa_r+0xbd4>
   199b8:	00c12683          	lw	a3,12(sp)
   199bc:	00002737          	lui	a4,0x2
   199c0:	00c99793          	sll	a5,s3,0xc
   199c4:	70f70713          	add	a4,a4,1807 # 270f <exit-0xd985>
   199c8:	00c7d793          	srl	a5,a5,0xc
   199cc:	00e6a023          	sw	a4,0(a3)
   199d0:	01b7e7b3          	or	a5,a5,s11
   199d4:	0a078063          	beqz	a5,19a74 <_dtoa_r+0x7a4>
   199d8:	00812783          	lw	a5,8(sp)
   199dc:	00009a97          	auipc	s5,0x9
   199e0:	9f4a8a93          	add	s5,s5,-1548 # 223d0 <__clzsi2+0x22c>
   199e4:	9c078ee3          	beqz	a5,193c0 <_dtoa_r+0xf0>
   199e8:	00009797          	auipc	a5,0x9
   199ec:	9eb78793          	add	a5,a5,-1557 # 223d3 <__clzsi2+0x22f>
   199f0:	00812703          	lw	a4,8(sp)
   199f4:	00f72023          	sw	a5,0(a4)
   199f8:	9c9ff06f          	j	193c0 <_dtoa_r+0xf0>
   199fc:	01c12783          	lw	a5,28(sp)
   19a00:	3ff006b7          	lui	a3,0x3ff00
   19a04:	06812a83          	lw	s5,104(sp)
   19a08:	00c79793          	sll	a5,a5,0xc
   19a0c:	00c7d793          	srl	a5,a5,0xc
   19a10:	01812703          	lw	a4,24(sp)
   19a14:	00d7e7b3          	or	a5,a5,a3
   19a18:	c0190913          	add	s2,s2,-1023
   19a1c:	02012c23          	sw	zero,56(sp)
   19a20:	a51ff06f          	j	19470 <_dtoa_r+0x1a0>
   19a24:	00100793          	li	a5,1
   19a28:	415787b3          	sub	a5,a5,s5
   19a2c:	00f12823          	sw	a5,16(sp)
   19a30:	00000b13          	li	s6,0
   19a34:	b409c4e3          	bltz	s3,1957c <_dtoa_r+0x2ac>
   19a38:	03312023          	sw	s3,32(sp)
   19a3c:	02012823          	sw	zero,48(sp)
   19a40:	00900793          	li	a5,9
   19a44:	013b0b33          	add	s6,s6,s3
   19a48:	b547fce3          	bgeu	a5,s4,195a0 <_dtoa_r+0x2d0>
   19a4c:	00100793          	li	a5,1
   19a50:	00100913          	li	s2,1
   19a54:	00000a13          	li	s4,0
   19a58:	02f12423          	sw	a5,40(sp)
   19a5c:	fff00c13          	li	s8,-1
   19a60:	00012a23          	sw	zero,20(sp)
   19a64:	02042e23          	sw	zero,60(s0)
   19a68:	03812e23          	sw	s8,60(sp)
   19a6c:	00000593          	li	a1,0
   19a70:	b99ff06f          	j	19608 <_dtoa_r+0x338>
   19a74:	00812703          	lw	a4,8(sp)
   19a78:	00009a97          	auipc	s5,0x9
   19a7c:	94ca8a93          	add	s5,s5,-1716 # 223c4 <__clzsi2+0x220>
   19a80:	00009797          	auipc	a5,0x9
   19a84:	94c78793          	add	a5,a5,-1716 # 223cc <__clzsi2+0x228>
   19a88:	f60714e3          	bnez	a4,199f0 <_dtoa_r+0x720>
   19a8c:	935ff06f          	j	193c0 <_dtoa_r+0xf0>
   19a90:	00090513          	mv	a0,s2
   19a94:	04f12623          	sw	a5,76(sp)
   19a98:	04e12023          	sw	a4,64(sp)
   19a9c:	0d8080ef          	jal	21b74 <__floatsidf>
   19aa0:	04012703          	lw	a4,64(sp)
   19aa4:	04c12783          	lw	a5,76(sp)
   19aa8:	00070613          	mv	a2,a4
   19aac:	00078693          	mv	a3,a5
   19ab0:	04e12423          	sw	a4,72(sp)
   19ab4:	04f12023          	sw	a5,64(sp)
   19ab8:	74d060ef          	jal	20a04 <__muldf3>
   19abc:	0000b697          	auipc	a3,0xb
   19ac0:	e3468693          	add	a3,a3,-460 # 248f0 <__SDATA_BEGIN__+0x58>
   19ac4:	0006a603          	lw	a2,0(a3)
   19ac8:	0046a683          	lw	a3,4(a3)
   19acc:	331050ef          	jal	1f5fc <__adddf3>
   19ad0:	04012783          	lw	a5,64(sp)
   19ad4:	04812703          	lw	a4,72(sp)
   19ad8:	fcc006b7          	lui	a3,0xfcc00
   19adc:	00050c93          	mv	s9,a0
   19ae0:	00b68bb3          	add	s7,a3,a1
   19ae4:	0000b697          	auipc	a3,0xb
   19ae8:	e1468693          	add	a3,a3,-492 # 248f8 <__SDATA_BEGIN__+0x60>
   19aec:	0006a603          	lw	a2,0(a3)
   19af0:	0046a683          	lw	a3,4(a3)
   19af4:	00070513          	mv	a0,a4
   19af8:	00078593          	mv	a1,a5
   19afc:	698070ef          	jal	21194 <__subdf3>
   19b00:	000c8613          	mv	a2,s9
   19b04:	000b8693          	mv	a3,s7
   19b08:	00050d13          	mv	s10,a0
   19b0c:	00058913          	mv	s2,a1
   19b10:	4ed060ef          	jal	207fc <__gedf2>
   19b14:	50a04ce3          	bgtz	a0,1a82c <_dtoa_r+0x155c>
   19b18:	800007b7          	lui	a5,0x80000
   19b1c:	0177c7b3          	xor	a5,a5,s7
   19b20:	000c8613          	mv	a2,s9
   19b24:	000d0513          	mv	a0,s10
   19b28:	00078693          	mv	a3,a5
   19b2c:	00090593          	mv	a1,s2
   19b30:	5cd060ef          	jal	208fc <__ledf2>
   19b34:	06054c63          	bltz	a0,19bac <_dtoa_r+0x8dc>
   19b38:	06c12783          	lw	a5,108(sp)
   19b3c:	1a07c663          	bltz	a5,19ce8 <_dtoa_r+0xa18>
   19b40:	02012683          	lw	a3,32(sp)
   19b44:	00e00713          	li	a4,14
   19b48:	1ad74063          	blt	a4,a3,19ce8 <_dtoa_r+0xa18>
   19b4c:	02012783          	lw	a5,32(sp)
   19b50:	00379713          	sll	a4,a5,0x3
   19b54:	00009797          	auipc	a5,0x9
   19b58:	1a478793          	add	a5,a5,420 # 22cf8 <__mprec_tens>
   19b5c:	00e787b3          	add	a5,a5,a4
   19b60:	0007a903          	lw	s2,0(a5)
   19b64:	0047a983          	lw	s3,4(a5)
   19b68:	01412783          	lw	a5,20(sp)
   19b6c:	0407dc63          	bgez	a5,19bc4 <_dtoa_r+0x8f4>
   19b70:	05804a63          	bgtz	s8,19bc4 <_dtoa_r+0x8f4>
   19b74:	020c1c63          	bnez	s8,19bac <_dtoa_r+0x8dc>
   19b78:	0000b797          	auipc	a5,0xb
   19b7c:	d8078793          	add	a5,a5,-640 # 248f8 <__SDATA_BEGIN__+0x60>
   19b80:	0007a603          	lw	a2,0(a5)
   19b84:	0047a683          	lw	a3,4(a5)
   19b88:	00090513          	mv	a0,s2
   19b8c:	00098593          	mv	a1,s3
   19b90:	675060ef          	jal	20a04 <__muldf3>
   19b94:	00050613          	mv	a2,a0
   19b98:	00058693          	mv	a3,a1
   19b9c:	01812503          	lw	a0,24(sp)
   19ba0:	01c12583          	lw	a1,28(sp)
   19ba4:	559060ef          	jal	208fc <__ledf2>
   19ba8:	48a042e3          	bgtz	a0,1a82c <_dtoa_r+0x155c>
   19bac:	000a8d13          	mv	s10,s5
   19bb0:	00012c23          	sw	zero,24(sp)
   19bb4:	00000913          	li	s2,0
   19bb8:	01412783          	lw	a5,20(sp)
   19bbc:	fff7ca13          	not	s4,a5
   19bc0:	6980006f          	j	1a258 <_dtoa_r+0xf88>
   19bc4:	001a8793          	add	a5,s5,1
   19bc8:	04f12023          	sw	a5,64(sp)
   19bcc:	01812b03          	lw	s6,24(sp)
   19bd0:	01c12a03          	lw	s4,28(sp)
   19bd4:	00090613          	mv	a2,s2
   19bd8:	00098693          	mv	a3,s3
   19bdc:	000b0513          	mv	a0,s6
   19be0:	000a0593          	mv	a1,s4
   19be4:	2e0060ef          	jal	1fec4 <__divdf3>
   19be8:	709070ef          	jal	21af0 <__fixdfsi>
   19bec:	00050d13          	mv	s10,a0
   19bf0:	785070ef          	jal	21b74 <__floatsidf>
   19bf4:	00090613          	mv	a2,s2
   19bf8:	00098693          	mv	a3,s3
   19bfc:	609060ef          	jal	20a04 <__muldf3>
   19c00:	00050613          	mv	a2,a0
   19c04:	00058693          	mv	a3,a1
   19c08:	000b0513          	mv	a0,s6
   19c0c:	000a0593          	mv	a1,s4
   19c10:	584070ef          	jal	21194 <__subdf3>
   19c14:	030d0793          	add	a5,s10,48
   19c18:	00fa8023          	sb	a5,0(s5)
   19c1c:	00100613          	li	a2,1
   19c20:	04012b83          	lw	s7,64(sp)
   19c24:	00050713          	mv	a4,a0
   19c28:	00058693          	mv	a3,a1
   19c2c:	0ccc0ee3          	beq	s8,a2,1a508 <_dtoa_r+0x1238>
   19c30:	0000b617          	auipc	a2,0xb
   19c34:	cb860613          	add	a2,a2,-840 # 248e8 <__SDATA_BEGIN__+0x50>
   19c38:	00062783          	lw	a5,0(a2)
   19c3c:	00462803          	lw	a6,4(a2)
   19c40:	00100d93          	li	s11,1
   19c44:	00f12023          	sw	a5,0(sp)
   19c48:	01012223          	sw	a6,4(sp)
   19c4c:	0600006f          	j	19cac <_dtoa_r+0x9dc>
   19c50:	00090613          	mv	a2,s2
   19c54:	00098693          	mv	a3,s3
   19c58:	000b0513          	mv	a0,s6
   19c5c:	000a0593          	mv	a1,s4
   19c60:	264060ef          	jal	1fec4 <__divdf3>
   19c64:	68d070ef          	jal	21af0 <__fixdfsi>
   19c68:	00050d13          	mv	s10,a0
   19c6c:	709070ef          	jal	21b74 <__floatsidf>
   19c70:	00090613          	mv	a2,s2
   19c74:	00098693          	mv	a3,s3
   19c78:	58d060ef          	jal	20a04 <__muldf3>
   19c7c:	00058693          	mv	a3,a1
   19c80:	00050613          	mv	a2,a0
   19c84:	000a0593          	mv	a1,s4
   19c88:	000b0513          	mv	a0,s6
   19c8c:	508070ef          	jal	21194 <__subdf3>
   19c90:	001b8b93          	add	s7,s7,1
   19c94:	030d0793          	add	a5,s10,48
   19c98:	001d8d93          	add	s11,s11,1
   19c9c:	fefb8fa3          	sb	a5,-1(s7)
   19ca0:	00050713          	mv	a4,a0
   19ca4:	00058693          	mv	a3,a1
   19ca8:	07bc00e3          	beq	s8,s11,1a508 <_dtoa_r+0x1238>
   19cac:	00012603          	lw	a2,0(sp)
   19cb0:	00068593          	mv	a1,a3
   19cb4:	00412683          	lw	a3,4(sp)
   19cb8:	00070513          	mv	a0,a4
   19cbc:	549060ef          	jal	20a04 <__muldf3>
   19cc0:	00000613          	li	a2,0
   19cc4:	00000693          	li	a3,0
   19cc8:	00050b13          	mv	s6,a0
   19ccc:	00058a13          	mv	s4,a1
   19cd0:	2a1060ef          	jal	20770 <__eqdf2>
   19cd4:	f6051ee3          	bnez	a0,19c50 <_dtoa_r+0x980>
   19cd8:	02012783          	lw	a5,32(sp)
   19cdc:	000b8d13          	mv	s10,s7
   19ce0:	00178a13          	add	s4,a5,1
   19ce4:	1c00006f          	j	19ea4 <_dtoa_r+0xbd4>
   19ce8:	02812703          	lw	a4,40(sp)
   19cec:	26071463          	bnez	a4,19f54 <_dtoa_r+0xc84>
   19cf0:	03012b83          	lw	s7,48(sp)
   19cf4:	01012c83          	lw	s9,16(sp)
   19cf8:	02012423          	sw	zero,40(sp)
   19cfc:	00000913          	li	s2,0
   19d00:	020c8263          	beqz	s9,19d24 <_dtoa_r+0xa54>
   19d04:	03605063          	blez	s6,19d24 <_dtoa_r+0xa54>
   19d08:	000c8793          	mv	a5,s9
   19d0c:	679b4263          	blt	s6,s9,1a370 <_dtoa_r+0x10a0>
   19d10:	01012703          	lw	a4,16(sp)
   19d14:	40fc8cb3          	sub	s9,s9,a5
   19d18:	40fb0b33          	sub	s6,s6,a5
   19d1c:	40f70733          	sub	a4,a4,a5
   19d20:	00e12823          	sw	a4,16(sp)
   19d24:	03012783          	lw	a5,48(sp)
   19d28:	02078263          	beqz	a5,19d4c <_dtoa_r+0xa7c>
   19d2c:	02812783          	lw	a5,40(sp)
   19d30:	00078463          	beqz	a5,19d38 <_dtoa_r+0xa68>
   19d34:	060b9ae3          	bnez	s7,1a5a8 <_dtoa_r+0x12d8>
   19d38:	03012603          	lw	a2,48(sp)
   19d3c:	00048593          	mv	a1,s1
   19d40:	00040513          	mv	a0,s0
   19d44:	691010ef          	jal	1bbd4 <__pow5mult>
   19d48:	00050493          	mv	s1,a0
   19d4c:	00100593          	li	a1,1
   19d50:	00040513          	mv	a0,s0
   19d54:	309010ef          	jal	1b85c <__i2b>
   19d58:	00a12c23          	sw	a0,24(sp)
   19d5c:	50099a63          	bnez	s3,1a270 <_dtoa_r+0xfa0>
   19d60:	00100793          	li	a5,1
   19d64:	5547da63          	bge	a5,s4,1a2b8 <_dtoa_r+0xfe8>
   19d68:	016787b3          	add	a5,a5,s6
   19d6c:	01f7f793          	and	a5,a5,31
   19d70:	1c078e63          	beqz	a5,19f4c <_dtoa_r+0xc7c>
   19d74:	02000713          	li	a4,32
   19d78:	40f70733          	sub	a4,a4,a5
   19d7c:	00400693          	li	a3,4
   19d80:	58e6d263          	bge	a3,a4,1a304 <_dtoa_r+0x1034>
   19d84:	01c00713          	li	a4,28
   19d88:	40f707b3          	sub	a5,a4,a5
   19d8c:	01012703          	lw	a4,16(sp)
   19d90:	00fc8cb3          	add	s9,s9,a5
   19d94:	00fb0b33          	add	s6,s6,a5
   19d98:	00f70733          	add	a4,a4,a5
   19d9c:	00e12823          	sw	a4,16(sp)
   19da0:	01012783          	lw	a5,16(sp)
   19da4:	12f04e63          	bgtz	a5,19ee0 <_dtoa_r+0xc10>
   19da8:	01605c63          	blez	s6,19dc0 <_dtoa_r+0xaf0>
   19dac:	01812583          	lw	a1,24(sp)
   19db0:	000b0613          	mv	a2,s6
   19db4:	00040513          	mv	a0,s0
   19db8:	76d010ef          	jal	1bd24 <__lshift>
   19dbc:	00a12c23          	sw	a0,24(sp)
   19dc0:	03412783          	lw	a5,52(sp)
   19dc4:	12079a63          	bnez	a5,19ef8 <_dtoa_r+0xc28>
   19dc8:	45805263          	blez	s8,1a20c <_dtoa_r+0xf3c>
   19dcc:	02812783          	lw	a5,40(sp)
   19dd0:	24079e63          	bnez	a5,1a02c <_dtoa_r+0xd5c>
   19dd4:	02012783          	lw	a5,32(sp)
   19dd8:	00178a13          	add	s4,a5,1
   19ddc:	01812b03          	lw	s6,24(sp)
   19de0:	00100993          	li	s3,1
   19de4:	0200006f          	j	19e04 <_dtoa_r+0xb34>
   19de8:	00048593          	mv	a1,s1
   19dec:	00000693          	li	a3,0
   19df0:	00a00613          	li	a2,10
   19df4:	00040513          	mv	a0,s0
   19df8:	64c010ef          	jal	1b444 <__multadd>
   19dfc:	00050493          	mv	s1,a0
   19e00:	00198993          	add	s3,s3,1
   19e04:	000b0593          	mv	a1,s6
   19e08:	00048513          	mv	a0,s1
   19e0c:	a64ff0ef          	jal	19070 <quorem>
   19e10:	03050b93          	add	s7,a0,48
   19e14:	013a87b3          	add	a5,s5,s3
   19e18:	ff778fa3          	sb	s7,-1(a5)
   19e1c:	fd89c6e3          	blt	s3,s8,19de8 <_dtoa_r+0xb18>
   19e20:	00100993          	li	s3,1
   19e24:	55804263          	bgtz	s8,1a368 <_dtoa_r+0x1098>
   19e28:	013a89b3          	add	s3,s5,s3
   19e2c:	00000c13          	li	s8,0
   19e30:	00048593          	mv	a1,s1
   19e34:	00100613          	li	a2,1
   19e38:	00040513          	mv	a0,s0
   19e3c:	6e9010ef          	jal	1bd24 <__lshift>
   19e40:	01812583          	lw	a1,24(sp)
   19e44:	00050493          	mv	s1,a0
   19e48:	06c020ef          	jal	1beb4 <__mcmp>
   19e4c:	4ea05c63          	blez	a0,1a344 <_dtoa_r+0x1074>
   19e50:	03900693          	li	a3,57
   19e54:	0080006f          	j	19e5c <_dtoa_r+0xb8c>
   19e58:	5f3a8863          	beq	s5,s3,1a448 <_dtoa_r+0x1178>
   19e5c:	fff9c783          	lbu	a5,-1(s3)
   19e60:	00098d13          	mv	s10,s3
   19e64:	fff98993          	add	s3,s3,-1
   19e68:	fed788e3          	beq	a5,a3,19e58 <_dtoa_r+0xb88>
   19e6c:	00178793          	add	a5,a5,1
   19e70:	00f98023          	sb	a5,0(s3)
   19e74:	01812583          	lw	a1,24(sp)
   19e78:	00040513          	mv	a0,s0
   19e7c:	5a4010ef          	jal	1b420 <_Bfree>
   19e80:	02090263          	beqz	s2,19ea4 <_dtoa_r+0xbd4>
   19e84:	000c0a63          	beqz	s8,19e98 <_dtoa_r+0xbc8>
   19e88:	012c0863          	beq	s8,s2,19e98 <_dtoa_r+0xbc8>
   19e8c:	000c0593          	mv	a1,s8
   19e90:	00040513          	mv	a0,s0
   19e94:	58c010ef          	jal	1b420 <_Bfree>
   19e98:	00090593          	mv	a1,s2
   19e9c:	00040513          	mv	a0,s0
   19ea0:	580010ef          	jal	1b420 <_Bfree>
   19ea4:	00048593          	mv	a1,s1
   19ea8:	00040513          	mv	a0,s0
   19eac:	574010ef          	jal	1b420 <_Bfree>
   19eb0:	00c12783          	lw	a5,12(sp)
   19eb4:	000d0023          	sb	zero,0(s10)
   19eb8:	0147a023          	sw	s4,0(a5)
   19ebc:	00812783          	lw	a5,8(sp)
   19ec0:	00078463          	beqz	a5,19ec8 <_dtoa_r+0xbf8>
   19ec4:	01a7a023          	sw	s10,0(a5)
   19ec8:	09012b03          	lw	s6,144(sp)
   19ecc:	08c12b83          	lw	s7,140(sp)
   19ed0:	08812c03          	lw	s8,136(sp)
   19ed4:	08412c83          	lw	s9,132(sp)
   19ed8:	08012d03          	lw	s10,128(sp)
   19edc:	ce4ff06f          	j	193c0 <_dtoa_r+0xf0>
   19ee0:	00048593          	mv	a1,s1
   19ee4:	00078613          	mv	a2,a5
   19ee8:	00040513          	mv	a0,s0
   19eec:	639010ef          	jal	1bd24 <__lshift>
   19ef0:	00050493          	mv	s1,a0
   19ef4:	eb5ff06f          	j	19da8 <_dtoa_r+0xad8>
   19ef8:	01812583          	lw	a1,24(sp)
   19efc:	00048513          	mv	a0,s1
   19f00:	7b5010ef          	jal	1beb4 <__mcmp>
   19f04:	ec0552e3          	bgez	a0,19dc8 <_dtoa_r+0xaf8>
   19f08:	02012783          	lw	a5,32(sp)
   19f0c:	00048593          	mv	a1,s1
   19f10:	00000693          	li	a3,0
   19f14:	00a00613          	li	a2,10
   19f18:	00040513          	mv	a0,s0
   19f1c:	fff78b13          	add	s6,a5,-1
   19f20:	524010ef          	jal	1b444 <__multadd>
   19f24:	02812783          	lw	a5,40(sp)
   19f28:	00050493          	mv	s1,a0
   19f2c:	0c079e63          	bnez	a5,1a008 <_dtoa_r+0xd38>
   19f30:	03c12c03          	lw	s8,60(sp)
   19f34:	17805ee3          	blez	s8,1a8b0 <_dtoa_r+0x15e0>
   19f38:	02012a03          	lw	s4,32(sp)
   19f3c:	ea1ff06f          	j	19ddc <_dtoa_r+0xb0c>
   19f40:	00100793          	li	a5,1
   19f44:	02f12a23          	sw	a5,52(sp)
   19f48:	e28ff06f          	j	19570 <_dtoa_r+0x2a0>
   19f4c:	01c00793          	li	a5,28
   19f50:	e3dff06f          	j	19d8c <_dtoa_r+0xabc>
   19f54:	00100713          	li	a4,1
   19f58:	4d475463          	bge	a4,s4,1a420 <_dtoa_r+0x1150>
   19f5c:	03012783          	lw	a5,48(sp)
   19f60:	fffc0b93          	add	s7,s8,-1
   19f64:	4177ca63          	blt	a5,s7,1a378 <_dtoa_r+0x10a8>
   19f68:	41778bb3          	sub	s7,a5,s7
   19f6c:	01012783          	lw	a5,16(sp)
   19f70:	41878cb3          	sub	s9,a5,s8
   19f74:	100c54e3          	bgez	s8,1a87c <_dtoa_r+0x15ac>
   19f78:	00100593          	li	a1,1
   19f7c:	00040513          	mv	a0,s0
   19f80:	0dd010ef          	jal	1b85c <__i2b>
   19f84:	00050913          	mv	s2,a0
   19f88:	d79ff06f          	j	19d00 <_dtoa_r+0xa30>
   19f8c:	02012a23          	sw	zero,52(sp)
   19f90:	00012823          	sw	zero,16(sp)
   19f94:	ab5042e3          	bgtz	s5,19a38 <_dtoa_r+0x768>
   19f98:	00100793          	li	a5,1
   19f9c:	415787b3          	sub	a5,a5,s5
   19fa0:	00f12823          	sw	a5,16(sp)
   19fa4:	00000b13          	li	s6,0
   19fa8:	a91ff06f          	j	19a38 <_dtoa_r+0x768>
   19fac:	40e787b3          	sub	a5,a5,a4
   19fb0:	00fd9533          	sll	a0,s11,a5
   19fb4:	ca0ff06f          	j	19454 <_dtoa_r+0x184>
   19fb8:	00300793          	li	a5,3
   19fbc:	00100913          	li	s2,1
   19fc0:	44fa0c63          	beq	s4,a5,1a418 <_dtoa_r+0x1148>
   19fc4:	df47cc63          	blt	a5,s4,195bc <_dtoa_r+0x2ec>
   19fc8:	00200793          	li	a5,2
   19fcc:	18fa00e3          	beq	s4,a5,1a94c <_dtoa_r+0x167c>
   19fd0:	02042e23          	sw	zero,60(s0)
   19fd4:	00000593          	li	a1,0
   19fd8:	00040513          	mv	a0,s0
   19fdc:	390010ef          	jal	1b36c <_Balloc>
   19fe0:	00050a93          	mv	s5,a0
   19fe4:	140500e3          	beqz	a0,1a924 <_dtoa_r+0x1654>
   19fe8:	00100793          	li	a5,1
   19fec:	02f12423          	sw	a5,40(sp)
   19ff0:	fff00793          	li	a5,-1
   19ff4:	02a42c23          	sw	a0,56(s0)
   19ff8:	02f12e23          	sw	a5,60(sp)
   19ffc:	fff00c13          	li	s8,-1
   1a000:	00012a23          	sw	zero,20(sp)
   1a004:	b35ff06f          	j	19b38 <_dtoa_r+0x868>
   1a008:	00090593          	mv	a1,s2
   1a00c:	00000693          	li	a3,0
   1a010:	00a00613          	li	a2,10
   1a014:	00040513          	mv	a0,s0
   1a018:	42c010ef          	jal	1b444 <__multadd>
   1a01c:	03c12c03          	lw	s8,60(sp)
   1a020:	00050913          	mv	s2,a0
   1a024:	0b805ae3          	blez	s8,1a8d8 <_dtoa_r+0x1608>
   1a028:	03612023          	sw	s6,32(sp)
   1a02c:	01905c63          	blez	s9,1a044 <_dtoa_r+0xd74>
   1a030:	00090593          	mv	a1,s2
   1a034:	000c8613          	mv	a2,s9
   1a038:	00040513          	mv	a0,s0
   1a03c:	4e9010ef          	jal	1bd24 <__lshift>
   1a040:	00050913          	mv	s2,a0
   1a044:	00090b13          	mv	s6,s2
   1a048:	50099e63          	bnez	s3,1a564 <_dtoa_r+0x1294>
   1a04c:	02412783          	lw	a5,36(sp)
   1a050:	fffa8d13          	add	s10,s5,-1
   1a054:	000a8c93          	mv	s9,s5
   1a058:	01512823          	sw	s5,16(sp)
   1a05c:	01812a83          	lw	s5,24(sp)
   1a060:	0017f793          	and	a5,a5,1
   1a064:	018d0d33          	add	s10,s10,s8
   1a068:	00f12023          	sw	a5,0(sp)
   1a06c:	01b12a23          	sw	s11,20(sp)
   1a070:	000a8593          	mv	a1,s5
   1a074:	00048513          	mv	a0,s1
   1a078:	ff9fe0ef          	jal	19070 <quorem>
   1a07c:	00050c13          	mv	s8,a0
   1a080:	00090593          	mv	a1,s2
   1a084:	00048513          	mv	a0,s1
   1a088:	62d010ef          	jal	1beb4 <__mcmp>
   1a08c:	00050993          	mv	s3,a0
   1a090:	000b0613          	mv	a2,s6
   1a094:	000a8593          	mv	a1,s5
   1a098:	00040513          	mv	a0,s0
   1a09c:	671010ef          	jal	1bf0c <__mdiff>
   1a0a0:	00c52703          	lw	a4,12(a0)
   1a0a4:	030c0b93          	add	s7,s8,48
   1a0a8:	00050d93          	mv	s11,a0
   1a0ac:	08071c63          	bnez	a4,1a144 <_dtoa_r+0xe74>
   1a0b0:	00050593          	mv	a1,a0
   1a0b4:	00048513          	mv	a0,s1
   1a0b8:	5fd010ef          	jal	1beb4 <__mcmp>
   1a0bc:	00050713          	mv	a4,a0
   1a0c0:	000d8593          	mv	a1,s11
   1a0c4:	00040513          	mv	a0,s0
   1a0c8:	00070d93          	mv	s11,a4
   1a0cc:	354010ef          	jal	1b420 <_Bfree>
   1a0d0:	014de6b3          	or	a3,s11,s4
   1a0d4:	0e069a63          	bnez	a3,1a1c8 <_dtoa_r+0xef8>
   1a0d8:	00012783          	lw	a5,0(sp)
   1a0dc:	76078e63          	beqz	a5,1a858 <_dtoa_r+0x1588>
   1a0e0:	7809c663          	bltz	s3,1a86c <_dtoa_r+0x159c>
   1a0e4:	017c8023          	sb	s7,0(s9)
   1a0e8:	001c8993          	add	s3,s9,1
   1a0ec:	679d0e63          	beq	s10,s9,1a768 <_dtoa_r+0x1498>
   1a0f0:	00048593          	mv	a1,s1
   1a0f4:	00000693          	li	a3,0
   1a0f8:	00a00613          	li	a2,10
   1a0fc:	00040513          	mv	a0,s0
   1a100:	344010ef          	jal	1b444 <__multadd>
   1a104:	00050493          	mv	s1,a0
   1a108:	00000693          	li	a3,0
   1a10c:	00a00613          	li	a2,10
   1a110:	00090593          	mv	a1,s2
   1a114:	00040513          	mv	a0,s0
   1a118:	09690e63          	beq	s2,s6,1a1b4 <_dtoa_r+0xee4>
   1a11c:	328010ef          	jal	1b444 <__multadd>
   1a120:	000b0593          	mv	a1,s6
   1a124:	00050913          	mv	s2,a0
   1a128:	00000693          	li	a3,0
   1a12c:	00a00613          	li	a2,10
   1a130:	00040513          	mv	a0,s0
   1a134:	310010ef          	jal	1b444 <__multadd>
   1a138:	00050b13          	mv	s6,a0
   1a13c:	00098c93          	mv	s9,s3
   1a140:	f31ff06f          	j	1a070 <_dtoa_r+0xda0>
   1a144:	00050593          	mv	a1,a0
   1a148:	00040513          	mv	a0,s0
   1a14c:	01012a83          	lw	s5,16(sp)
   1a150:	01412d83          	lw	s11,20(sp)
   1a154:	2cc010ef          	jal	1b420 <_Bfree>
   1a158:	0009ca63          	bltz	s3,1a16c <_dtoa_r+0xe9c>
   1a15c:	001df713          	and	a4,s11,1
   1a160:	0149e9b3          	or	s3,s3,s4
   1a164:	01376733          	or	a4,a4,s3
   1a168:	06071e63          	bnez	a4,1a1e4 <_dtoa_r+0xf14>
   1a16c:	00048593          	mv	a1,s1
   1a170:	00100613          	li	a2,1
   1a174:	00040513          	mv	a0,s0
   1a178:	3ad010ef          	jal	1bd24 <__lshift>
   1a17c:	01812583          	lw	a1,24(sp)
   1a180:	00050493          	mv	s1,a0
   1a184:	531010ef          	jal	1beb4 <__mcmp>
   1a188:	24a05863          	blez	a0,1a3d8 <_dtoa_r+0x1108>
   1a18c:	03900713          	li	a4,57
   1a190:	24eb8c63          	beq	s7,a4,1a3e8 <_dtoa_r+0x1118>
   1a194:	031c0b93          	add	s7,s8,49
   1a198:	02012783          	lw	a5,32(sp)
   1a19c:	00090c13          	mv	s8,s2
   1a1a0:	001c8d13          	add	s10,s9,1
   1a1a4:	017c8023          	sb	s7,0(s9)
   1a1a8:	00178a13          	add	s4,a5,1
   1a1ac:	000b0913          	mv	s2,s6
   1a1b0:	cc5ff06f          	j	19e74 <_dtoa_r+0xba4>
   1a1b4:	290010ef          	jal	1b444 <__multadd>
   1a1b8:	00050913          	mv	s2,a0
   1a1bc:	00050b13          	mv	s6,a0
   1a1c0:	00098c93          	mv	s9,s3
   1a1c4:	eadff06f          	j	1a070 <_dtoa_r+0xda0>
   1a1c8:	7409c863          	bltz	s3,1a918 <_dtoa_r+0x1648>
   1a1cc:	00012783          	lw	a5,0(sp)
   1a1d0:	0149e9b3          	or	s3,s3,s4
   1a1d4:	0137e9b3          	or	s3,a5,s3
   1a1d8:	74098063          	beqz	s3,1a918 <_dtoa_r+0x1648>
   1a1dc:	f1b054e3          	blez	s11,1a0e4 <_dtoa_r+0xe14>
   1a1e0:	01012a83          	lw	s5,16(sp)
   1a1e4:	03900713          	li	a4,57
   1a1e8:	20eb8063          	beq	s7,a4,1a3e8 <_dtoa_r+0x1118>
   1a1ec:	02012703          	lw	a4,32(sp)
   1a1f0:	001b8793          	add	a5,s7,1
   1a1f4:	00090c13          	mv	s8,s2
   1a1f8:	001c8d13          	add	s10,s9,1
   1a1fc:	00170a13          	add	s4,a4,1
   1a200:	00fc8023          	sb	a5,0(s9)
   1a204:	000b0913          	mv	s2,s6
   1a208:	c6dff06f          	j	19e74 <_dtoa_r+0xba4>
   1a20c:	00200793          	li	a5,2
   1a210:	bb47dee3          	bge	a5,s4,19dcc <_dtoa_r+0xafc>
   1a214:	000a8d13          	mv	s10,s5
   1a218:	9a0c10e3          	bnez	s8,19bb8 <_dtoa_r+0x8e8>
   1a21c:	01812583          	lw	a1,24(sp)
   1a220:	00000693          	li	a3,0
   1a224:	00500613          	li	a2,5
   1a228:	00040513          	mv	a0,s0
   1a22c:	218010ef          	jal	1b444 <__multadd>
   1a230:	00050593          	mv	a1,a0
   1a234:	00a12c23          	sw	a0,24(sp)
   1a238:	00048513          	mv	a0,s1
   1a23c:	479010ef          	jal	1beb4 <__mcmp>
   1a240:	96a05ce3          	blez	a0,19bb8 <_dtoa_r+0x8e8>
   1a244:	03100793          	li	a5,49
   1a248:	00fa8023          	sb	a5,0(s5)
   1a24c:	02012783          	lw	a5,32(sp)
   1a250:	001a8d13          	add	s10,s5,1
   1a254:	00178a13          	add	s4,a5,1
   1a258:	01812583          	lw	a1,24(sp)
   1a25c:	00040513          	mv	a0,s0
   1a260:	001a0a13          	add	s4,s4,1
   1a264:	1bc010ef          	jal	1b420 <_Bfree>
   1a268:	c20918e3          	bnez	s2,19e98 <_dtoa_r+0xbc8>
   1a26c:	c39ff06f          	j	19ea4 <_dtoa_r+0xbd4>
   1a270:	00050593          	mv	a1,a0
   1a274:	00098613          	mv	a2,s3
   1a278:	00040513          	mv	a0,s0
   1a27c:	159010ef          	jal	1bbd4 <__pow5mult>
   1a280:	00100793          	li	a5,1
   1a284:	00a12c23          	sw	a0,24(sp)
   1a288:	1147de63          	bge	a5,s4,1a3a4 <_dtoa_r+0x10d4>
   1a28c:	00000993          	li	s3,0
   1a290:	01812703          	lw	a4,24(sp)
   1a294:	01072783          	lw	a5,16(a4)
   1a298:	00378793          	add	a5,a5,3
   1a29c:	00279793          	sll	a5,a5,0x2
   1a2a0:	00f707b3          	add	a5,a4,a5
   1a2a4:	0047a503          	lw	a0,4(a5)
   1a2a8:	45c010ef          	jal	1b704 <__hi0bits>
   1a2ac:	02000793          	li	a5,32
   1a2b0:	40a787b3          	sub	a5,a5,a0
   1a2b4:	ab5ff06f          	j	19d68 <_dtoa_r+0xa98>
   1a2b8:	02412783          	lw	a5,36(sp)
   1a2bc:	04079063          	bnez	a5,1a2fc <_dtoa_r+0x102c>
   1a2c0:	00012783          	lw	a5,0(sp)
   1a2c4:	00c79793          	sll	a5,a5,0xc
   1a2c8:	02079a63          	bnez	a5,1a2fc <_dtoa_r+0x102c>
   1a2cc:	00012683          	lw	a3,0(sp)
   1a2d0:	00000793          	li	a5,0
   1a2d4:	0146d713          	srl	a4,a3,0x14
   1a2d8:	7ff77713          	and	a4,a4,2047
   1a2dc:	00070c63          	beqz	a4,1a2f4 <_dtoa_r+0x1024>
   1a2e0:	01012783          	lw	a5,16(sp)
   1a2e4:	001b0b13          	add	s6,s6,1
   1a2e8:	00178793          	add	a5,a5,1
   1a2ec:	00f12823          	sw	a5,16(sp)
   1a2f0:	00100793          	li	a5,1
   1a2f4:	58099063          	bnez	s3,1a874 <_dtoa_r+0x15a4>
   1a2f8:	00078993          	mv	s3,a5
   1a2fc:	00100793          	li	a5,1
   1a300:	a69ff06f          	j	19d68 <_dtoa_r+0xa98>
   1a304:	a8d70ee3          	beq	a4,a3,19da0 <_dtoa_r+0xad0>
   1a308:	03c00713          	li	a4,60
   1a30c:	40f707b3          	sub	a5,a4,a5
   1a310:	a7dff06f          	j	19d8c <_dtoa_r+0xabc>
   1a314:	00100793          	li	a5,1
   1a318:	00500a13          	li	s4,5
   1a31c:	02f12423          	sw	a5,40(sp)
   1a320:	01412783          	lw	a5,20(sp)
   1a324:	02012703          	lw	a4,32(sp)
   1a328:	00e787b3          	add	a5,a5,a4
   1a32c:	00178c13          	add	s8,a5,1
   1a330:	02f12e23          	sw	a5,60(sp)
   1a334:	000c0613          	mv	a2,s8
   1a338:	ab804263          	bgtz	s8,195dc <_dtoa_r+0x30c>
   1a33c:	00100613          	li	a2,1
   1a340:	a9cff06f          	j	195dc <_dtoa_r+0x30c>
   1a344:	00051663          	bnez	a0,1a350 <_dtoa_r+0x1080>
   1a348:	001bf793          	and	a5,s7,1
   1a34c:	b00792e3          	bnez	a5,19e50 <_dtoa_r+0xb80>
   1a350:	03000693          	li	a3,48
   1a354:	fff9c783          	lbu	a5,-1(s3)
   1a358:	00098d13          	mv	s10,s3
   1a35c:	fff98993          	add	s3,s3,-1
   1a360:	fed78ae3          	beq	a5,a3,1a354 <_dtoa_r+0x1084>
   1a364:	b11ff06f          	j	19e74 <_dtoa_r+0xba4>
   1a368:	000c0993          	mv	s3,s8
   1a36c:	abdff06f          	j	19e28 <_dtoa_r+0xb58>
   1a370:	000b0793          	mv	a5,s6
   1a374:	99dff06f          	j	19d10 <_dtoa_r+0xa40>
   1a378:	03012783          	lw	a5,48(sp)
   1a37c:	01012703          	lw	a4,16(sp)
   1a380:	03712823          	sw	s7,48(sp)
   1a384:	40fb87b3          	sub	a5,s7,a5
   1a388:	00f989b3          	add	s3,s3,a5
   1a38c:	018707b3          	add	a5,a4,s8
   1a390:	00070c93          	mv	s9,a4
   1a394:	018b0b33          	add	s6,s6,s8
   1a398:	00f12823          	sw	a5,16(sp)
   1a39c:	00000b93          	li	s7,0
   1a3a0:	bd9ff06f          	j	19f78 <_dtoa_r+0xca8>
   1a3a4:	02412783          	lw	a5,36(sp)
   1a3a8:	ee0792e3          	bnez	a5,1a28c <_dtoa_r+0xfbc>
   1a3ac:	00012783          	lw	a5,0(sp)
   1a3b0:	00c79793          	sll	a5,a5,0xc
   1a3b4:	ec079ce3          	bnez	a5,1a28c <_dtoa_r+0xfbc>
   1a3b8:	f15ff06f          	j	1a2cc <_dtoa_r+0xffc>
   1a3bc:	01812303          	lw	t1,24(sp)
   1a3c0:	01c12d03          	lw	s10,28(sp)
   1a3c4:	00200913          	li	s2,2
   1a3c8:	ad0ff06f          	j	19698 <_dtoa_r+0x3c8>
   1a3cc:	00200a13          	li	s4,2
   1a3d0:	02012423          	sw	zero,40(sp)
   1a3d4:	9f8ff06f          	j	195cc <_dtoa_r+0x2fc>
   1a3d8:	dc0510e3          	bnez	a0,1a198 <_dtoa_r+0xec8>
   1a3dc:	001bf713          	and	a4,s7,1
   1a3e0:	da0716e3          	bnez	a4,1a18c <_dtoa_r+0xebc>
   1a3e4:	db5ff06f          	j	1a198 <_dtoa_r+0xec8>
   1a3e8:	03900793          	li	a5,57
   1a3ec:	00fc8023          	sb	a5,0(s9)
   1a3f0:	02012783          	lw	a5,32(sp)
   1a3f4:	00090c13          	mv	s8,s2
   1a3f8:	001c8993          	add	s3,s9,1
   1a3fc:	00178a13          	add	s4,a5,1
   1a400:	000b0913          	mv	s2,s6
   1a404:	a4dff06f          	j	19e50 <_dtoa_r+0xb80>
   1a408:	00100793          	li	a5,1
   1a40c:	00100c13          	li	s8,1
   1a410:	00f12a23          	sw	a5,20(sp)
   1a414:	e50ff06f          	j	19a64 <_dtoa_r+0x794>
   1a418:	02012423          	sw	zero,40(sp)
   1a41c:	f05ff06f          	j	1a320 <_dtoa_r+0x1050>
   1a420:	03812703          	lw	a4,56(sp)
   1a424:	30070e63          	beqz	a4,1a740 <_dtoa_r+0x1470>
   1a428:	01012703          	lw	a4,16(sp)
   1a42c:	43378793          	add	a5,a5,1075
   1a430:	00fb0b33          	add	s6,s6,a5
   1a434:	00f707b3          	add	a5,a4,a5
   1a438:	03012b83          	lw	s7,48(sp)
   1a43c:	00070c93          	mv	s9,a4
   1a440:	00f12823          	sw	a5,16(sp)
   1a444:	b35ff06f          	j	19f78 <_dtoa_r+0xca8>
   1a448:	03100793          	li	a5,49
   1a44c:	00fa8023          	sb	a5,0(s5)
   1a450:	001a0a13          	add	s4,s4,1
   1a454:	a21ff06f          	j	19e74 <_dtoa_r+0xba4>
   1a458:	02012783          	lw	a5,32(sp)
   1a45c:	32078263          	beqz	a5,1a780 <_dtoa_r+0x14b0>
   1a460:	40f00bb3          	neg	s7,a5
   1a464:	00fbf713          	and	a4,s7,15
   1a468:	00371713          	sll	a4,a4,0x3
   1a46c:	00009797          	auipc	a5,0x9
   1a470:	88c78793          	add	a5,a5,-1908 # 22cf8 <__mprec_tens>
   1a474:	00e787b3          	add	a5,a5,a4
   1a478:	0007a603          	lw	a2,0(a5)
   1a47c:	0047a683          	lw	a3,4(a5)
   1a480:	01812503          	lw	a0,24(sp)
   1a484:	01c12583          	lw	a1,28(sp)
   1a488:	404bdb93          	sra	s7,s7,0x4
   1a48c:	578060ef          	jal	20a04 <__muldf3>
   1a490:	00058d13          	mv	s10,a1
   1a494:	440b8c63          	beqz	s7,1a8ec <_dtoa_r+0x161c>
   1a498:	00200913          	li	s2,2
   1a49c:	04812023          	sw	s0,64(sp)
   1a4a0:	00009c97          	auipc	s9,0x9
   1a4a4:	830c8c93          	add	s9,s9,-2000 # 22cd0 <__mprec_bigtens>
   1a4a8:	00090413          	mv	s0,s2
   1a4ac:	00050713          	mv	a4,a0
   1a4b0:	00000613          	li	a2,0
   1a4b4:	00050913          	mv	s2,a0
   1a4b8:	001bf693          	and	a3,s7,1
   1a4bc:	02068063          	beqz	a3,1a4dc <_dtoa_r+0x120c>
   1a4c0:	000ca603          	lw	a2,0(s9)
   1a4c4:	004ca683          	lw	a3,4(s9)
   1a4c8:	00070513          	mv	a0,a4
   1a4cc:	00140413          	add	s0,s0,1
   1a4d0:	534060ef          	jal	20a04 <__muldf3>
   1a4d4:	00050713          	mv	a4,a0
   1a4d8:	00100613          	li	a2,1
   1a4dc:	401bdb93          	sra	s7,s7,0x1
   1a4e0:	008c8c93          	add	s9,s9,8
   1a4e4:	fc0b9ae3          	bnez	s7,1a4b8 <_dtoa_r+0x11e8>
   1a4e8:	00090513          	mv	a0,s2
   1a4ec:	00058793          	mv	a5,a1
   1a4f0:	00040913          	mv	s2,s0
   1a4f4:	04012403          	lw	s0,64(sp)
   1a4f8:	a0061a63          	bnez	a2,1970c <_dtoa_r+0x43c>
   1a4fc:	00050713          	mv	a4,a0
   1a500:	000d0793          	mv	a5,s10
   1a504:	a08ff06f          	j	1970c <_dtoa_r+0x43c>
   1a508:	00068593          	mv	a1,a3
   1a50c:	00070613          	mv	a2,a4
   1a510:	00070513          	mv	a0,a4
   1a514:	0e8050ef          	jal	1f5fc <__adddf3>
   1a518:	02012783          	lw	a5,32(sp)
   1a51c:	00090613          	mv	a2,s2
   1a520:	00098693          	mv	a3,s3
   1a524:	00178a13          	add	s4,a5,1
   1a528:	00050c93          	mv	s9,a0
   1a52c:	00058b13          	mv	s6,a1
   1a530:	000a0c13          	mv	s8,s4
   1a534:	2c8060ef          	jal	207fc <__gedf2>
   1a538:	c4a04863          	bgtz	a0,19988 <_dtoa_r+0x6b8>
   1a53c:	000c8513          	mv	a0,s9
   1a540:	000b0593          	mv	a1,s6
   1a544:	00090613          	mv	a2,s2
   1a548:	00098693          	mv	a3,s3
   1a54c:	224060ef          	jal	20770 <__eqdf2>
   1a550:	00051663          	bnez	a0,1a55c <_dtoa_r+0x128c>
   1a554:	001d7d13          	and	s10,s10,1
   1a558:	c20d1863          	bnez	s10,19988 <_dtoa_r+0x6b8>
   1a55c:	000b8d13          	mv	s10,s7
   1a560:	945ff06f          	j	19ea4 <_dtoa_r+0xbd4>
   1a564:	00492583          	lw	a1,4(s2)
   1a568:	00040513          	mv	a0,s0
   1a56c:	601000ef          	jal	1b36c <_Balloc>
   1a570:	00050993          	mv	s3,a0
   1a574:	38050463          	beqz	a0,1a8fc <_dtoa_r+0x162c>
   1a578:	01092603          	lw	a2,16(s2)
   1a57c:	00c90593          	add	a1,s2,12
   1a580:	00c50513          	add	a0,a0,12
   1a584:	00260613          	add	a2,a2,2
   1a588:	00261613          	sll	a2,a2,0x2
   1a58c:	dd4fe0ef          	jal	18b60 <memcpy>
   1a590:	00100613          	li	a2,1
   1a594:	00098593          	mv	a1,s3
   1a598:	00040513          	mv	a0,s0
   1a59c:	788010ef          	jal	1bd24 <__lshift>
   1a5a0:	00050b13          	mv	s6,a0
   1a5a4:	aa9ff06f          	j	1a04c <_dtoa_r+0xd7c>
   1a5a8:	00090593          	mv	a1,s2
   1a5ac:	000b8613          	mv	a2,s7
   1a5b0:	00040513          	mv	a0,s0
   1a5b4:	620010ef          	jal	1bbd4 <__pow5mult>
   1a5b8:	00048613          	mv	a2,s1
   1a5bc:	00050593          	mv	a1,a0
   1a5c0:	00050913          	mv	s2,a0
   1a5c4:	00040513          	mv	a0,s0
   1a5c8:	344010ef          	jal	1b90c <__multiply>
   1a5cc:	00050793          	mv	a5,a0
   1a5d0:	00048593          	mv	a1,s1
   1a5d4:	00040513          	mv	a0,s0
   1a5d8:	00078493          	mv	s1,a5
   1a5dc:	645000ef          	jal	1b420 <_Bfree>
   1a5e0:	03012783          	lw	a5,48(sp)
   1a5e4:	417787b3          	sub	a5,a5,s7
   1a5e8:	02f12823          	sw	a5,48(sp)
   1a5ec:	f6078063          	beqz	a5,19d4c <_dtoa_r+0xa7c>
   1a5f0:	f48ff06f          	j	19d38 <_dtoa_r+0xa68>
   1a5f4:	05012603          	lw	a2,80(sp)
   1a5f8:	05412683          	lw	a3,84(sp)
   1a5fc:	05812503          	lw	a0,88(sp)
   1a600:	04b12623          	sw	a1,76(sp)
   1a604:	000b8593          	mv	a1,s7
   1a608:	02612423          	sw	t1,40(sp)
   1a60c:	3f8060ef          	jal	20a04 <__muldf3>
   1a610:	02812303          	lw	t1,40(sp)
   1a614:	04812783          	lw	a5,72(sp)
   1a618:	00100693          	li	a3,1
   1a61c:	006a8023          	sb	t1,0(s5)
   1a620:	02a12c23          	sw	a0,56(sp)
   1a624:	04c12883          	lw	a7,76(sp)
   1a628:	00058913          	mv	s2,a1
   1a62c:	00fa8bb3          	add	s7,s5,a5
   1a630:	0000a617          	auipc	a2,0xa
   1a634:	2b860613          	add	a2,a2,696 # 248e8 <__SDATA_BEGIN__+0x50>
   1a638:	28d78c63          	beq	a5,a3,1a8d0 <_dtoa_r+0x1600>
   1a63c:	00062783          	lw	a5,0(a2)
   1a640:	00462803          	lw	a6,4(a2)
   1a644:	04912423          	sw	s1,72(sp)
   1a648:	02f12423          	sw	a5,40(sp)
   1a64c:	03012623          	sw	a6,44(sp)
   1a650:	04812623          	sw	s0,76(sp)
   1a654:	000c8513          	mv	a0,s9
   1a658:	00088593          	mv	a1,a7
   1a65c:	02812603          	lw	a2,40(sp)
   1a660:	02c12683          	lw	a3,44(sp)
   1a664:	001d0d13          	add	s10,s10,1
   1a668:	39c060ef          	jal	20a04 <__muldf3>
   1a66c:	00058413          	mv	s0,a1
   1a670:	00050493          	mv	s1,a0
   1a674:	47c070ef          	jal	21af0 <__fixdfsi>
   1a678:	00050c93          	mv	s9,a0
   1a67c:	4f8070ef          	jal	21b74 <__floatsidf>
   1a680:	00050613          	mv	a2,a0
   1a684:	00058693          	mv	a3,a1
   1a688:	00048513          	mv	a0,s1
   1a68c:	00040593          	mv	a1,s0
   1a690:	030c8c93          	add	s9,s9,48
   1a694:	301060ef          	jal	21194 <__subdf3>
   1a698:	ff9d0fa3          	sb	s9,-1(s10)
   1a69c:	fdab90e3          	bne	s7,s10,1a65c <_dtoa_r+0x138c>
   1a6a0:	04812483          	lw	s1,72(sp)
   1a6a4:	04c12403          	lw	s0,76(sp)
   1a6a8:	00050c93          	mv	s9,a0
   1a6ac:	00058893          	mv	a7,a1
   1a6b0:	0000ad17          	auipc	s10,0xa
   1a6b4:	200d0d13          	add	s10,s10,512 # 248b0 <__SDATA_BEGIN__+0x18>
   1a6b8:	000d2603          	lw	a2,0(s10)
   1a6bc:	004d2683          	lw	a3,4(s10)
   1a6c0:	03812503          	lw	a0,56(sp)
   1a6c4:	00090593          	mv	a1,s2
   1a6c8:	03112423          	sw	a7,40(sp)
   1a6cc:	731040ef          	jal	1f5fc <__adddf3>
   1a6d0:	02812883          	lw	a7,40(sp)
   1a6d4:	000c8613          	mv	a2,s9
   1a6d8:	00088693          	mv	a3,a7
   1a6dc:	220060ef          	jal	208fc <__ledf2>
   1a6e0:	1a054863          	bltz	a0,1a890 <_dtoa_r+0x15c0>
   1a6e4:	03812603          	lw	a2,56(sp)
   1a6e8:	000d2503          	lw	a0,0(s10)
   1a6ec:	004d2583          	lw	a1,4(s10)
   1a6f0:	00090693          	mv	a3,s2
   1a6f4:	2a1060ef          	jal	21194 <__subdf3>
   1a6f8:	02812883          	lw	a7,40(sp)
   1a6fc:	000c8613          	mv	a2,s9
   1a700:	00088693          	mv	a3,a7
   1a704:	0f8060ef          	jal	207fc <__gedf2>
   1a708:	12a04863          	bgtz	a0,1a838 <_dtoa_r+0x1568>
   1a70c:	06c12783          	lw	a5,108(sp)
   1a710:	de07c063          	bltz	a5,19cf0 <_dtoa_r+0xa20>
   1a714:	02012703          	lw	a4,32(sp)
   1a718:	00e00793          	li	a5,14
   1a71c:	dce7ca63          	blt	a5,a4,19cf0 <_dtoa_r+0xa20>
   1a720:	02012783          	lw	a5,32(sp)
   1a724:	00008717          	auipc	a4,0x8
   1a728:	5d470713          	add	a4,a4,1492 # 22cf8 <__mprec_tens>
   1a72c:	00379793          	sll	a5,a5,0x3
   1a730:	00f707b3          	add	a5,a4,a5
   1a734:	0007a903          	lw	s2,0(a5)
   1a738:	0047a983          	lw	s3,4(a5)
   1a73c:	c90ff06f          	j	19bcc <_dtoa_r+0x8fc>
   1a740:	06812703          	lw	a4,104(sp)
   1a744:	01012683          	lw	a3,16(sp)
   1a748:	03600793          	li	a5,54
   1a74c:	40e787b3          	sub	a5,a5,a4
   1a750:	00fb0b33          	add	s6,s6,a5
   1a754:	00f687b3          	add	a5,a3,a5
   1a758:	03012b83          	lw	s7,48(sp)
   1a75c:	00068c93          	mv	s9,a3
   1a760:	00f12823          	sw	a5,16(sp)
   1a764:	815ff06f          	j	19f78 <_dtoa_r+0xca8>
   1a768:	02012783          	lw	a5,32(sp)
   1a76c:	00090c13          	mv	s8,s2
   1a770:	01012a83          	lw	s5,16(sp)
   1a774:	00178a13          	add	s4,a5,1
   1a778:	000b0913          	mv	s2,s6
   1a77c:	eb4ff06f          	j	19e30 <_dtoa_r+0xb60>
   1a780:	01812703          	lw	a4,24(sp)
   1a784:	01c12783          	lw	a5,28(sp)
   1a788:	00200913          	li	s2,2
   1a78c:	f81fe06f          	j	1970c <_dtoa_r+0x43c>
   1a790:	b00c0063          	beqz	s8,19a90 <_dtoa_r+0x7c0>
   1a794:	03c12d03          	lw	s10,60(sp)
   1a798:	bba05063          	blez	s10,19b38 <_dtoa_r+0x868>
   1a79c:	0000a617          	auipc	a2,0xa
   1a7a0:	14c60613          	add	a2,a2,332 # 248e8 <__SDATA_BEGIN__+0x50>
   1a7a4:	00078593          	mv	a1,a5
   1a7a8:	02012783          	lw	a5,32(sp)
   1a7ac:	00462683          	lw	a3,4(a2)
   1a7b0:	00062603          	lw	a2,0(a2)
   1a7b4:	fff78793          	add	a5,a5,-1
   1a7b8:	00070513          	mv	a0,a4
   1a7bc:	04f12e23          	sw	a5,92(sp)
   1a7c0:	244060ef          	jal	20a04 <__muldf3>
   1a7c4:	00050713          	mv	a4,a0
   1a7c8:	00190513          	add	a0,s2,1
   1a7cc:	04e12423          	sw	a4,72(sp)
   1a7d0:	04b12023          	sw	a1,64(sp)
   1a7d4:	3a0070ef          	jal	21b74 <__floatsidf>
   1a7d8:	04812703          	lw	a4,72(sp)
   1a7dc:	04012783          	lw	a5,64(sp)
   1a7e0:	00070613          	mv	a2,a4
   1a7e4:	00078693          	mv	a3,a5
   1a7e8:	04e12623          	sw	a4,76(sp)
   1a7ec:	218060ef          	jal	20a04 <__muldf3>
   1a7f0:	0000a697          	auipc	a3,0xa
   1a7f4:	10068693          	add	a3,a3,256 # 248f0 <__SDATA_BEGIN__+0x58>
   1a7f8:	0006a603          	lw	a2,0(a3)
   1a7fc:	0046a683          	lw	a3,4(a3)
   1a800:	5fd040ef          	jal	1f5fc <__adddf3>
   1a804:	fcc006b7          	lui	a3,0xfcc00
   1a808:	04012783          	lw	a5,64(sp)
   1a80c:	04c12703          	lw	a4,76(sp)
   1a810:	00050c93          	mv	s9,a0
   1a814:	00b68bb3          	add	s7,a3,a1
   1a818:	05a12423          	sw	s10,72(sp)
   1a81c:	f91fe06f          	j	197ac <_dtoa_r+0x4dc>
   1a820:	03100693          	li	a3,49
   1a824:	001c0c13          	add	s8,s8,1
   1a828:	984ff06f          	j	199ac <_dtoa_r+0x6dc>
   1a82c:	00012c23          	sw	zero,24(sp)
   1a830:	00000913          	li	s2,0
   1a834:	a11ff06f          	j	1a244 <_dtoa_r+0xf74>
   1a838:	03000613          	li	a2,48
   1a83c:	fffbc783          	lbu	a5,-1(s7)
   1a840:	000b8d13          	mv	s10,s7
   1a844:	fffb8b93          	add	s7,s7,-1
   1a848:	fec78ae3          	beq	a5,a2,1a83c <_dtoa_r+0x156c>
   1a84c:	05c12783          	lw	a5,92(sp)
   1a850:	00178a13          	add	s4,a5,1
   1a854:	e50ff06f          	j	19ea4 <_dtoa_r+0xbd4>
   1a858:	03900713          	li	a4,57
   1a85c:	01012a83          	lw	s5,16(sp)
   1a860:	b8eb84e3          	beq	s7,a4,1a3e8 <_dtoa_r+0x1118>
   1a864:	933048e3          	bgtz	s3,1a194 <_dtoa_r+0xec4>
   1a868:	931ff06f          	j	1a198 <_dtoa_r+0xec8>
   1a86c:	01012a83          	lw	s5,16(sp)
   1a870:	929ff06f          	j	1a198 <_dtoa_r+0xec8>
   1a874:	00078993          	mv	s3,a5
   1a878:	a19ff06f          	j	1a290 <_dtoa_r+0xfc0>
   1a87c:	00078c93          	mv	s9,a5
   1a880:	018787b3          	add	a5,a5,s8
   1a884:	018b0b33          	add	s6,s6,s8
   1a888:	00f12823          	sw	a5,16(sp)
   1a88c:	eecff06f          	j	19f78 <_dtoa_r+0xca8>
   1a890:	05c12783          	lw	a5,92(sp)
   1a894:	00178c13          	add	s8,a5,1
   1a898:	8f0ff06f          	j	19988 <_dtoa_r+0x6b8>
   1a89c:	04c12983          	lw	s3,76(sp)
   1a8a0:	05012b03          	lw	s6,80(sp)
   1a8a4:	05812c03          	lw	s8,88(sp)
   1a8a8:	04812a03          	lw	s4,72(sp)
   1a8ac:	a8cff06f          	j	19b38 <_dtoa_r+0x868>
   1a8b0:	00200793          	li	a5,2
   1a8b4:	0147c863          	blt	a5,s4,1a8c4 <_dtoa_r+0x15f4>
   1a8b8:	02012a03          	lw	s4,32(sp)
   1a8bc:	03c12c03          	lw	s8,60(sp)
   1a8c0:	d1cff06f          	j	19ddc <_dtoa_r+0xb0c>
   1a8c4:	03c12c03          	lw	s8,60(sp)
   1a8c8:	03612023          	sw	s6,32(sp)
   1a8cc:	949ff06f          	j	1a214 <_dtoa_r+0xf44>
   1a8d0:	04012b83          	lw	s7,64(sp)
   1a8d4:	dddff06f          	j	1a6b0 <_dtoa_r+0x13e0>
   1a8d8:	00200793          	li	a5,2
   1a8dc:	ff47c4e3          	blt	a5,s4,1a8c4 <_dtoa_r+0x15f4>
   1a8e0:	03c12c03          	lw	s8,60(sp)
   1a8e4:	03612023          	sw	s6,32(sp)
   1a8e8:	f44ff06f          	j	1a02c <_dtoa_r+0xd5c>
   1a8ec:	00050713          	mv	a4,a0
   1a8f0:	00058793          	mv	a5,a1
   1a8f4:	00200913          	li	s2,2
   1a8f8:	e15fe06f          	j	1970c <_dtoa_r+0x43c>
   1a8fc:	00008697          	auipc	a3,0x8
   1a900:	ad868693          	add	a3,a3,-1320 # 223d4 <__clzsi2+0x230>
   1a904:	00000613          	li	a2,0
   1a908:	2ef00593          	li	a1,751
   1a90c:	00008517          	auipc	a0,0x8
   1a910:	adc50513          	add	a0,a0,-1316 # 223e8 <__clzsi2+0x244>
   1a914:	260030ef          	jal	1db74 <__assert_func>
   1a918:	01012a83          	lw	s5,16(sp)
   1a91c:	85b048e3          	bgtz	s11,1a16c <_dtoa_r+0xe9c>
   1a920:	879ff06f          	j	1a198 <_dtoa_r+0xec8>
   1a924:	00008697          	auipc	a3,0x8
   1a928:	ab068693          	add	a3,a3,-1360 # 223d4 <__clzsi2+0x230>
   1a92c:	00000613          	li	a2,0
   1a930:	1af00593          	li	a1,431
   1a934:	00008517          	auipc	a0,0x8
   1a938:	ab450513          	add	a0,a0,-1356 # 223e8 <__clzsi2+0x244>
   1a93c:	238030ef          	jal	1db74 <__assert_func>
   1a940:	02042e23          	sw	zero,60(s0)
   1a944:	00000593          	li	a1,0
   1a948:	cc1fe06f          	j	19608 <_dtoa_r+0x338>
   1a94c:	02012423          	sw	zero,40(sp)
   1a950:	c7dfe06f          	j	195cc <_dtoa_r+0x2fc>

0001a954 <_findenv_r>:
   1a954:	fd010113          	add	sp,sp,-48
   1a958:	01612823          	sw	s6,16(sp)
   1a95c:	f4418b13          	add	s6,gp,-188 # 24914 <environ>
   1a960:	02912223          	sw	s1,36(sp)
   1a964:	01312e23          	sw	s3,28(sp)
   1a968:	01412c23          	sw	s4,24(sp)
   1a96c:	01512a23          	sw	s5,20(sp)
   1a970:	02112623          	sw	ra,44(sp)
   1a974:	00050a93          	mv	s5,a0
   1a978:	00058993          	mv	s3,a1
   1a97c:	00060a13          	mv	s4,a2
   1a980:	418030ef          	jal	1dd98 <__env_lock>
   1a984:	000b2483          	lw	s1,0(s6)
   1a988:	02048a63          	beqz	s1,1a9bc <_findenv_r+0x68>
   1a98c:	02812423          	sw	s0,40(sp)
   1a990:	0009c703          	lbu	a4,0(s3)
   1a994:	00098793          	mv	a5,s3
   1a998:	03d00693          	li	a3,61
   1a99c:	00000413          	li	s0,0
   1a9a0:	00071863          	bnez	a4,1a9b0 <_findenv_r+0x5c>
   1a9a4:	0480006f          	j	1a9ec <_findenv_r+0x98>
   1a9a8:	0007c703          	lbu	a4,0(a5)
   1a9ac:	02070e63          	beqz	a4,1a9e8 <_findenv_r+0x94>
   1a9b0:	00178793          	add	a5,a5,1
   1a9b4:	fed71ae3          	bne	a4,a3,1a9a8 <_findenv_r+0x54>
   1a9b8:	02812403          	lw	s0,40(sp)
   1a9bc:	000a8513          	mv	a0,s5
   1a9c0:	3e0030ef          	jal	1dda0 <__env_unlock>
   1a9c4:	02c12083          	lw	ra,44(sp)
   1a9c8:	02412483          	lw	s1,36(sp)
   1a9cc:	01c12983          	lw	s3,28(sp)
   1a9d0:	01812a03          	lw	s4,24(sp)
   1a9d4:	01412a83          	lw	s5,20(sp)
   1a9d8:	01012b03          	lw	s6,16(sp)
   1a9dc:	00000513          	li	a0,0
   1a9e0:	03010113          	add	sp,sp,48
   1a9e4:	00008067          	ret
   1a9e8:	41378433          	sub	s0,a5,s3
   1a9ec:	0004a503          	lw	a0,0(s1)
   1a9f0:	fc0504e3          	beqz	a0,1a9b8 <_findenv_r+0x64>
   1a9f4:	01712623          	sw	s7,12(sp)
   1a9f8:	03212023          	sw	s2,32(sp)
   1a9fc:	03d00b93          	li	s7,61
   1aa00:	00040613          	mv	a2,s0
   1aa04:	00098593          	mv	a1,s3
   1aa08:	7f5020ef          	jal	1d9fc <strncmp>
   1aa0c:	00051a63          	bnez	a0,1aa20 <_findenv_r+0xcc>
   1aa10:	0004a903          	lw	s2,0(s1)
   1aa14:	00890933          	add	s2,s2,s0
   1aa18:	00094783          	lbu	a5,0(s2)
   1aa1c:	03778063          	beq	a5,s7,1aa3c <_findenv_r+0xe8>
   1aa20:	0044a503          	lw	a0,4(s1)
   1aa24:	00448493          	add	s1,s1,4
   1aa28:	fc051ce3          	bnez	a0,1aa00 <_findenv_r+0xac>
   1aa2c:	02812403          	lw	s0,40(sp)
   1aa30:	02012903          	lw	s2,32(sp)
   1aa34:	00c12b83          	lw	s7,12(sp)
   1aa38:	f85ff06f          	j	1a9bc <_findenv_r+0x68>
   1aa3c:	000b2783          	lw	a5,0(s6)
   1aa40:	000a8513          	mv	a0,s5
   1aa44:	40f484b3          	sub	s1,s1,a5
   1aa48:	4024d493          	sra	s1,s1,0x2
   1aa4c:	009a2023          	sw	s1,0(s4)
   1aa50:	350030ef          	jal	1dda0 <__env_unlock>
   1aa54:	02c12083          	lw	ra,44(sp)
   1aa58:	02812403          	lw	s0,40(sp)
   1aa5c:	00c12b83          	lw	s7,12(sp)
   1aa60:	02412483          	lw	s1,36(sp)
   1aa64:	01c12983          	lw	s3,28(sp)
   1aa68:	01812a03          	lw	s4,24(sp)
   1aa6c:	01412a83          	lw	s5,20(sp)
   1aa70:	01012b03          	lw	s6,16(sp)
   1aa74:	00190513          	add	a0,s2,1
   1aa78:	02012903          	lw	s2,32(sp)
   1aa7c:	03010113          	add	sp,sp,48
   1aa80:	00008067          	ret

0001aa84 <_getenv_r>:
   1aa84:	fe010113          	add	sp,sp,-32
   1aa88:	00c10613          	add	a2,sp,12
   1aa8c:	00112e23          	sw	ra,28(sp)
   1aa90:	ec5ff0ef          	jal	1a954 <_findenv_r>
   1aa94:	01c12083          	lw	ra,28(sp)
   1aa98:	02010113          	add	sp,sp,32
   1aa9c:	00008067          	ret

0001aaa0 <_mbtowc_r>:
   1aaa0:	e1c1a783          	lw	a5,-484(gp) # 247ec <__global_locale+0xe4>
   1aaa4:	00078067          	jr	a5

0001aaa8 <__ascii_mbtowc>:
   1aaa8:	02058063          	beqz	a1,1aac8 <__ascii_mbtowc+0x20>
   1aaac:	04060263          	beqz	a2,1aaf0 <__ascii_mbtowc+0x48>
   1aab0:	04068863          	beqz	a3,1ab00 <__ascii_mbtowc+0x58>
   1aab4:	00064783          	lbu	a5,0(a2)
   1aab8:	00f5a023          	sw	a5,0(a1)
   1aabc:	00064503          	lbu	a0,0(a2)
   1aac0:	00a03533          	snez	a0,a0
   1aac4:	00008067          	ret
   1aac8:	ff010113          	add	sp,sp,-16
   1aacc:	00c10593          	add	a1,sp,12
   1aad0:	02060463          	beqz	a2,1aaf8 <__ascii_mbtowc+0x50>
   1aad4:	02068a63          	beqz	a3,1ab08 <__ascii_mbtowc+0x60>
   1aad8:	00064783          	lbu	a5,0(a2)
   1aadc:	00f5a023          	sw	a5,0(a1)
   1aae0:	00064503          	lbu	a0,0(a2)
   1aae4:	00a03533          	snez	a0,a0
   1aae8:	01010113          	add	sp,sp,16
   1aaec:	00008067          	ret
   1aaf0:	00000513          	li	a0,0
   1aaf4:	00008067          	ret
   1aaf8:	00000513          	li	a0,0
   1aafc:	fedff06f          	j	1aae8 <__ascii_mbtowc+0x40>
   1ab00:	ffe00513          	li	a0,-2
   1ab04:	00008067          	ret
   1ab08:	ffe00513          	li	a0,-2
   1ab0c:	fddff06f          	j	1aae8 <__ascii_mbtowc+0x40>

0001ab10 <__utf8_mbtowc>:
   1ab10:	ff010113          	add	sp,sp,-16
   1ab14:	00050e13          	mv	t3,a0
   1ab18:	0a058463          	beqz	a1,1abc0 <__utf8_mbtowc+0xb0>
   1ab1c:	08060c63          	beqz	a2,1abb4 <__utf8_mbtowc+0xa4>
   1ab20:	28068663          	beqz	a3,1adac <__utf8_mbtowc+0x29c>
   1ab24:	00072803          	lw	a6,0(a4)
   1ab28:	06081c63          	bnez	a6,1aba0 <__utf8_mbtowc+0x90>
   1ab2c:	00064783          	lbu	a5,0(a2)
   1ab30:	00100513          	li	a0,1
   1ab34:	06078c63          	beqz	a5,1abac <__utf8_mbtowc+0x9c>
   1ab38:	07f00893          	li	a7,127
   1ab3c:	12f8d263          	bge	a7,a5,1ac60 <__utf8_mbtowc+0x150>
   1ab40:	f4078893          	add	a7,a5,-192
   1ab44:	01f00313          	li	t1,31
   1ab48:	09136063          	bltu	t1,a7,1abc8 <__utf8_mbtowc+0xb8>
   1ab4c:	00f70223          	sb	a5,4(a4)
   1ab50:	00081863          	bnez	a6,1ab60 <__utf8_mbtowc+0x50>
   1ab54:	00100813          	li	a6,1
   1ab58:	01072023          	sw	a6,0(a4)
   1ab5c:	25068863          	beq	a3,a6,1adac <__utf8_mbtowc+0x29c>
   1ab60:	00a60633          	add	a2,a2,a0
   1ab64:	00064683          	lbu	a3,0(a2)
   1ab68:	03f00613          	li	a2,63
   1ab6c:	00150513          	add	a0,a0,1
   1ab70:	f8068813          	add	a6,a3,-128
   1ab74:	21066e63          	bltu	a2,a6,1ad90 <__utf8_mbtowc+0x280>
   1ab78:	0c100613          	li	a2,193
   1ab7c:	20f65a63          	bge	a2,a5,1ad90 <__utf8_mbtowc+0x280>
   1ab80:	00679793          	sll	a5,a5,0x6
   1ab84:	7c07f793          	and	a5,a5,1984
   1ab88:	03f6f693          	and	a3,a3,63
   1ab8c:	00072023          	sw	zero,0(a4)
   1ab90:	00d7e7b3          	or	a5,a5,a3
   1ab94:	00f5a023          	sw	a5,0(a1)
   1ab98:	01010113          	add	sp,sp,16
   1ab9c:	00008067          	ret
   1aba0:	00474783          	lbu	a5,4(a4)
   1aba4:	00000513          	li	a0,0
   1aba8:	f80798e3          	bnez	a5,1ab38 <__utf8_mbtowc+0x28>
   1abac:	0005a023          	sw	zero,0(a1)
   1abb0:	00072023          	sw	zero,0(a4)
   1abb4:	00000513          	li	a0,0
   1abb8:	01010113          	add	sp,sp,16
   1abbc:	00008067          	ret
   1abc0:	00c10593          	add	a1,sp,12
   1abc4:	f59ff06f          	j	1ab1c <__utf8_mbtowc+0xc>
   1abc8:	f2078893          	add	a7,a5,-224
   1abcc:	00f00313          	li	t1,15
   1abd0:	0b136263          	bltu	t1,a7,1ac74 <__utf8_mbtowc+0x164>
   1abd4:	00f70223          	sb	a5,4(a4)
   1abd8:	16080863          	beqz	a6,1ad48 <__utf8_mbtowc+0x238>
   1abdc:	00168893          	add	a7,a3,1
   1abe0:	011038b3          	snez	a7,a7
   1abe4:	00100313          	li	t1,1
   1abe8:	011686b3          	add	a3,a3,a7
   1abec:	16680463          	beq	a6,t1,1ad54 <__utf8_mbtowc+0x244>
   1abf0:	00574883          	lbu	a7,5(a4)
   1abf4:	0e000313          	li	t1,224
   1abf8:	18678863          	beq	a5,t1,1ad88 <__utf8_mbtowc+0x278>
   1abfc:	f8088313          	add	t1,a7,-128
   1ac00:	03f00e93          	li	t4,63
   1ac04:	186ee663          	bltu	t4,t1,1ad90 <__utf8_mbtowc+0x280>
   1ac08:	011702a3          	sb	a7,5(a4)
   1ac0c:	00100313          	li	t1,1
   1ac10:	18680863          	beq	a6,t1,1ada0 <__utf8_mbtowc+0x290>
   1ac14:	00a60633          	add	a2,a2,a0
   1ac18:	00064683          	lbu	a3,0(a2)
   1ac1c:	03f00613          	li	a2,63
   1ac20:	00150513          	add	a0,a0,1
   1ac24:	f8068813          	add	a6,a3,-128
   1ac28:	17066463          	bltu	a2,a6,1ad90 <__utf8_mbtowc+0x280>
   1ac2c:	00001637          	lui	a2,0x1
   1ac30:	00c79793          	sll	a5,a5,0xc
   1ac34:	00689893          	sll	a7,a7,0x6
   1ac38:	fc060613          	add	a2,a2,-64 # fc0 <exit-0xf0d4>
   1ac3c:	0000f837          	lui	a6,0xf
   1ac40:	0107f7b3          	and	a5,a5,a6
   1ac44:	00c8f8b3          	and	a7,a7,a2
   1ac48:	0117e7b3          	or	a5,a5,a7
   1ac4c:	03f6f693          	and	a3,a3,63
   1ac50:	00072023          	sw	zero,0(a4)
   1ac54:	00d7e7b3          	or	a5,a5,a3
   1ac58:	00f5a023          	sw	a5,0(a1)
   1ac5c:	f5dff06f          	j	1abb8 <__utf8_mbtowc+0xa8>
   1ac60:	00072023          	sw	zero,0(a4)
   1ac64:	00f5a023          	sw	a5,0(a1)
   1ac68:	00100513          	li	a0,1
   1ac6c:	01010113          	add	sp,sp,16
   1ac70:	00008067          	ret
   1ac74:	f1078893          	add	a7,a5,-240
   1ac78:	00400313          	li	t1,4
   1ac7c:	11136a63          	bltu	t1,a7,1ad90 <__utf8_mbtowc+0x280>
   1ac80:	00f70223          	sb	a5,4(a4)
   1ac84:	0e080263          	beqz	a6,1ad68 <__utf8_mbtowc+0x258>
   1ac88:	00168893          	add	a7,a3,1
   1ac8c:	011038b3          	snez	a7,a7
   1ac90:	00100313          	li	t1,1
   1ac94:	011686b3          	add	a3,a3,a7
   1ac98:	0c680e63          	beq	a6,t1,1ad74 <__utf8_mbtowc+0x264>
   1ac9c:	00574883          	lbu	a7,5(a4)
   1aca0:	0f000313          	li	t1,240
   1aca4:	10678863          	beq	a5,t1,1adb4 <__utf8_mbtowc+0x2a4>
   1aca8:	0f400313          	li	t1,244
   1acac:	14678863          	beq	a5,t1,1adfc <__utf8_mbtowc+0x2ec>
   1acb0:	f8088313          	add	t1,a7,-128
   1acb4:	03f00e93          	li	t4,63
   1acb8:	0c6eec63          	bltu	t4,t1,1ad90 <__utf8_mbtowc+0x280>
   1acbc:	011702a3          	sb	a7,5(a4)
   1acc0:	00100313          	li	t1,1
   1acc4:	0e680e63          	beq	a6,t1,1adc0 <__utf8_mbtowc+0x2b0>
   1acc8:	00072f03          	lw	t5,0(a4)
   1accc:	00168813          	add	a6,a3,1
   1acd0:	01003833          	snez	a6,a6
   1acd4:	00200313          	li	t1,2
   1acd8:	010686b3          	add	a3,a3,a6
   1acdc:	0e6f0863          	beq	t5,t1,1adcc <__utf8_mbtowc+0x2bc>
   1ace0:	00674803          	lbu	a6,6(a4)
   1ace4:	f8080693          	add	a3,a6,-128 # ef80 <exit-0x1114>
   1ace8:	0adee463          	bltu	t4,a3,1ad90 <__utf8_mbtowc+0x280>
   1acec:	00a60633          	add	a2,a2,a0
   1acf0:	00064683          	lbu	a3,0(a2)
   1acf4:	03f00613          	li	a2,63
   1acf8:	00150513          	add	a0,a0,1
   1acfc:	f8068313          	add	t1,a3,-128
   1ad00:	08666863          	bltu	a2,t1,1ad90 <__utf8_mbtowc+0x280>
   1ad04:	001c0337          	lui	t1,0x1c0
   1ad08:	01279793          	sll	a5,a5,0x12
   1ad0c:	0067f7b3          	and	a5,a5,t1
   1ad10:	00c89893          	sll	a7,a7,0xc
   1ad14:	00001637          	lui	a2,0x1
   1ad18:	0003f337          	lui	t1,0x3f
   1ad1c:	0068f8b3          	and	a7,a7,t1
   1ad20:	00681813          	sll	a6,a6,0x6
   1ad24:	fc060613          	add	a2,a2,-64 # fc0 <exit-0xf0d4>
   1ad28:	0117e7b3          	or	a5,a5,a7
   1ad2c:	00c87833          	and	a6,a6,a2
   1ad30:	0107e7b3          	or	a5,a5,a6
   1ad34:	03f6f693          	and	a3,a3,63
   1ad38:	00d7e7b3          	or	a5,a5,a3
   1ad3c:	00f5a023          	sw	a5,0(a1)
   1ad40:	00072023          	sw	zero,0(a4)
   1ad44:	e75ff06f          	j	1abb8 <__utf8_mbtowc+0xa8>
   1ad48:	00100813          	li	a6,1
   1ad4c:	01072023          	sw	a6,0(a4)
   1ad50:	05068e63          	beq	a3,a6,1adac <__utf8_mbtowc+0x29c>
   1ad54:	00a60833          	add	a6,a2,a0
   1ad58:	00084883          	lbu	a7,0(a6)
   1ad5c:	00150513          	add	a0,a0,1
   1ad60:	00100813          	li	a6,1
   1ad64:	e91ff06f          	j	1abf4 <__utf8_mbtowc+0xe4>
   1ad68:	00100813          	li	a6,1
   1ad6c:	01072023          	sw	a6,0(a4)
   1ad70:	03068e63          	beq	a3,a6,1adac <__utf8_mbtowc+0x29c>
   1ad74:	00a60833          	add	a6,a2,a0
   1ad78:	00084883          	lbu	a7,0(a6)
   1ad7c:	00150513          	add	a0,a0,1
   1ad80:	00100813          	li	a6,1
   1ad84:	f1dff06f          	j	1aca0 <__utf8_mbtowc+0x190>
   1ad88:	09f00313          	li	t1,159
   1ad8c:	e71348e3          	blt	t1,a7,1abfc <__utf8_mbtowc+0xec>
   1ad90:	08a00793          	li	a5,138
   1ad94:	00fe2023          	sw	a5,0(t3)
   1ad98:	fff00513          	li	a0,-1
   1ad9c:	e1dff06f          	j	1abb8 <__utf8_mbtowc+0xa8>
   1ada0:	00200813          	li	a6,2
   1ada4:	01072023          	sw	a6,0(a4)
   1ada8:	e70696e3          	bne	a3,a6,1ac14 <__utf8_mbtowc+0x104>
   1adac:	ffe00513          	li	a0,-2
   1adb0:	e09ff06f          	j	1abb8 <__utf8_mbtowc+0xa8>
   1adb4:	08f00313          	li	t1,143
   1adb8:	ef134ce3          	blt	t1,a7,1acb0 <__utf8_mbtowc+0x1a0>
   1adbc:	fd5ff06f          	j	1ad90 <__utf8_mbtowc+0x280>
   1adc0:	00200813          	li	a6,2
   1adc4:	01072023          	sw	a6,0(a4)
   1adc8:	ff0682e3          	beq	a3,a6,1adac <__utf8_mbtowc+0x29c>
   1adcc:	00a60833          	add	a6,a2,a0
   1add0:	00084803          	lbu	a6,0(a6)
   1add4:	03f00313          	li	t1,63
   1add8:	00150513          	add	a0,a0,1
   1addc:	f8080e93          	add	t4,a6,-128
   1ade0:	fbd368e3          	bltu	t1,t4,1ad90 <__utf8_mbtowc+0x280>
   1ade4:	00300313          	li	t1,3
   1ade8:	01070323          	sb	a6,6(a4)
   1adec:	00672023          	sw	t1,0(a4)
   1adf0:	ee669ee3          	bne	a3,t1,1acec <__utf8_mbtowc+0x1dc>
   1adf4:	ffe00513          	li	a0,-2
   1adf8:	dc1ff06f          	j	1abb8 <__utf8_mbtowc+0xa8>
   1adfc:	08f00313          	li	t1,143
   1ae00:	eb1358e3          	bge	t1,a7,1acb0 <__utf8_mbtowc+0x1a0>
   1ae04:	f8dff06f          	j	1ad90 <__utf8_mbtowc+0x280>

0001ae08 <__sjis_mbtowc>:
   1ae08:	00050813          	mv	a6,a0
   1ae0c:	08058263          	beqz	a1,1ae90 <__sjis_mbtowc+0x88>
   1ae10:	12060463          	beqz	a2,1af38 <__sjis_mbtowc+0x130>
   1ae14:	12068a63          	beqz	a3,1af48 <__sjis_mbtowc+0x140>
   1ae18:	00072503          	lw	a0,0(a4)
   1ae1c:	00064783          	lbu	a5,0(a2)
   1ae20:	00050e63          	beqz	a0,1ae3c <__sjis_mbtowc+0x34>
   1ae24:	00100693          	li	a3,1
   1ae28:	02d50c63          	beq	a0,a3,1ae60 <__sjis_mbtowc+0x58>
   1ae2c:	00f5a023          	sw	a5,0(a1)
   1ae30:	00064503          	lbu	a0,0(a2)
   1ae34:	00a03533          	snez	a0,a0
   1ae38:	00008067          	ret
   1ae3c:	f7f78513          	add	a0,a5,-129
   1ae40:	01e00893          	li	a7,30
   1ae44:	08a8e263          	bltu	a7,a0,1aec8 <__sjis_mbtowc+0xc0>
   1ae48:	00100513          	li	a0,1
   1ae4c:	00f70223          	sb	a5,4(a4)
   1ae50:	00a72023          	sw	a0,0(a4)
   1ae54:	0ea68a63          	beq	a3,a0,1af48 <__sjis_mbtowc+0x140>
   1ae58:	00164783          	lbu	a5,1(a2)
   1ae5c:	00200513          	li	a0,2
   1ae60:	fc078693          	add	a3,a5,-64
   1ae64:	03e00613          	li	a2,62
   1ae68:	00d67863          	bgeu	a2,a3,1ae78 <__sjis_mbtowc+0x70>
   1ae6c:	f8078693          	add	a3,a5,-128
   1ae70:	07c00613          	li	a2,124
   1ae74:	0ed66263          	bltu	a2,a3,1af58 <__sjis_mbtowc+0x150>
   1ae78:	00474683          	lbu	a3,4(a4)
   1ae7c:	00869693          	sll	a3,a3,0x8
   1ae80:	00f687b3          	add	a5,a3,a5
   1ae84:	00f5a023          	sw	a5,0(a1)
   1ae88:	00072023          	sw	zero,0(a4)
   1ae8c:	00008067          	ret
   1ae90:	ff010113          	add	sp,sp,-16
   1ae94:	00c10593          	add	a1,sp,12
   1ae98:	0a060463          	beqz	a2,1af40 <__sjis_mbtowc+0x138>
   1ae9c:	0a068a63          	beqz	a3,1af50 <__sjis_mbtowc+0x148>
   1aea0:	00072503          	lw	a0,0(a4)
   1aea4:	00064783          	lbu	a5,0(a2)
   1aea8:	02050863          	beqz	a0,1aed8 <__sjis_mbtowc+0xd0>
   1aeac:	00100693          	li	a3,1
   1aeb0:	04d50c63          	beq	a0,a3,1af08 <__sjis_mbtowc+0x100>
   1aeb4:	00f5a023          	sw	a5,0(a1)
   1aeb8:	00064503          	lbu	a0,0(a2)
   1aebc:	00a03533          	snez	a0,a0
   1aec0:	01010113          	add	sp,sp,16
   1aec4:	00008067          	ret
   1aec8:	f2078513          	add	a0,a5,-224
   1aecc:	00f00893          	li	a7,15
   1aed0:	f4a8eee3          	bltu	a7,a0,1ae2c <__sjis_mbtowc+0x24>
   1aed4:	f75ff06f          	j	1ae48 <__sjis_mbtowc+0x40>
   1aed8:	f7f78513          	add	a0,a5,-129
   1aedc:	01e00893          	li	a7,30
   1aee0:	00a8f863          	bgeu	a7,a0,1aef0 <__sjis_mbtowc+0xe8>
   1aee4:	f2078513          	add	a0,a5,-224
   1aee8:	00f00893          	li	a7,15
   1aeec:	fca8e4e3          	bltu	a7,a0,1aeb4 <__sjis_mbtowc+0xac>
   1aef0:	00100513          	li	a0,1
   1aef4:	00f70223          	sb	a5,4(a4)
   1aef8:	00a72023          	sw	a0,0(a4)
   1aefc:	04a68a63          	beq	a3,a0,1af50 <__sjis_mbtowc+0x148>
   1af00:	00164783          	lbu	a5,1(a2)
   1af04:	00200513          	li	a0,2
   1af08:	fc078693          	add	a3,a5,-64
   1af0c:	03e00613          	li	a2,62
   1af10:	00d67863          	bgeu	a2,a3,1af20 <__sjis_mbtowc+0x118>
   1af14:	f8078693          	add	a3,a5,-128
   1af18:	07c00613          	li	a2,124
   1af1c:	04d66663          	bltu	a2,a3,1af68 <__sjis_mbtowc+0x160>
   1af20:	00474683          	lbu	a3,4(a4)
   1af24:	00869693          	sll	a3,a3,0x8
   1af28:	00f687b3          	add	a5,a3,a5
   1af2c:	00f5a023          	sw	a5,0(a1)
   1af30:	00072023          	sw	zero,0(a4)
   1af34:	f8dff06f          	j	1aec0 <__sjis_mbtowc+0xb8>
   1af38:	00000513          	li	a0,0
   1af3c:	00008067          	ret
   1af40:	00000513          	li	a0,0
   1af44:	f7dff06f          	j	1aec0 <__sjis_mbtowc+0xb8>
   1af48:	ffe00513          	li	a0,-2
   1af4c:	00008067          	ret
   1af50:	ffe00513          	li	a0,-2
   1af54:	f6dff06f          	j	1aec0 <__sjis_mbtowc+0xb8>
   1af58:	08a00793          	li	a5,138
   1af5c:	00f82023          	sw	a5,0(a6)
   1af60:	fff00513          	li	a0,-1
   1af64:	00008067          	ret
   1af68:	08a00793          	li	a5,138
   1af6c:	00f82023          	sw	a5,0(a6)
   1af70:	fff00513          	li	a0,-1
   1af74:	f4dff06f          	j	1aec0 <__sjis_mbtowc+0xb8>

0001af78 <__eucjp_mbtowc>:
   1af78:	00050813          	mv	a6,a0
   1af7c:	0c058263          	beqz	a1,1b040 <__eucjp_mbtowc+0xc8>
   1af80:	18060663          	beqz	a2,1b10c <__eucjp_mbtowc+0x194>
   1af84:	1c068463          	beqz	a3,1b14c <__eucjp_mbtowc+0x1d4>
   1af88:	00072503          	lw	a0,0(a4)
   1af8c:	00064783          	lbu	a5,0(a2)
   1af90:	02050263          	beqz	a0,1afb4 <__eucjp_mbtowc+0x3c>
   1af94:	00100893          	li	a7,1
   1af98:	05150663          	beq	a0,a7,1afe4 <__eucjp_mbtowc+0x6c>
   1af9c:	00200693          	li	a3,2
   1afa0:	18d50463          	beq	a0,a3,1b128 <__eucjp_mbtowc+0x1b0>
   1afa4:	00f5a023          	sw	a5,0(a1)
   1afa8:	00064503          	lbu	a0,0(a2)
   1afac:	00a03533          	snez	a0,a0
   1afb0:	00008067          	ret
   1afb4:	f7278513          	add	a0,a5,-142
   1afb8:	00100893          	li	a7,1
   1afbc:	00a8f863          	bgeu	a7,a0,1afcc <__eucjp_mbtowc+0x54>
   1afc0:	f5f78513          	add	a0,a5,-161
   1afc4:	05d00893          	li	a7,93
   1afc8:	fca8eee3          	bltu	a7,a0,1afa4 <__eucjp_mbtowc+0x2c>
   1afcc:	00100513          	li	a0,1
   1afd0:	00f70223          	sb	a5,4(a4)
   1afd4:	00a72023          	sw	a0,0(a4)
   1afd8:	16a68a63          	beq	a3,a0,1b14c <__eucjp_mbtowc+0x1d4>
   1afdc:	00164783          	lbu	a5,1(a2)
   1afe0:	00200513          	li	a0,2
   1afe4:	f5f78893          	add	a7,a5,-161
   1afe8:	05d00313          	li	t1,93
   1afec:	17136863          	bltu	t1,a7,1b15c <__eucjp_mbtowc+0x1e4>
   1aff0:	00474883          	lbu	a7,4(a4)
   1aff4:	08f00313          	li	t1,143
   1aff8:	10689e63          	bne	a7,t1,1b114 <__eucjp_mbtowc+0x19c>
   1affc:	00f702a3          	sb	a5,5(a4)
   1b000:	00200793          	li	a5,2
   1b004:	00f72023          	sw	a5,0(a4)
   1b008:	14d57263          	bgeu	a0,a3,1b14c <__eucjp_mbtowc+0x1d4>
   1b00c:	00a60633          	add	a2,a2,a0
   1b010:	00064783          	lbu	a5,0(a2)
   1b014:	00150513          	add	a0,a0,1
   1b018:	f5f78693          	add	a3,a5,-161
   1b01c:	05d00613          	li	a2,93
   1b020:	12d66e63          	bltu	a2,a3,1b15c <__eucjp_mbtowc+0x1e4>
   1b024:	00574683          	lbu	a3,5(a4)
   1b028:	07f7f793          	and	a5,a5,127
   1b02c:	00869693          	sll	a3,a3,0x8
   1b030:	00f687b3          	add	a5,a3,a5
   1b034:	00f5a023          	sw	a5,0(a1)
   1b038:	00072023          	sw	zero,0(a4)
   1b03c:	00008067          	ret
   1b040:	ff010113          	add	sp,sp,-16
   1b044:	00c10593          	add	a1,sp,12
   1b048:	0e060463          	beqz	a2,1b130 <__eucjp_mbtowc+0x1b8>
   1b04c:	12068063          	beqz	a3,1b16c <__eucjp_mbtowc+0x1f4>
   1b050:	00072503          	lw	a0,0(a4)
   1b054:	00064783          	lbu	a5,0(a2)
   1b058:	02050463          	beqz	a0,1b080 <__eucjp_mbtowc+0x108>
   1b05c:	00100893          	li	a7,1
   1b060:	05150863          	beq	a0,a7,1b0b0 <__eucjp_mbtowc+0x138>
   1b064:	00200693          	li	a3,2
   1b068:	0ed50663          	beq	a0,a3,1b154 <__eucjp_mbtowc+0x1dc>
   1b06c:	00f5a023          	sw	a5,0(a1)
   1b070:	00064503          	lbu	a0,0(a2)
   1b074:	00a03533          	snez	a0,a0
   1b078:	01010113          	add	sp,sp,16
   1b07c:	00008067          	ret
   1b080:	f7278513          	add	a0,a5,-142
   1b084:	00100893          	li	a7,1
   1b088:	00a8f863          	bgeu	a7,a0,1b098 <__eucjp_mbtowc+0x120>
   1b08c:	f5f78513          	add	a0,a5,-161
   1b090:	05d00893          	li	a7,93
   1b094:	fca8ece3          	bltu	a7,a0,1b06c <__eucjp_mbtowc+0xf4>
   1b098:	00100513          	li	a0,1
   1b09c:	00f70223          	sb	a5,4(a4)
   1b0a0:	00a72023          	sw	a0,0(a4)
   1b0a4:	0ca68463          	beq	a3,a0,1b16c <__eucjp_mbtowc+0x1f4>
   1b0a8:	00164783          	lbu	a5,1(a2)
   1b0ac:	00200513          	li	a0,2
   1b0b0:	f5f78893          	add	a7,a5,-161
   1b0b4:	05d00313          	li	t1,93
   1b0b8:	0b136e63          	bltu	t1,a7,1b174 <__eucjp_mbtowc+0x1fc>
   1b0bc:	00474883          	lbu	a7,4(a4)
   1b0c0:	08f00313          	li	t1,143
   1b0c4:	06689a63          	bne	a7,t1,1b138 <__eucjp_mbtowc+0x1c0>
   1b0c8:	00f702a3          	sb	a5,5(a4)
   1b0cc:	00200793          	li	a5,2
   1b0d0:	00f72023          	sw	a5,0(a4)
   1b0d4:	08d57c63          	bgeu	a0,a3,1b16c <__eucjp_mbtowc+0x1f4>
   1b0d8:	00a60633          	add	a2,a2,a0
   1b0dc:	00064783          	lbu	a5,0(a2)
   1b0e0:	00150513          	add	a0,a0,1
   1b0e4:	f5f78693          	add	a3,a5,-161
   1b0e8:	05d00613          	li	a2,93
   1b0ec:	08d66463          	bltu	a2,a3,1b174 <__eucjp_mbtowc+0x1fc>
   1b0f0:	00574683          	lbu	a3,5(a4)
   1b0f4:	07f7f793          	and	a5,a5,127
   1b0f8:	00869693          	sll	a3,a3,0x8
   1b0fc:	00f687b3          	add	a5,a3,a5
   1b100:	00f5a023          	sw	a5,0(a1)
   1b104:	00072023          	sw	zero,0(a4)
   1b108:	f71ff06f          	j	1b078 <__eucjp_mbtowc+0x100>
   1b10c:	00000513          	li	a0,0
   1b110:	00008067          	ret
   1b114:	00889893          	sll	a7,a7,0x8
   1b118:	00f888b3          	add	a7,a7,a5
   1b11c:	0115a023          	sw	a7,0(a1)
   1b120:	00072023          	sw	zero,0(a4)
   1b124:	00008067          	ret
   1b128:	00100513          	li	a0,1
   1b12c:	eedff06f          	j	1b018 <__eucjp_mbtowc+0xa0>
   1b130:	00000513          	li	a0,0
   1b134:	f45ff06f          	j	1b078 <__eucjp_mbtowc+0x100>
   1b138:	00889893          	sll	a7,a7,0x8
   1b13c:	00f888b3          	add	a7,a7,a5
   1b140:	0115a023          	sw	a7,0(a1)
   1b144:	00072023          	sw	zero,0(a4)
   1b148:	f31ff06f          	j	1b078 <__eucjp_mbtowc+0x100>
   1b14c:	ffe00513          	li	a0,-2
   1b150:	00008067          	ret
   1b154:	00100513          	li	a0,1
   1b158:	f8dff06f          	j	1b0e4 <__eucjp_mbtowc+0x16c>
   1b15c:	08a00793          	li	a5,138
   1b160:	00f82023          	sw	a5,0(a6)
   1b164:	fff00513          	li	a0,-1
   1b168:	00008067          	ret
   1b16c:	ffe00513          	li	a0,-2
   1b170:	f09ff06f          	j	1b078 <__eucjp_mbtowc+0x100>
   1b174:	08a00793          	li	a5,138
   1b178:	00f82023          	sw	a5,0(a6)
   1b17c:	fff00513          	li	a0,-1
   1b180:	ef9ff06f          	j	1b078 <__eucjp_mbtowc+0x100>

0001b184 <__jis_mbtowc>:
   1b184:	fe010113          	add	sp,sp,-32
   1b188:	06058e63          	beqz	a1,1b204 <__jis_mbtowc+0x80>
   1b18c:	08060063          	beqz	a2,1b20c <__jis_mbtowc+0x88>
   1b190:	1c068a63          	beqz	a3,1b364 <__jis_mbtowc+0x1e0>
   1b194:	00812e23          	sw	s0,28(sp)
   1b198:	00912c23          	sw	s1,24(sp)
   1b19c:	01212a23          	sw	s2,20(sp)
   1b1a0:	01312823          	sw	s3,16(sp)
   1b1a4:	00060e93          	mv	t4,a2
   1b1a8:	000ec303          	lbu	t1,0(t4)
   1b1ac:	00074903          	lbu	s2,0(a4)
   1b1b0:	00060493          	mv	s1,a2
   1b1b4:	00100893          	li	a7,1
   1b1b8:	00008397          	auipc	t2,0x8
   1b1bc:	a9c38393          	add	t2,t2,-1380 # 22c54 <JIS_state_table>
   1b1c0:	00008297          	auipc	t0,0x8
   1b1c4:	a4c28293          	add	t0,t0,-1460 # 22c0c <JIS_action_table>
   1b1c8:	02f00413          	li	s0,47
   1b1cc:	00008f17          	auipc	t5,0x8
   1b1d0:	968f0f13          	add	t5,t5,-1688 # 22b34 <categories+0x1c>
   1b1d4:	00500f93          	li	t6,5
   1b1d8:	00008e17          	auipc	t3,0x8
   1b1dc:	a1ce0e13          	add	t3,t3,-1508 # 22bf4 <categories+0xdc>
   1b1e0:	0a030063          	beqz	t1,1b280 <__jis_mbtowc+0xfc>
   1b1e4:	fe530793          	add	a5,t1,-27 # 3efe5 <__BSS_END__+0x1a0d5>
   1b1e8:	0ff7f793          	zext.b	a5,a5
   1b1ec:	02f46863          	bltu	s0,a5,1b21c <__jis_mbtowc+0x98>
   1b1f0:	00279793          	sll	a5,a5,0x2
   1b1f4:	01e787b3          	add	a5,a5,t5
   1b1f8:	0007a783          	lw	a5,0(a5)
   1b1fc:	01e787b3          	add	a5,a5,t5
   1b200:	00078067          	jr	a5
   1b204:	00c10593          	add	a1,sp,12
   1b208:	f80614e3          	bnez	a2,1b190 <__jis_mbtowc+0xc>
   1b20c:	00072023          	sw	zero,0(a4)
   1b210:	00100513          	li	a0,1
   1b214:	02010113          	add	sp,sp,32
   1b218:	00008067          	ret
   1b21c:	fdf30993          	add	s3,t1,-33
   1b220:	05d00793          	li	a5,93
   1b224:	0137b9b3          	sltu	s3,a5,s3
   1b228:	00798993          	add	s3,s3,7
   1b22c:	00391793          	sll	a5,s2,0x3
   1b230:	012787b3          	add	a5,a5,s2
   1b234:	00f28833          	add	a6,t0,a5
   1b238:	01380833          	add	a6,a6,s3
   1b23c:	00084803          	lbu	a6,0(a6)
   1b240:	00f387b3          	add	a5,t2,a5
   1b244:	013787b3          	add	a5,a5,s3
   1b248:	0007c903          	lbu	s2,0(a5)
   1b24c:	0d0fe863          	bltu	t6,a6,1b31c <__jis_mbtowc+0x198>
   1b250:	00281813          	sll	a6,a6,0x2
   1b254:	01c80833          	add	a6,a6,t3
   1b258:	00082783          	lw	a5,0(a6)
   1b25c:	01c787b3          	add	a5,a5,t3
   1b260:	00078067          	jr	a5
   1b264:	00670223          	sb	t1,4(a4)
   1b268:	001e8e93          	add	t4,t4,1
   1b26c:	00188793          	add	a5,a7,1
   1b270:	0ed8f063          	bgeu	a7,a3,1b350 <__jis_mbtowc+0x1cc>
   1b274:	000ec303          	lbu	t1,0(t4)
   1b278:	00078893          	mv	a7,a5
   1b27c:	f60314e3          	bnez	t1,1b1e4 <__jis_mbtowc+0x60>
   1b280:	00600993          	li	s3,6
   1b284:	fa9ff06f          	j	1b22c <__jis_mbtowc+0xa8>
   1b288:	01148633          	add	a2,s1,a7
   1b28c:	fddff06f          	j	1b268 <__jis_mbtowc+0xe4>
   1b290:	00100693          	li	a3,1
   1b294:	00474783          	lbu	a5,4(a4)
   1b298:	00d72023          	sw	a3,0(a4)
   1b29c:	000ec703          	lbu	a4,0(t4)
   1b2a0:	00879793          	sll	a5,a5,0x8
   1b2a4:	00088513          	mv	a0,a7
   1b2a8:	00e787b3          	add	a5,a5,a4
   1b2ac:	01c12403          	lw	s0,28(sp)
   1b2b0:	01812483          	lw	s1,24(sp)
   1b2b4:	01412903          	lw	s2,20(sp)
   1b2b8:	01012983          	lw	s3,16(sp)
   1b2bc:	00f5a023          	sw	a5,0(a1)
   1b2c0:	02010113          	add	sp,sp,32
   1b2c4:	00008067          	ret
   1b2c8:	00072023          	sw	zero,0(a4)
   1b2cc:	00064783          	lbu	a5,0(a2)
   1b2d0:	00088513          	mv	a0,a7
   1b2d4:	fd9ff06f          	j	1b2ac <__jis_mbtowc+0x128>
   1b2d8:	01c12403          	lw	s0,28(sp)
   1b2dc:	00072023          	sw	zero,0(a4)
   1b2e0:	0005a023          	sw	zero,0(a1)
   1b2e4:	01812483          	lw	s1,24(sp)
   1b2e8:	01412903          	lw	s2,20(sp)
   1b2ec:	01012983          	lw	s3,16(sp)
   1b2f0:	00000513          	li	a0,0
   1b2f4:	02010113          	add	sp,sp,32
   1b2f8:	00008067          	ret
   1b2fc:	00200993          	li	s3,2
   1b300:	f2dff06f          	j	1b22c <__jis_mbtowc+0xa8>
   1b304:	00300993          	li	s3,3
   1b308:	f25ff06f          	j	1b22c <__jis_mbtowc+0xa8>
   1b30c:	00400993          	li	s3,4
   1b310:	f1dff06f          	j	1b22c <__jis_mbtowc+0xa8>
   1b314:	00500993          	li	s3,5
   1b318:	f15ff06f          	j	1b22c <__jis_mbtowc+0xa8>
   1b31c:	01c12403          	lw	s0,28(sp)
   1b320:	08a00793          	li	a5,138
   1b324:	00f52023          	sw	a5,0(a0)
   1b328:	01812483          	lw	s1,24(sp)
   1b32c:	01412903          	lw	s2,20(sp)
   1b330:	01012983          	lw	s3,16(sp)
   1b334:	fff00513          	li	a0,-1
   1b338:	02010113          	add	sp,sp,32
   1b33c:	00008067          	ret
   1b340:	00100993          	li	s3,1
   1b344:	ee9ff06f          	j	1b22c <__jis_mbtowc+0xa8>
   1b348:	00000993          	li	s3,0
   1b34c:	ee1ff06f          	j	1b22c <__jis_mbtowc+0xa8>
   1b350:	01272023          	sw	s2,0(a4)
   1b354:	01c12403          	lw	s0,28(sp)
   1b358:	01812483          	lw	s1,24(sp)
   1b35c:	01412903          	lw	s2,20(sp)
   1b360:	01012983          	lw	s3,16(sp)
   1b364:	ffe00513          	li	a0,-2
   1b368:	f59ff06f          	j	1b2c0 <__jis_mbtowc+0x13c>

0001b36c <_Balloc>:
   1b36c:	04452783          	lw	a5,68(a0)
   1b370:	ff010113          	add	sp,sp,-16
   1b374:	00812423          	sw	s0,8(sp)
   1b378:	00912223          	sw	s1,4(sp)
   1b37c:	00112623          	sw	ra,12(sp)
   1b380:	00050413          	mv	s0,a0
   1b384:	00058493          	mv	s1,a1
   1b388:	02078c63          	beqz	a5,1b3c0 <_Balloc+0x54>
   1b38c:	00249713          	sll	a4,s1,0x2
   1b390:	00e787b3          	add	a5,a5,a4
   1b394:	0007a503          	lw	a0,0(a5)
   1b398:	04050463          	beqz	a0,1b3e0 <_Balloc+0x74>
   1b39c:	00052703          	lw	a4,0(a0)
   1b3a0:	00e7a023          	sw	a4,0(a5)
   1b3a4:	00052823          	sw	zero,16(a0)
   1b3a8:	00052623          	sw	zero,12(a0)
   1b3ac:	00c12083          	lw	ra,12(sp)
   1b3b0:	00812403          	lw	s0,8(sp)
   1b3b4:	00412483          	lw	s1,4(sp)
   1b3b8:	01010113          	add	sp,sp,16
   1b3bc:	00008067          	ret
   1b3c0:	02100613          	li	a2,33
   1b3c4:	00400593          	li	a1,4
   1b3c8:	015020ef          	jal	1dbdc <_calloc_r>
   1b3cc:	04a42223          	sw	a0,68(s0)
   1b3d0:	00050793          	mv	a5,a0
   1b3d4:	fa051ce3          	bnez	a0,1b38c <_Balloc+0x20>
   1b3d8:	00000513          	li	a0,0
   1b3dc:	fd1ff06f          	j	1b3ac <_Balloc+0x40>
   1b3e0:	01212023          	sw	s2,0(sp)
   1b3e4:	00100913          	li	s2,1
   1b3e8:	00991933          	sll	s2,s2,s1
   1b3ec:	00590613          	add	a2,s2,5
   1b3f0:	00261613          	sll	a2,a2,0x2
   1b3f4:	00100593          	li	a1,1
   1b3f8:	00040513          	mv	a0,s0
   1b3fc:	7e0020ef          	jal	1dbdc <_calloc_r>
   1b400:	00050a63          	beqz	a0,1b414 <_Balloc+0xa8>
   1b404:	01252423          	sw	s2,8(a0)
   1b408:	00952223          	sw	s1,4(a0)
   1b40c:	00012903          	lw	s2,0(sp)
   1b410:	f95ff06f          	j	1b3a4 <_Balloc+0x38>
   1b414:	00012903          	lw	s2,0(sp)
   1b418:	00000513          	li	a0,0
   1b41c:	f91ff06f          	j	1b3ac <_Balloc+0x40>

0001b420 <_Bfree>:
   1b420:	02058063          	beqz	a1,1b440 <_Bfree+0x20>
   1b424:	0045a703          	lw	a4,4(a1)
   1b428:	04452783          	lw	a5,68(a0)
   1b42c:	00271713          	sll	a4,a4,0x2
   1b430:	00e787b3          	add	a5,a5,a4
   1b434:	0007a703          	lw	a4,0(a5)
   1b438:	00e5a023          	sw	a4,0(a1)
   1b43c:	00b7a023          	sw	a1,0(a5)
   1b440:	00008067          	ret

0001b444 <__multadd>:
   1b444:	fd010113          	add	sp,sp,-48
   1b448:	01412c23          	sw	s4,24(sp)
   1b44c:	0105aa03          	lw	s4,16(a1)
   1b450:	01912223          	sw	s9,4(sp)
   1b454:	00010cb7          	lui	s9,0x10
   1b458:	02912223          	sw	s1,36(sp)
   1b45c:	03212023          	sw	s2,32(sp)
   1b460:	01312e23          	sw	s3,28(sp)
   1b464:	01512a23          	sw	s5,20(sp)
   1b468:	01612823          	sw	s6,16(sp)
   1b46c:	01712623          	sw	s7,12(sp)
   1b470:	02112623          	sw	ra,44(sp)
   1b474:	02812423          	sw	s0,40(sp)
   1b478:	01812423          	sw	s8,8(sp)
   1b47c:	00058a93          	mv	s5,a1
   1b480:	00050b13          	mv	s6,a0
   1b484:	00060993          	mv	s3,a2
   1b488:	00068493          	mv	s1,a3
   1b48c:	01458913          	add	s2,a1,20
   1b490:	00000b93          	li	s7,0
   1b494:	fffc8c93          	add	s9,s9,-1 # ffff <exit-0x95>
   1b498:	00092c03          	lw	s8,0(s2)
   1b49c:	00098593          	mv	a1,s3
   1b4a0:	00490913          	add	s2,s2,4
   1b4a4:	019c7533          	and	a0,s8,s9
   1b4a8:	425060ef          	jal	220cc <__mulsi3>
   1b4ac:	00050413          	mv	s0,a0
   1b4b0:	00098593          	mv	a1,s3
   1b4b4:	010c5513          	srl	a0,s8,0x10
   1b4b8:	00940433          	add	s0,s0,s1
   1b4bc:	411060ef          	jal	220cc <__mulsi3>
   1b4c0:	01045793          	srl	a5,s0,0x10
   1b4c4:	00f50533          	add	a0,a0,a5
   1b4c8:	01051793          	sll	a5,a0,0x10
   1b4cc:	01947433          	and	s0,s0,s9
   1b4d0:	008787b3          	add	a5,a5,s0
   1b4d4:	fef92e23          	sw	a5,-4(s2)
   1b4d8:	001b8b93          	add	s7,s7,1
   1b4dc:	01055493          	srl	s1,a0,0x10
   1b4e0:	fb4bcce3          	blt	s7,s4,1b498 <__multadd+0x54>
   1b4e4:	02048263          	beqz	s1,1b508 <__multadd+0xc4>
   1b4e8:	008aa783          	lw	a5,8(s5)
   1b4ec:	04fa5a63          	bge	s4,a5,1b540 <__multadd+0xfc>
   1b4f0:	004a0793          	add	a5,s4,4
   1b4f4:	00279793          	sll	a5,a5,0x2
   1b4f8:	00fa87b3          	add	a5,s5,a5
   1b4fc:	0097a223          	sw	s1,4(a5)
   1b500:	001a0a13          	add	s4,s4,1
   1b504:	014aa823          	sw	s4,16(s5)
   1b508:	02c12083          	lw	ra,44(sp)
   1b50c:	02812403          	lw	s0,40(sp)
   1b510:	02412483          	lw	s1,36(sp)
   1b514:	02012903          	lw	s2,32(sp)
   1b518:	01c12983          	lw	s3,28(sp)
   1b51c:	01812a03          	lw	s4,24(sp)
   1b520:	01012b03          	lw	s6,16(sp)
   1b524:	00c12b83          	lw	s7,12(sp)
   1b528:	00812c03          	lw	s8,8(sp)
   1b52c:	00412c83          	lw	s9,4(sp)
   1b530:	000a8513          	mv	a0,s5
   1b534:	01412a83          	lw	s5,20(sp)
   1b538:	03010113          	add	sp,sp,48
   1b53c:	00008067          	ret
   1b540:	004aa583          	lw	a1,4(s5)
   1b544:	000b0513          	mv	a0,s6
   1b548:	00158593          	add	a1,a1,1
   1b54c:	e21ff0ef          	jal	1b36c <_Balloc>
   1b550:	00050413          	mv	s0,a0
   1b554:	04050c63          	beqz	a0,1b5ac <__multadd+0x168>
   1b558:	010aa603          	lw	a2,16(s5)
   1b55c:	00ca8593          	add	a1,s5,12
   1b560:	00c50513          	add	a0,a0,12
   1b564:	00260613          	add	a2,a2,2
   1b568:	00261613          	sll	a2,a2,0x2
   1b56c:	df4fd0ef          	jal	18b60 <memcpy>
   1b570:	004aa703          	lw	a4,4(s5)
   1b574:	044b2783          	lw	a5,68(s6)
   1b578:	00271713          	sll	a4,a4,0x2
   1b57c:	00e787b3          	add	a5,a5,a4
   1b580:	0007a703          	lw	a4,0(a5)
   1b584:	00eaa023          	sw	a4,0(s5)
   1b588:	0157a023          	sw	s5,0(a5)
   1b58c:	004a0793          	add	a5,s4,4
   1b590:	00040a93          	mv	s5,s0
   1b594:	00279793          	sll	a5,a5,0x2
   1b598:	00fa87b3          	add	a5,s5,a5
   1b59c:	0097a223          	sw	s1,4(a5)
   1b5a0:	001a0a13          	add	s4,s4,1
   1b5a4:	014aa823          	sw	s4,16(s5)
   1b5a8:	f61ff06f          	j	1b508 <__multadd+0xc4>
   1b5ac:	00007697          	auipc	a3,0x7
   1b5b0:	e2868693          	add	a3,a3,-472 # 223d4 <__clzsi2+0x230>
   1b5b4:	00000613          	li	a2,0
   1b5b8:	0ba00593          	li	a1,186
   1b5bc:	00007517          	auipc	a0,0x7
   1b5c0:	eac50513          	add	a0,a0,-340 # 22468 <__clzsi2+0x2c4>
   1b5c4:	5b0020ef          	jal	1db74 <__assert_func>

0001b5c8 <__s2b>:
   1b5c8:	fe010113          	add	sp,sp,-32
   1b5cc:	00812c23          	sw	s0,24(sp)
   1b5d0:	01212823          	sw	s2,16(sp)
   1b5d4:	00058413          	mv	s0,a1
   1b5d8:	00050913          	mv	s2,a0
   1b5dc:	00900593          	li	a1,9
   1b5e0:	00868513          	add	a0,a3,8
   1b5e4:	00912a23          	sw	s1,20(sp)
   1b5e8:	01312623          	sw	s3,12(sp)
   1b5ec:	01412423          	sw	s4,8(sp)
   1b5f0:	00112e23          	sw	ra,28(sp)
   1b5f4:	00068493          	mv	s1,a3
   1b5f8:	00060993          	mv	s3,a2
   1b5fc:	00070a13          	mv	s4,a4
   1b600:	2f1060ef          	jal	220f0 <__divsi3>
   1b604:	00900793          	li	a5,9
   1b608:	0c97da63          	bge	a5,s1,1b6dc <__s2b+0x114>
   1b60c:	00100793          	li	a5,1
   1b610:	00000593          	li	a1,0
   1b614:	00179793          	sll	a5,a5,0x1
   1b618:	00158593          	add	a1,a1,1
   1b61c:	fea7cce3          	blt	a5,a0,1b614 <__s2b+0x4c>
   1b620:	00090513          	mv	a0,s2
   1b624:	d49ff0ef          	jal	1b36c <_Balloc>
   1b628:	00050593          	mv	a1,a0
   1b62c:	0a050c63          	beqz	a0,1b6e4 <__s2b+0x11c>
   1b630:	00100793          	li	a5,1
   1b634:	00f52823          	sw	a5,16(a0)
   1b638:	01452a23          	sw	s4,20(a0)
   1b63c:	00900793          	li	a5,9
   1b640:	0937d863          	bge	a5,s3,1b6d0 <__s2b+0x108>
   1b644:	01512223          	sw	s5,4(sp)
   1b648:	00940a93          	add	s5,s0,9
   1b64c:	01340a33          	add	s4,s0,s3
   1b650:	000a8413          	mv	s0,s5
   1b654:	00044683          	lbu	a3,0(s0)
   1b658:	00a00613          	li	a2,10
   1b65c:	00090513          	mv	a0,s2
   1b660:	fd068693          	add	a3,a3,-48
   1b664:	de1ff0ef          	jal	1b444 <__multadd>
   1b668:	00140413          	add	s0,s0,1
   1b66c:	00050593          	mv	a1,a0
   1b670:	ff4412e3          	bne	s0,s4,1b654 <__s2b+0x8c>
   1b674:	ff898413          	add	s0,s3,-8
   1b678:	008a8433          	add	s0,s5,s0
   1b67c:	00412a83          	lw	s5,4(sp)
   1b680:	0299d663          	bge	s3,s1,1b6ac <__s2b+0xe4>
   1b684:	413484b3          	sub	s1,s1,s3
   1b688:	009404b3          	add	s1,s0,s1
   1b68c:	00044683          	lbu	a3,0(s0)
   1b690:	00a00613          	li	a2,10
   1b694:	00090513          	mv	a0,s2
   1b698:	fd068693          	add	a3,a3,-48
   1b69c:	da9ff0ef          	jal	1b444 <__multadd>
   1b6a0:	00140413          	add	s0,s0,1
   1b6a4:	00050593          	mv	a1,a0
   1b6a8:	fe9412e3          	bne	s0,s1,1b68c <__s2b+0xc4>
   1b6ac:	01c12083          	lw	ra,28(sp)
   1b6b0:	01812403          	lw	s0,24(sp)
   1b6b4:	01412483          	lw	s1,20(sp)
   1b6b8:	01012903          	lw	s2,16(sp)
   1b6bc:	00c12983          	lw	s3,12(sp)
   1b6c0:	00812a03          	lw	s4,8(sp)
   1b6c4:	00058513          	mv	a0,a1
   1b6c8:	02010113          	add	sp,sp,32
   1b6cc:	00008067          	ret
   1b6d0:	00a40413          	add	s0,s0,10
   1b6d4:	00900993          	li	s3,9
   1b6d8:	fa9ff06f          	j	1b680 <__s2b+0xb8>
   1b6dc:	00000593          	li	a1,0
   1b6e0:	f41ff06f          	j	1b620 <__s2b+0x58>
   1b6e4:	00007697          	auipc	a3,0x7
   1b6e8:	cf068693          	add	a3,a3,-784 # 223d4 <__clzsi2+0x230>
   1b6ec:	00000613          	li	a2,0
   1b6f0:	0d300593          	li	a1,211
   1b6f4:	00007517          	auipc	a0,0x7
   1b6f8:	d7450513          	add	a0,a0,-652 # 22468 <__clzsi2+0x2c4>
   1b6fc:	01512223          	sw	s5,4(sp)
   1b700:	474020ef          	jal	1db74 <__assert_func>

0001b704 <__hi0bits>:
   1b704:	00050793          	mv	a5,a0
   1b708:	00010737          	lui	a4,0x10
   1b70c:	00000513          	li	a0,0
   1b710:	00e7f663          	bgeu	a5,a4,1b71c <__hi0bits+0x18>
   1b714:	01079793          	sll	a5,a5,0x10
   1b718:	01000513          	li	a0,16
   1b71c:	01000737          	lui	a4,0x1000
   1b720:	00e7f663          	bgeu	a5,a4,1b72c <__hi0bits+0x28>
   1b724:	00850513          	add	a0,a0,8
   1b728:	00879793          	sll	a5,a5,0x8
   1b72c:	10000737          	lui	a4,0x10000
   1b730:	00e7f663          	bgeu	a5,a4,1b73c <__hi0bits+0x38>
   1b734:	00450513          	add	a0,a0,4
   1b738:	00479793          	sll	a5,a5,0x4
   1b73c:	40000737          	lui	a4,0x40000
   1b740:	00e7ea63          	bltu	a5,a4,1b754 <__hi0bits+0x50>
   1b744:	fff7c793          	not	a5,a5
   1b748:	01f7d793          	srl	a5,a5,0x1f
   1b74c:	00f50533          	add	a0,a0,a5
   1b750:	00008067          	ret
   1b754:	00279793          	sll	a5,a5,0x2
   1b758:	0007ca63          	bltz	a5,1b76c <__hi0bits+0x68>
   1b75c:	00179713          	sll	a4,a5,0x1
   1b760:	00074a63          	bltz	a4,1b774 <__hi0bits+0x70>
   1b764:	02000513          	li	a0,32
   1b768:	00008067          	ret
   1b76c:	00250513          	add	a0,a0,2
   1b770:	00008067          	ret
   1b774:	00350513          	add	a0,a0,3
   1b778:	00008067          	ret

0001b77c <__lo0bits>:
   1b77c:	00052783          	lw	a5,0(a0)
   1b780:	00050713          	mv	a4,a0
   1b784:	0077f693          	and	a3,a5,7
   1b788:	02068463          	beqz	a3,1b7b0 <__lo0bits+0x34>
   1b78c:	0017f693          	and	a3,a5,1
   1b790:	00000513          	li	a0,0
   1b794:	04069e63          	bnez	a3,1b7f0 <__lo0bits+0x74>
   1b798:	0027f693          	and	a3,a5,2
   1b79c:	0a068863          	beqz	a3,1b84c <__lo0bits+0xd0>
   1b7a0:	0017d793          	srl	a5,a5,0x1
   1b7a4:	00f72023          	sw	a5,0(a4) # 40000000 <__BSS_END__+0x3ffdb0f0>
   1b7a8:	00100513          	li	a0,1
   1b7ac:	00008067          	ret
   1b7b0:	01079693          	sll	a3,a5,0x10
   1b7b4:	0106d693          	srl	a3,a3,0x10
   1b7b8:	00000513          	li	a0,0
   1b7bc:	06068e63          	beqz	a3,1b838 <__lo0bits+0xbc>
   1b7c0:	0ff7f693          	zext.b	a3,a5
   1b7c4:	06068063          	beqz	a3,1b824 <__lo0bits+0xa8>
   1b7c8:	00f7f693          	and	a3,a5,15
   1b7cc:	04068263          	beqz	a3,1b810 <__lo0bits+0x94>
   1b7d0:	0037f693          	and	a3,a5,3
   1b7d4:	02068463          	beqz	a3,1b7fc <__lo0bits+0x80>
   1b7d8:	0017f693          	and	a3,a5,1
   1b7dc:	00069c63          	bnez	a3,1b7f4 <__lo0bits+0x78>
   1b7e0:	0017d793          	srl	a5,a5,0x1
   1b7e4:	00150513          	add	a0,a0,1
   1b7e8:	00079663          	bnez	a5,1b7f4 <__lo0bits+0x78>
   1b7ec:	02000513          	li	a0,32
   1b7f0:	00008067          	ret
   1b7f4:	00f72023          	sw	a5,0(a4)
   1b7f8:	00008067          	ret
   1b7fc:	0027d793          	srl	a5,a5,0x2
   1b800:	0017f693          	and	a3,a5,1
   1b804:	00250513          	add	a0,a0,2
   1b808:	fe0696e3          	bnez	a3,1b7f4 <__lo0bits+0x78>
   1b80c:	fd5ff06f          	j	1b7e0 <__lo0bits+0x64>
   1b810:	0047d793          	srl	a5,a5,0x4
   1b814:	0037f693          	and	a3,a5,3
   1b818:	00450513          	add	a0,a0,4
   1b81c:	fa069ee3          	bnez	a3,1b7d8 <__lo0bits+0x5c>
   1b820:	fddff06f          	j	1b7fc <__lo0bits+0x80>
   1b824:	0087d793          	srl	a5,a5,0x8
   1b828:	00f7f693          	and	a3,a5,15
   1b82c:	00850513          	add	a0,a0,8
   1b830:	fa0690e3          	bnez	a3,1b7d0 <__lo0bits+0x54>
   1b834:	fddff06f          	j	1b810 <__lo0bits+0x94>
   1b838:	0107d793          	srl	a5,a5,0x10
   1b83c:	0ff7f693          	zext.b	a3,a5
   1b840:	01000513          	li	a0,16
   1b844:	f80692e3          	bnez	a3,1b7c8 <__lo0bits+0x4c>
   1b848:	fddff06f          	j	1b824 <__lo0bits+0xa8>
   1b84c:	0027d793          	srl	a5,a5,0x2
   1b850:	00f72023          	sw	a5,0(a4)
   1b854:	00200513          	li	a0,2
   1b858:	00008067          	ret

0001b85c <__i2b>:
   1b85c:	04452783          	lw	a5,68(a0)
   1b860:	ff010113          	add	sp,sp,-16
   1b864:	00812423          	sw	s0,8(sp)
   1b868:	00912223          	sw	s1,4(sp)
   1b86c:	00112623          	sw	ra,12(sp)
   1b870:	00050413          	mv	s0,a0
   1b874:	00058493          	mv	s1,a1
   1b878:	02078c63          	beqz	a5,1b8b0 <__i2b+0x54>
   1b87c:	0047a503          	lw	a0,4(a5)
   1b880:	06050263          	beqz	a0,1b8e4 <__i2b+0x88>
   1b884:	00052703          	lw	a4,0(a0)
   1b888:	00e7a223          	sw	a4,4(a5)
   1b88c:	00c12083          	lw	ra,12(sp)
   1b890:	00812403          	lw	s0,8(sp)
   1b894:	00100793          	li	a5,1
   1b898:	00952a23          	sw	s1,20(a0)
   1b89c:	00052623          	sw	zero,12(a0)
   1b8a0:	00f52823          	sw	a5,16(a0)
   1b8a4:	00412483          	lw	s1,4(sp)
   1b8a8:	01010113          	add	sp,sp,16
   1b8ac:	00008067          	ret
   1b8b0:	02100613          	li	a2,33
   1b8b4:	00400593          	li	a1,4
   1b8b8:	324020ef          	jal	1dbdc <_calloc_r>
   1b8bc:	04a42223          	sw	a0,68(s0)
   1b8c0:	00050793          	mv	a5,a0
   1b8c4:	fa051ce3          	bnez	a0,1b87c <__i2b+0x20>
   1b8c8:	00007697          	auipc	a3,0x7
   1b8cc:	b0c68693          	add	a3,a3,-1268 # 223d4 <__clzsi2+0x230>
   1b8d0:	00000613          	li	a2,0
   1b8d4:	14500593          	li	a1,325
   1b8d8:	00007517          	auipc	a0,0x7
   1b8dc:	b9050513          	add	a0,a0,-1136 # 22468 <__clzsi2+0x2c4>
   1b8e0:	294020ef          	jal	1db74 <__assert_func>
   1b8e4:	01c00613          	li	a2,28
   1b8e8:	00100593          	li	a1,1
   1b8ec:	00040513          	mv	a0,s0
   1b8f0:	2ec020ef          	jal	1dbdc <_calloc_r>
   1b8f4:	fc050ae3          	beqz	a0,1b8c8 <__i2b+0x6c>
   1b8f8:	00100793          	li	a5,1
   1b8fc:	00f52223          	sw	a5,4(a0)
   1b900:	00200793          	li	a5,2
   1b904:	00f52423          	sw	a5,8(a0)
   1b908:	f85ff06f          	j	1b88c <__i2b+0x30>

0001b90c <__multiply>:
   1b90c:	fb010113          	add	sp,sp,-80
   1b910:	03312e23          	sw	s3,60(sp)
   1b914:	03812423          	sw	s8,40(sp)
   1b918:	01062983          	lw	s3,16(a2)
   1b91c:	0105ac03          	lw	s8,16(a1)
   1b920:	04812423          	sw	s0,72(sp)
   1b924:	03412c23          	sw	s4,56(sp)
   1b928:	04112623          	sw	ra,76(sp)
   1b92c:	03712623          	sw	s7,44(sp)
   1b930:	00058a13          	mv	s4,a1
   1b934:	00060413          	mv	s0,a2
   1b938:	013c4c63          	blt	s8,s3,1b950 <__multiply+0x44>
   1b93c:	00098713          	mv	a4,s3
   1b940:	00058413          	mv	s0,a1
   1b944:	000c0993          	mv	s3,s8
   1b948:	00060a13          	mv	s4,a2
   1b94c:	00070c13          	mv	s8,a4
   1b950:	00842783          	lw	a5,8(s0)
   1b954:	00442583          	lw	a1,4(s0)
   1b958:	01898bb3          	add	s7,s3,s8
   1b95c:	0177a7b3          	slt	a5,a5,s7
   1b960:	00f585b3          	add	a1,a1,a5
   1b964:	a09ff0ef          	jal	1b36c <_Balloc>
   1b968:	00a12623          	sw	a0,12(sp)
   1b96c:	22050863          	beqz	a0,1bb9c <__multiply+0x290>
   1b970:	00c12783          	lw	a5,12(sp)
   1b974:	03512a23          	sw	s5,52(sp)
   1b978:	03612823          	sw	s6,48(sp)
   1b97c:	002b9a93          	sll	s5,s7,0x2
   1b980:	01478b13          	add	s6,a5,20
   1b984:	015b0ab3          	add	s5,s6,s5
   1b988:	000b0793          	mv	a5,s6
   1b98c:	015b7863          	bgeu	s6,s5,1b99c <__multiply+0x90>
   1b990:	0007a023          	sw	zero,0(a5)
   1b994:	00478793          	add	a5,a5,4
   1b998:	ff57ece3          	bltu	a5,s5,1b990 <__multiply+0x84>
   1b99c:	014a0a13          	add	s4,s4,20
   1b9a0:	002c1c13          	sll	s8,s8,0x2
   1b9a4:	01440793          	add	a5,s0,20
   1b9a8:	018a0733          	add	a4,s4,s8
   1b9ac:	00299993          	sll	s3,s3,0x2
   1b9b0:	00f12423          	sw	a5,8(sp)
   1b9b4:	00e12023          	sw	a4,0(sp)
   1b9b8:	013789b3          	add	s3,a5,s3
   1b9bc:	16ea7c63          	bgeu	s4,a4,1bb34 <__multiply+0x228>
   1b9c0:	00400713          	li	a4,4
   1b9c4:	04912223          	sw	s1,68(sp)
   1b9c8:	05212023          	sw	s2,64(sp)
   1b9cc:	03912223          	sw	s9,36(sp)
   1b9d0:	03a12023          	sw	s10,32(sp)
   1b9d4:	01b12e23          	sw	s11,28(sp)
   1b9d8:	01540793          	add	a5,s0,21
   1b9dc:	00e12223          	sw	a4,4(sp)
   1b9e0:	1af9f263          	bgeu	s3,a5,1bb84 <__multiply+0x278>
   1b9e4:	00010437          	lui	s0,0x10
   1b9e8:	fff40413          	add	s0,s0,-1 # ffff <exit-0x95>
   1b9ec:	01c0006f          	j	1ba08 <__multiply+0xfc>
   1b9f0:	01095913          	srl	s2,s2,0x10
   1b9f4:	0a091063          	bnez	s2,1ba94 <__multiply+0x188>
   1b9f8:	00012783          	lw	a5,0(sp)
   1b9fc:	004a0a13          	add	s4,s4,4
   1ba00:	004b0b13          	add	s6,s6,4
   1ba04:	10fa7e63          	bgeu	s4,a5,1bb20 <__multiply+0x214>
   1ba08:	000a2903          	lw	s2,0(s4)
   1ba0c:	008974b3          	and	s1,s2,s0
   1ba10:	fe0480e3          	beqz	s1,1b9f0 <__multiply+0xe4>
   1ba14:	00812c83          	lw	s9,8(sp)
   1ba18:	000b0d13          	mv	s10,s6
   1ba1c:	00000c13          	li	s8,0
   1ba20:	000cad83          	lw	s11,0(s9)
   1ba24:	000d2903          	lw	s2,0(s10)
   1ba28:	00048593          	mv	a1,s1
   1ba2c:	008df533          	and	a0,s11,s0
   1ba30:	69c060ef          	jal	220cc <__mulsi3>
   1ba34:	00897733          	and	a4,s2,s0
   1ba38:	00e50733          	add	a4,a0,a4
   1ba3c:	00048593          	mv	a1,s1
   1ba40:	010dd513          	srl	a0,s11,0x10
   1ba44:	01870c33          	add	s8,a4,s8
   1ba48:	01095913          	srl	s2,s2,0x10
   1ba4c:	680060ef          	jal	220cc <__mulsi3>
   1ba50:	010c5713          	srl	a4,s8,0x10
   1ba54:	01250533          	add	a0,a0,s2
   1ba58:	00e50533          	add	a0,a0,a4
   1ba5c:	008c77b3          	and	a5,s8,s0
   1ba60:	01051713          	sll	a4,a0,0x10
   1ba64:	004d0d13          	add	s10,s10,4
   1ba68:	00f767b3          	or	a5,a4,a5
   1ba6c:	004c8c93          	add	s9,s9,4
   1ba70:	fefd2e23          	sw	a5,-4(s10)
   1ba74:	01055c13          	srl	s8,a0,0x10
   1ba78:	fb3ce4e3          	bltu	s9,s3,1ba20 <__multiply+0x114>
   1ba7c:	00412783          	lw	a5,4(sp)
   1ba80:	00fb0733          	add	a4,s6,a5
   1ba84:	01872023          	sw	s8,0(a4)
   1ba88:	000a2903          	lw	s2,0(s4)
   1ba8c:	01095913          	srl	s2,s2,0x10
   1ba90:	f60904e3          	beqz	s2,1b9f8 <__multiply+0xec>
   1ba94:	000b2c83          	lw	s9,0(s6)
   1ba98:	00812d03          	lw	s10,8(sp)
   1ba9c:	000b0c13          	mv	s8,s6
   1baa0:	000c8493          	mv	s1,s9
   1baa4:	00000d93          	li	s11,0
   1baa8:	000d2503          	lw	a0,0(s10)
   1baac:	00090593          	mv	a1,s2
   1bab0:	0104d493          	srl	s1,s1,0x10
   1bab4:	00857533          	and	a0,a0,s0
   1bab8:	614060ef          	jal	220cc <__mulsi3>
   1babc:	01b50733          	add	a4,a0,s11
   1bac0:	00970db3          	add	s11,a4,s1
   1bac4:	010d9593          	sll	a1,s11,0x10
   1bac8:	008cf7b3          	and	a5,s9,s0
   1bacc:	00f5e7b3          	or	a5,a1,a5
   1bad0:	00fc2023          	sw	a5,0(s8)
   1bad4:	002d5503          	lhu	a0,2(s10)
   1bad8:	004c2483          	lw	s1,4(s8)
   1badc:	00090593          	mv	a1,s2
   1bae0:	5ec060ef          	jal	220cc <__mulsi3>
   1bae4:	0084f7b3          	and	a5,s1,s0
   1bae8:	010dd713          	srl	a4,s11,0x10
   1baec:	00f507b3          	add	a5,a0,a5
   1baf0:	004d0d13          	add	s10,s10,4
   1baf4:	00e78cb3          	add	s9,a5,a4
   1baf8:	004c0c13          	add	s8,s8,4
   1bafc:	010cdd93          	srl	s11,s9,0x10
   1bb00:	fb3d64e3          	bltu	s10,s3,1baa8 <__multiply+0x19c>
   1bb04:	00412783          	lw	a5,4(sp)
   1bb08:	004a0a13          	add	s4,s4,4
   1bb0c:	00fb0733          	add	a4,s6,a5
   1bb10:	00012783          	lw	a5,0(sp)
   1bb14:	01972023          	sw	s9,0(a4)
   1bb18:	004b0b13          	add	s6,s6,4
   1bb1c:	eefa66e3          	bltu	s4,a5,1ba08 <__multiply+0xfc>
   1bb20:	04412483          	lw	s1,68(sp)
   1bb24:	04012903          	lw	s2,64(sp)
   1bb28:	02412c83          	lw	s9,36(sp)
   1bb2c:	02012d03          	lw	s10,32(sp)
   1bb30:	01c12d83          	lw	s11,28(sp)
   1bb34:	01704863          	bgtz	s7,1bb44 <__multiply+0x238>
   1bb38:	0180006f          	j	1bb50 <__multiply+0x244>
   1bb3c:	fffb8b93          	add	s7,s7,-1
   1bb40:	000b8863          	beqz	s7,1bb50 <__multiply+0x244>
   1bb44:	ffcaa783          	lw	a5,-4(s5)
   1bb48:	ffca8a93          	add	s5,s5,-4
   1bb4c:	fe0788e3          	beqz	a5,1bb3c <__multiply+0x230>
   1bb50:	00c12783          	lw	a5,12(sp)
   1bb54:	04c12083          	lw	ra,76(sp)
   1bb58:	04812403          	lw	s0,72(sp)
   1bb5c:	0177a823          	sw	s7,16(a5)
   1bb60:	03412a83          	lw	s5,52(sp)
   1bb64:	03012b03          	lw	s6,48(sp)
   1bb68:	03c12983          	lw	s3,60(sp)
   1bb6c:	03812a03          	lw	s4,56(sp)
   1bb70:	02c12b83          	lw	s7,44(sp)
   1bb74:	02812c03          	lw	s8,40(sp)
   1bb78:	00078513          	mv	a0,a5
   1bb7c:	05010113          	add	sp,sp,80
   1bb80:	00008067          	ret
   1bb84:	408987b3          	sub	a5,s3,s0
   1bb88:	feb78793          	add	a5,a5,-21
   1bb8c:	ffc7f793          	and	a5,a5,-4
   1bb90:	00478793          	add	a5,a5,4
   1bb94:	00f12223          	sw	a5,4(sp)
   1bb98:	e4dff06f          	j	1b9e4 <__multiply+0xd8>
   1bb9c:	00007697          	auipc	a3,0x7
   1bba0:	83868693          	add	a3,a3,-1992 # 223d4 <__clzsi2+0x230>
   1bba4:	00000613          	li	a2,0
   1bba8:	16200593          	li	a1,354
   1bbac:	00007517          	auipc	a0,0x7
   1bbb0:	8bc50513          	add	a0,a0,-1860 # 22468 <__clzsi2+0x2c4>
   1bbb4:	04912223          	sw	s1,68(sp)
   1bbb8:	05212023          	sw	s2,64(sp)
   1bbbc:	03512a23          	sw	s5,52(sp)
   1bbc0:	03612823          	sw	s6,48(sp)
   1bbc4:	03912223          	sw	s9,36(sp)
   1bbc8:	03a12023          	sw	s10,32(sp)
   1bbcc:	01b12e23          	sw	s11,28(sp)
   1bbd0:	7a5010ef          	jal	1db74 <__assert_func>

0001bbd4 <__pow5mult>:
   1bbd4:	fe010113          	add	sp,sp,-32
   1bbd8:	00812c23          	sw	s0,24(sp)
   1bbdc:	01212823          	sw	s2,16(sp)
   1bbe0:	01312623          	sw	s3,12(sp)
   1bbe4:	00112e23          	sw	ra,28(sp)
   1bbe8:	00367793          	and	a5,a2,3
   1bbec:	00060413          	mv	s0,a2
   1bbf0:	00050993          	mv	s3,a0
   1bbf4:	00058913          	mv	s2,a1
   1bbf8:	0a079c63          	bnez	a5,1bcb0 <__pow5mult+0xdc>
   1bbfc:	40245413          	sra	s0,s0,0x2
   1bc00:	06040a63          	beqz	s0,1bc74 <__pow5mult+0xa0>
   1bc04:	00912a23          	sw	s1,20(sp)
   1bc08:	0409a483          	lw	s1,64(s3)
   1bc0c:	0c048663          	beqz	s1,1bcd8 <__pow5mult+0x104>
   1bc10:	00147793          	and	a5,s0,1
   1bc14:	02079063          	bnez	a5,1bc34 <__pow5mult+0x60>
   1bc18:	40145413          	sra	s0,s0,0x1
   1bc1c:	04040a63          	beqz	s0,1bc70 <__pow5mult+0x9c>
   1bc20:	0004a503          	lw	a0,0(s1)
   1bc24:	06050663          	beqz	a0,1bc90 <__pow5mult+0xbc>
   1bc28:	00050493          	mv	s1,a0
   1bc2c:	00147793          	and	a5,s0,1
   1bc30:	fe0784e3          	beqz	a5,1bc18 <__pow5mult+0x44>
   1bc34:	00048613          	mv	a2,s1
   1bc38:	00090593          	mv	a1,s2
   1bc3c:	00098513          	mv	a0,s3
   1bc40:	ccdff0ef          	jal	1b90c <__multiply>
   1bc44:	02090063          	beqz	s2,1bc64 <__pow5mult+0x90>
   1bc48:	00492703          	lw	a4,4(s2)
   1bc4c:	0449a783          	lw	a5,68(s3)
   1bc50:	00271713          	sll	a4,a4,0x2
   1bc54:	00e787b3          	add	a5,a5,a4
   1bc58:	0007a703          	lw	a4,0(a5)
   1bc5c:	00e92023          	sw	a4,0(s2)
   1bc60:	0127a023          	sw	s2,0(a5)
   1bc64:	40145413          	sra	s0,s0,0x1
   1bc68:	00050913          	mv	s2,a0
   1bc6c:	fa041ae3          	bnez	s0,1bc20 <__pow5mult+0x4c>
   1bc70:	01412483          	lw	s1,20(sp)
   1bc74:	01c12083          	lw	ra,28(sp)
   1bc78:	01812403          	lw	s0,24(sp)
   1bc7c:	00c12983          	lw	s3,12(sp)
   1bc80:	00090513          	mv	a0,s2
   1bc84:	01012903          	lw	s2,16(sp)
   1bc88:	02010113          	add	sp,sp,32
   1bc8c:	00008067          	ret
   1bc90:	00048613          	mv	a2,s1
   1bc94:	00048593          	mv	a1,s1
   1bc98:	00098513          	mv	a0,s3
   1bc9c:	c71ff0ef          	jal	1b90c <__multiply>
   1bca0:	00a4a023          	sw	a0,0(s1)
   1bca4:	00052023          	sw	zero,0(a0)
   1bca8:	00050493          	mv	s1,a0
   1bcac:	f81ff06f          	j	1bc2c <__pow5mult+0x58>
   1bcb0:	fff78793          	add	a5,a5,-1
   1bcb4:	00007717          	auipc	a4,0x7
   1bcb8:	fe870713          	add	a4,a4,-24 # 22c9c <p05.0>
   1bcbc:	00279793          	sll	a5,a5,0x2
   1bcc0:	00f707b3          	add	a5,a4,a5
   1bcc4:	0007a603          	lw	a2,0(a5)
   1bcc8:	00000693          	li	a3,0
   1bccc:	f78ff0ef          	jal	1b444 <__multadd>
   1bcd0:	00050913          	mv	s2,a0
   1bcd4:	f29ff06f          	j	1bbfc <__pow5mult+0x28>
   1bcd8:	00100593          	li	a1,1
   1bcdc:	00098513          	mv	a0,s3
   1bce0:	e8cff0ef          	jal	1b36c <_Balloc>
   1bce4:	00050493          	mv	s1,a0
   1bce8:	02050063          	beqz	a0,1bd08 <__pow5mult+0x134>
   1bcec:	27100793          	li	a5,625
   1bcf0:	00f52a23          	sw	a5,20(a0)
   1bcf4:	00100793          	li	a5,1
   1bcf8:	00f52823          	sw	a5,16(a0)
   1bcfc:	04a9a023          	sw	a0,64(s3)
   1bd00:	00052023          	sw	zero,0(a0)
   1bd04:	f0dff06f          	j	1bc10 <__pow5mult+0x3c>
   1bd08:	00006697          	auipc	a3,0x6
   1bd0c:	6cc68693          	add	a3,a3,1740 # 223d4 <__clzsi2+0x230>
   1bd10:	00000613          	li	a2,0
   1bd14:	14500593          	li	a1,325
   1bd18:	00006517          	auipc	a0,0x6
   1bd1c:	75050513          	add	a0,a0,1872 # 22468 <__clzsi2+0x2c4>
   1bd20:	655010ef          	jal	1db74 <__assert_func>

0001bd24 <__lshift>:
   1bd24:	fe010113          	add	sp,sp,-32
   1bd28:	01512223          	sw	s5,4(sp)
   1bd2c:	0105aa83          	lw	s5,16(a1)
   1bd30:	0085a783          	lw	a5,8(a1)
   1bd34:	01312623          	sw	s3,12(sp)
   1bd38:	40565993          	sra	s3,a2,0x5
   1bd3c:	01598ab3          	add	s5,s3,s5
   1bd40:	00812c23          	sw	s0,24(sp)
   1bd44:	00912a23          	sw	s1,20(sp)
   1bd48:	01212823          	sw	s2,16(sp)
   1bd4c:	01412423          	sw	s4,8(sp)
   1bd50:	00112e23          	sw	ra,28(sp)
   1bd54:	001a8913          	add	s2,s5,1
   1bd58:	00058493          	mv	s1,a1
   1bd5c:	00060413          	mv	s0,a2
   1bd60:	0045a583          	lw	a1,4(a1)
   1bd64:	00050a13          	mv	s4,a0
   1bd68:	0127d863          	bge	a5,s2,1bd78 <__lshift+0x54>
   1bd6c:	00179793          	sll	a5,a5,0x1
   1bd70:	00158593          	add	a1,a1,1
   1bd74:	ff27cce3          	blt	a5,s2,1bd6c <__lshift+0x48>
   1bd78:	000a0513          	mv	a0,s4
   1bd7c:	df0ff0ef          	jal	1b36c <_Balloc>
   1bd80:	10050c63          	beqz	a0,1be98 <__lshift+0x174>
   1bd84:	01450813          	add	a6,a0,20
   1bd88:	03305463          	blez	s3,1bdb0 <__lshift+0x8c>
   1bd8c:	00598993          	add	s3,s3,5
   1bd90:	00299993          	sll	s3,s3,0x2
   1bd94:	01350733          	add	a4,a0,s3
   1bd98:	00080793          	mv	a5,a6
   1bd9c:	00478793          	add	a5,a5,4
   1bda0:	fe07ae23          	sw	zero,-4(a5)
   1bda4:	fee79ce3          	bne	a5,a4,1bd9c <__lshift+0x78>
   1bda8:	fec98993          	add	s3,s3,-20
   1bdac:	01380833          	add	a6,a6,s3
   1bdb0:	0104a883          	lw	a7,16(s1)
   1bdb4:	01448793          	add	a5,s1,20
   1bdb8:	01f47613          	and	a2,s0,31
   1bdbc:	00289893          	sll	a7,a7,0x2
   1bdc0:	011788b3          	add	a7,a5,a7
   1bdc4:	0a060463          	beqz	a2,1be6c <__lshift+0x148>
   1bdc8:	02000593          	li	a1,32
   1bdcc:	40c585b3          	sub	a1,a1,a2
   1bdd0:	00080313          	mv	t1,a6
   1bdd4:	00000693          	li	a3,0
   1bdd8:	0007a703          	lw	a4,0(a5)
   1bddc:	00430313          	add	t1,t1,4
   1bde0:	00478793          	add	a5,a5,4
   1bde4:	00c71733          	sll	a4,a4,a2
   1bde8:	00d76733          	or	a4,a4,a3
   1bdec:	fee32e23          	sw	a4,-4(t1)
   1bdf0:	ffc7a683          	lw	a3,-4(a5)
   1bdf4:	00b6d6b3          	srl	a3,a3,a1
   1bdf8:	ff17e0e3          	bltu	a5,a7,1bdd8 <__lshift+0xb4>
   1bdfc:	01548793          	add	a5,s1,21
   1be00:	00400713          	li	a4,4
   1be04:	00f8ea63          	bltu	a7,a5,1be18 <__lshift+0xf4>
   1be08:	409887b3          	sub	a5,a7,s1
   1be0c:	feb78793          	add	a5,a5,-21
   1be10:	ffc7f793          	and	a5,a5,-4
   1be14:	00478713          	add	a4,a5,4
   1be18:	00e80833          	add	a6,a6,a4
   1be1c:	00d82023          	sw	a3,0(a6)
   1be20:	00069463          	bnez	a3,1be28 <__lshift+0x104>
   1be24:	000a8913          	mv	s2,s5
   1be28:	0044a703          	lw	a4,4(s1)
   1be2c:	044a2783          	lw	a5,68(s4)
   1be30:	01c12083          	lw	ra,28(sp)
   1be34:	00271713          	sll	a4,a4,0x2
   1be38:	00e787b3          	add	a5,a5,a4
   1be3c:	0007a703          	lw	a4,0(a5)
   1be40:	01252823          	sw	s2,16(a0)
   1be44:	01812403          	lw	s0,24(sp)
   1be48:	00e4a023          	sw	a4,0(s1)
   1be4c:	0097a023          	sw	s1,0(a5)
   1be50:	01012903          	lw	s2,16(sp)
   1be54:	01412483          	lw	s1,20(sp)
   1be58:	00c12983          	lw	s3,12(sp)
   1be5c:	00812a03          	lw	s4,8(sp)
   1be60:	00412a83          	lw	s5,4(sp)
   1be64:	02010113          	add	sp,sp,32
   1be68:	00008067          	ret
   1be6c:	0007a703          	lw	a4,0(a5)
   1be70:	00478793          	add	a5,a5,4
   1be74:	00480813          	add	a6,a6,4
   1be78:	fee82e23          	sw	a4,-4(a6)
   1be7c:	fb17f4e3          	bgeu	a5,a7,1be24 <__lshift+0x100>
   1be80:	0007a703          	lw	a4,0(a5)
   1be84:	00478793          	add	a5,a5,4
   1be88:	00480813          	add	a6,a6,4
   1be8c:	fee82e23          	sw	a4,-4(a6)
   1be90:	fd17eee3          	bltu	a5,a7,1be6c <__lshift+0x148>
   1be94:	f91ff06f          	j	1be24 <__lshift+0x100>
   1be98:	00006697          	auipc	a3,0x6
   1be9c:	53c68693          	add	a3,a3,1340 # 223d4 <__clzsi2+0x230>
   1bea0:	00000613          	li	a2,0
   1bea4:	1de00593          	li	a1,478
   1bea8:	00006517          	auipc	a0,0x6
   1beac:	5c050513          	add	a0,a0,1472 # 22468 <__clzsi2+0x2c4>
   1beb0:	4c5010ef          	jal	1db74 <__assert_func>

0001beb4 <__mcmp>:
   1beb4:	01052703          	lw	a4,16(a0)
   1beb8:	0105a783          	lw	a5,16(a1)
   1bebc:	00050813          	mv	a6,a0
   1bec0:	40f70533          	sub	a0,a4,a5
   1bec4:	04f71263          	bne	a4,a5,1bf08 <__mcmp+0x54>
   1bec8:	00279793          	sll	a5,a5,0x2
   1becc:	01480813          	add	a6,a6,20
   1bed0:	01458593          	add	a1,a1,20
   1bed4:	00f80733          	add	a4,a6,a5
   1bed8:	00f587b3          	add	a5,a1,a5
   1bedc:	0080006f          	j	1bee4 <__mcmp+0x30>
   1bee0:	02e87463          	bgeu	a6,a4,1bf08 <__mcmp+0x54>
   1bee4:	ffc72603          	lw	a2,-4(a4)
   1bee8:	ffc7a683          	lw	a3,-4(a5)
   1beec:	ffc70713          	add	a4,a4,-4
   1bef0:	ffc78793          	add	a5,a5,-4
   1bef4:	fed606e3          	beq	a2,a3,1bee0 <__mcmp+0x2c>
   1bef8:	00100513          	li	a0,1
   1befc:	00d67663          	bgeu	a2,a3,1bf08 <__mcmp+0x54>
   1bf00:	fff00513          	li	a0,-1
   1bf04:	00008067          	ret
   1bf08:	00008067          	ret

0001bf0c <__mdiff>:
   1bf0c:	0105a703          	lw	a4,16(a1)
   1bf10:	01062783          	lw	a5,16(a2)
   1bf14:	ff010113          	add	sp,sp,-16
   1bf18:	00812423          	sw	s0,8(sp)
   1bf1c:	00912223          	sw	s1,4(sp)
   1bf20:	00112623          	sw	ra,12(sp)
   1bf24:	01212023          	sw	s2,0(sp)
   1bf28:	00058413          	mv	s0,a1
   1bf2c:	00060493          	mv	s1,a2
   1bf30:	40f706b3          	sub	a3,a4,a5
   1bf34:	18f71e63          	bne	a4,a5,1c0d0 <__mdiff+0x1c4>
   1bf38:	00279693          	sll	a3,a5,0x2
   1bf3c:	01458613          	add	a2,a1,20
   1bf40:	01448713          	add	a4,s1,20
   1bf44:	00d607b3          	add	a5,a2,a3
   1bf48:	00d70733          	add	a4,a4,a3
   1bf4c:	0080006f          	j	1bf54 <__mdiff+0x48>
   1bf50:	18f67c63          	bgeu	a2,a5,1c0e8 <__mdiff+0x1dc>
   1bf54:	ffc7a583          	lw	a1,-4(a5)
   1bf58:	ffc72683          	lw	a3,-4(a4)
   1bf5c:	ffc78793          	add	a5,a5,-4
   1bf60:	ffc70713          	add	a4,a4,-4
   1bf64:	fed586e3          	beq	a1,a3,1bf50 <__mdiff+0x44>
   1bf68:	00100913          	li	s2,1
   1bf6c:	00d5ea63          	bltu	a1,a3,1bf80 <__mdiff+0x74>
   1bf70:	00048793          	mv	a5,s1
   1bf74:	00000913          	li	s2,0
   1bf78:	00040493          	mv	s1,s0
   1bf7c:	00078413          	mv	s0,a5
   1bf80:	0044a583          	lw	a1,4(s1)
   1bf84:	be8ff0ef          	jal	1b36c <_Balloc>
   1bf88:	1a050663          	beqz	a0,1c134 <__mdiff+0x228>
   1bf8c:	0104a883          	lw	a7,16(s1)
   1bf90:	01042283          	lw	t0,16(s0)
   1bf94:	01448f93          	add	t6,s1,20
   1bf98:	00289313          	sll	t1,a7,0x2
   1bf9c:	01440813          	add	a6,s0,20
   1bfa0:	00229293          	sll	t0,t0,0x2
   1bfa4:	01450593          	add	a1,a0,20
   1bfa8:	00010e37          	lui	t3,0x10
   1bfac:	01252623          	sw	s2,12(a0)
   1bfb0:	006f8333          	add	t1,t6,t1
   1bfb4:	005802b3          	add	t0,a6,t0
   1bfb8:	00058f13          	mv	t5,a1
   1bfbc:	000f8e93          	mv	t4,t6
   1bfc0:	00000693          	li	a3,0
   1bfc4:	fffe0e13          	add	t3,t3,-1 # ffff <exit-0x95>
   1bfc8:	000ea703          	lw	a4,0(t4)
   1bfcc:	00082603          	lw	a2,0(a6)
   1bfd0:	004f0f13          	add	t5,t5,4
   1bfd4:	01c777b3          	and	a5,a4,t3
   1bfd8:	01c673b3          	and	t2,a2,t3
   1bfdc:	407787b3          	sub	a5,a5,t2
   1bfe0:	00d787b3          	add	a5,a5,a3
   1bfe4:	01075713          	srl	a4,a4,0x10
   1bfe8:	01065613          	srl	a2,a2,0x10
   1bfec:	4107d693          	sra	a3,a5,0x10
   1bff0:	40c70733          	sub	a4,a4,a2
   1bff4:	00d70733          	add	a4,a4,a3
   1bff8:	01071693          	sll	a3,a4,0x10
   1bffc:	01c7f7b3          	and	a5,a5,t3
   1c000:	00d7e7b3          	or	a5,a5,a3
   1c004:	00480813          	add	a6,a6,4
   1c008:	feff2e23          	sw	a5,-4(t5)
   1c00c:	004e8e93          	add	t4,t4,4
   1c010:	41075693          	sra	a3,a4,0x10
   1c014:	fa586ae3          	bltu	a6,t0,1bfc8 <__mdiff+0xbc>
   1c018:	01540713          	add	a4,s0,21
   1c01c:	40828433          	sub	s0,t0,s0
   1c020:	feb40413          	add	s0,s0,-21
   1c024:	00e2b2b3          	sltu	t0,t0,a4
   1c028:	0012cf13          	xor	t5,t0,1
   1c02c:	00245413          	srl	s0,s0,0x2
   1c030:	00400713          	li	a4,4
   1c034:	0a028463          	beqz	t0,1c0dc <__mdiff+0x1d0>
   1c038:	00ef8fb3          	add	t6,t6,a4
   1c03c:	00e58833          	add	a6,a1,a4
   1c040:	00010eb7          	lui	t4,0x10
   1c044:	00080e13          	mv	t3,a6
   1c048:	000f8613          	mv	a2,t6
   1c04c:	fffe8e93          	add	t4,t4,-1 # ffff <exit-0x95>
   1c050:	0c6ff463          	bgeu	t6,t1,1c118 <__mdiff+0x20c>
   1c054:	00062783          	lw	a5,0(a2)
   1c058:	004e0e13          	add	t3,t3,4
   1c05c:	00460613          	add	a2,a2,4
   1c060:	01d7f733          	and	a4,a5,t4
   1c064:	00d70733          	add	a4,a4,a3
   1c068:	0107d593          	srl	a1,a5,0x10
   1c06c:	41075713          	sra	a4,a4,0x10
   1c070:	00b70733          	add	a4,a4,a1
   1c074:	00d787b3          	add	a5,a5,a3
   1c078:	01d7f7b3          	and	a5,a5,t4
   1c07c:	01071693          	sll	a3,a4,0x10
   1c080:	00d7e7b3          	or	a5,a5,a3
   1c084:	fefe2e23          	sw	a5,-4(t3)
   1c088:	41075693          	sra	a3,a4,0x10
   1c08c:	fc6664e3          	bltu	a2,t1,1c054 <__mdiff+0x148>
   1c090:	fff30313          	add	t1,t1,-1
   1c094:	41f30333          	sub	t1,t1,t6
   1c098:	ffc37313          	and	t1,t1,-4
   1c09c:	00680733          	add	a4,a6,t1
   1c0a0:	00079a63          	bnez	a5,1c0b4 <__mdiff+0x1a8>
   1c0a4:	ffc72783          	lw	a5,-4(a4)
   1c0a8:	fff88893          	add	a7,a7,-1
   1c0ac:	ffc70713          	add	a4,a4,-4
   1c0b0:	fe078ae3          	beqz	a5,1c0a4 <__mdiff+0x198>
   1c0b4:	00c12083          	lw	ra,12(sp)
   1c0b8:	00812403          	lw	s0,8(sp)
   1c0bc:	01152823          	sw	a7,16(a0)
   1c0c0:	00412483          	lw	s1,4(sp)
   1c0c4:	00012903          	lw	s2,0(sp)
   1c0c8:	01010113          	add	sp,sp,16
   1c0cc:	00008067          	ret
   1c0d0:	00100913          	li	s2,1
   1c0d4:	e806dee3          	bgez	a3,1bf70 <__mdiff+0x64>
   1c0d8:	ea9ff06f          	j	1bf80 <__mdiff+0x74>
   1c0dc:	00140713          	add	a4,s0,1
   1c0e0:	00271713          	sll	a4,a4,0x2
   1c0e4:	f55ff06f          	j	1c038 <__mdiff+0x12c>
   1c0e8:	00000593          	li	a1,0
   1c0ec:	a80ff0ef          	jal	1b36c <_Balloc>
   1c0f0:	06050063          	beqz	a0,1c150 <__mdiff+0x244>
   1c0f4:	00c12083          	lw	ra,12(sp)
   1c0f8:	00812403          	lw	s0,8(sp)
   1c0fc:	00100793          	li	a5,1
   1c100:	00f52823          	sw	a5,16(a0)
   1c104:	00052a23          	sw	zero,20(a0)
   1c108:	00412483          	lw	s1,4(sp)
   1c10c:	00012903          	lw	s2,0(sp)
   1c110:	01010113          	add	sp,sp,16
   1c114:	00008067          	ret
   1c118:	00000713          	li	a4,0
   1c11c:	000f1663          	bnez	t5,1c128 <__mdiff+0x21c>
   1c120:	00e58733          	add	a4,a1,a4
   1c124:	f7dff06f          	j	1c0a0 <__mdiff+0x194>
   1c128:	00241713          	sll	a4,s0,0x2
   1c12c:	00e58733          	add	a4,a1,a4
   1c130:	f71ff06f          	j	1c0a0 <__mdiff+0x194>
   1c134:	00006697          	auipc	a3,0x6
   1c138:	2a068693          	add	a3,a3,672 # 223d4 <__clzsi2+0x230>
   1c13c:	00000613          	li	a2,0
   1c140:	24500593          	li	a1,581
   1c144:	00006517          	auipc	a0,0x6
   1c148:	32450513          	add	a0,a0,804 # 22468 <__clzsi2+0x2c4>
   1c14c:	229010ef          	jal	1db74 <__assert_func>
   1c150:	00006697          	auipc	a3,0x6
   1c154:	28468693          	add	a3,a3,644 # 223d4 <__clzsi2+0x230>
   1c158:	00000613          	li	a2,0
   1c15c:	23700593          	li	a1,567
   1c160:	00006517          	auipc	a0,0x6
   1c164:	30850513          	add	a0,a0,776 # 22468 <__clzsi2+0x2c4>
   1c168:	20d010ef          	jal	1db74 <__assert_func>

0001c16c <__ulp>:
   1c16c:	7ff007b7          	lui	a5,0x7ff00
   1c170:	00b7f5b3          	and	a1,a5,a1
   1c174:	fcc007b7          	lui	a5,0xfcc00
   1c178:	00f585b3          	add	a1,a1,a5
   1c17c:	00000793          	li	a5,0
   1c180:	00b05663          	blez	a1,1c18c <__ulp+0x20>
   1c184:	00078513          	mv	a0,a5
   1c188:	00008067          	ret
   1c18c:	40b005b3          	neg	a1,a1
   1c190:	4145d593          	sra	a1,a1,0x14
   1c194:	01300793          	li	a5,19
   1c198:	00b7cc63          	blt	a5,a1,1c1b0 <__ulp+0x44>
   1c19c:	000807b7          	lui	a5,0x80
   1c1a0:	40b7d5b3          	sra	a1,a5,a1
   1c1a4:	00000793          	li	a5,0
   1c1a8:	00078513          	mv	a0,a5
   1c1ac:	00008067          	ret
   1c1b0:	fec58593          	add	a1,a1,-20
   1c1b4:	01e00713          	li	a4,30
   1c1b8:	00100793          	li	a5,1
   1c1bc:	00b74663          	blt	a4,a1,1c1c8 <__ulp+0x5c>
   1c1c0:	800007b7          	lui	a5,0x80000
   1c1c4:	00b7d7b3          	srl	a5,a5,a1
   1c1c8:	00000593          	li	a1,0
   1c1cc:	00078513          	mv	a0,a5
   1c1d0:	00008067          	ret

0001c1d4 <__b2d>:
   1c1d4:	fe010113          	add	sp,sp,-32
   1c1d8:	00912a23          	sw	s1,20(sp)
   1c1dc:	01052483          	lw	s1,16(a0)
   1c1e0:	00812c23          	sw	s0,24(sp)
   1c1e4:	01450413          	add	s0,a0,20
   1c1e8:	00249493          	sll	s1,s1,0x2
   1c1ec:	009404b3          	add	s1,s0,s1
   1c1f0:	01212823          	sw	s2,16(sp)
   1c1f4:	ffc4a903          	lw	s2,-4(s1)
   1c1f8:	01312623          	sw	s3,12(sp)
   1c1fc:	01412423          	sw	s4,8(sp)
   1c200:	00090513          	mv	a0,s2
   1c204:	00058993          	mv	s3,a1
   1c208:	00112e23          	sw	ra,28(sp)
   1c20c:	cf8ff0ef          	jal	1b704 <__hi0bits>
   1c210:	02000713          	li	a4,32
   1c214:	40a707b3          	sub	a5,a4,a0
   1c218:	00f9a023          	sw	a5,0(s3)
   1c21c:	00a00793          	li	a5,10
   1c220:	ffc48a13          	add	s4,s1,-4
   1c224:	08a7dc63          	bge	a5,a0,1c2bc <__b2d+0xe8>
   1c228:	ff550613          	add	a2,a0,-11
   1c22c:	05447063          	bgeu	s0,s4,1c26c <__b2d+0x98>
   1c230:	ff84a783          	lw	a5,-8(s1)
   1c234:	04060c63          	beqz	a2,1c28c <__b2d+0xb8>
   1c238:	40c706b3          	sub	a3,a4,a2
   1c23c:	00d7d733          	srl	a4,a5,a3
   1c240:	00c91933          	sll	s2,s2,a2
   1c244:	00e96933          	or	s2,s2,a4
   1c248:	ff848593          	add	a1,s1,-8
   1c24c:	3ff00737          	lui	a4,0x3ff00
   1c250:	00e96733          	or	a4,s2,a4
   1c254:	00c797b3          	sll	a5,a5,a2
   1c258:	02b47e63          	bgeu	s0,a1,1c294 <__b2d+0xc0>
   1c25c:	ff44a603          	lw	a2,-12(s1)
   1c260:	00d656b3          	srl	a3,a2,a3
   1c264:	00d7e7b3          	or	a5,a5,a3
   1c268:	02c0006f          	j	1c294 <__b2d+0xc0>
   1c26c:	00b00793          	li	a5,11
   1c270:	00f50c63          	beq	a0,a5,1c288 <__b2d+0xb4>
   1c274:	00c91933          	sll	s2,s2,a2
   1c278:	3ff00737          	lui	a4,0x3ff00
   1c27c:	00e96733          	or	a4,s2,a4
   1c280:	00000793          	li	a5,0
   1c284:	0100006f          	j	1c294 <__b2d+0xc0>
   1c288:	00000793          	li	a5,0
   1c28c:	3ff00737          	lui	a4,0x3ff00
   1c290:	00e96733          	or	a4,s2,a4
   1c294:	01c12083          	lw	ra,28(sp)
   1c298:	01812403          	lw	s0,24(sp)
   1c29c:	01412483          	lw	s1,20(sp)
   1c2a0:	01012903          	lw	s2,16(sp)
   1c2a4:	00c12983          	lw	s3,12(sp)
   1c2a8:	00812a03          	lw	s4,8(sp)
   1c2ac:	00078513          	mv	a0,a5
   1c2b0:	00070593          	mv	a1,a4
   1c2b4:	02010113          	add	sp,sp,32
   1c2b8:	00008067          	ret
   1c2bc:	00b00693          	li	a3,11
   1c2c0:	40a686b3          	sub	a3,a3,a0
   1c2c4:	3ff007b7          	lui	a5,0x3ff00
   1c2c8:	00d95733          	srl	a4,s2,a3
   1c2cc:	00f76733          	or	a4,a4,a5
   1c2d0:	00000793          	li	a5,0
   1c2d4:	01447663          	bgeu	s0,s4,1c2e0 <__b2d+0x10c>
   1c2d8:	ff84a783          	lw	a5,-8(s1)
   1c2dc:	00d7d7b3          	srl	a5,a5,a3
   1c2e0:	01550513          	add	a0,a0,21
   1c2e4:	00a91933          	sll	s2,s2,a0
   1c2e8:	00f967b3          	or	a5,s2,a5
   1c2ec:	fa9ff06f          	j	1c294 <__b2d+0xc0>

0001c2f0 <__d2b>:
   1c2f0:	fd010113          	add	sp,sp,-48
   1c2f4:	01512a23          	sw	s5,20(sp)
   1c2f8:	00058a93          	mv	s5,a1
   1c2fc:	00100593          	li	a1,1
   1c300:	02912223          	sw	s1,36(sp)
   1c304:	01312e23          	sw	s3,28(sp)
   1c308:	01412c23          	sw	s4,24(sp)
   1c30c:	02112623          	sw	ra,44(sp)
   1c310:	02812423          	sw	s0,40(sp)
   1c314:	03212023          	sw	s2,32(sp)
   1c318:	00060493          	mv	s1,a2
   1c31c:	00068a13          	mv	s4,a3
   1c320:	00070993          	mv	s3,a4
   1c324:	848ff0ef          	jal	1b36c <_Balloc>
   1c328:	10050263          	beqz	a0,1c42c <__d2b+0x13c>
   1c32c:	00100737          	lui	a4,0x100
   1c330:	0144d913          	srl	s2,s1,0x14
   1c334:	fff70793          	add	a5,a4,-1 # fffff <__BSS_END__+0xdb0ef>
   1c338:	7ff97913          	and	s2,s2,2047
   1c33c:	00050413          	mv	s0,a0
   1c340:	0097f7b3          	and	a5,a5,s1
   1c344:	00090463          	beqz	s2,1c34c <__d2b+0x5c>
   1c348:	00e7e7b3          	or	a5,a5,a4
   1c34c:	00f12623          	sw	a5,12(sp)
   1c350:	060a9263          	bnez	s5,1c3b4 <__d2b+0xc4>
   1c354:	00c10513          	add	a0,sp,12
   1c358:	c24ff0ef          	jal	1b77c <__lo0bits>
   1c35c:	00c12703          	lw	a4,12(sp)
   1c360:	00100493          	li	s1,1
   1c364:	00942823          	sw	s1,16(s0)
   1c368:	00e42a23          	sw	a4,20(s0)
   1c36c:	02050793          	add	a5,a0,32
   1c370:	08090863          	beqz	s2,1c400 <__d2b+0x110>
   1c374:	bcd90913          	add	s2,s2,-1075
   1c378:	00f90933          	add	s2,s2,a5
   1c37c:	03500493          	li	s1,53
   1c380:	012a2023          	sw	s2,0(s4)
   1c384:	40f48533          	sub	a0,s1,a5
   1c388:	00a9a023          	sw	a0,0(s3)
   1c38c:	02c12083          	lw	ra,44(sp)
   1c390:	00040513          	mv	a0,s0
   1c394:	02812403          	lw	s0,40(sp)
   1c398:	02412483          	lw	s1,36(sp)
   1c39c:	02012903          	lw	s2,32(sp)
   1c3a0:	01c12983          	lw	s3,28(sp)
   1c3a4:	01812a03          	lw	s4,24(sp)
   1c3a8:	01412a83          	lw	s5,20(sp)
   1c3ac:	03010113          	add	sp,sp,48
   1c3b0:	00008067          	ret
   1c3b4:	00810513          	add	a0,sp,8
   1c3b8:	01512423          	sw	s5,8(sp)
   1c3bc:	bc0ff0ef          	jal	1b77c <__lo0bits>
   1c3c0:	00c12703          	lw	a4,12(sp)
   1c3c4:	00050793          	mv	a5,a0
   1c3c8:	04050e63          	beqz	a0,1c424 <__d2b+0x134>
   1c3cc:	00812603          	lw	a2,8(sp)
   1c3d0:	02000693          	li	a3,32
   1c3d4:	40a686b3          	sub	a3,a3,a0
   1c3d8:	00d716b3          	sll	a3,a4,a3
   1c3dc:	00a75733          	srl	a4,a4,a0
   1c3e0:	00c6e6b3          	or	a3,a3,a2
   1c3e4:	00e12623          	sw	a4,12(sp)
   1c3e8:	00e034b3          	snez	s1,a4
   1c3ec:	00148493          	add	s1,s1,1
   1c3f0:	00d42a23          	sw	a3,20(s0)
   1c3f4:	00e42c23          	sw	a4,24(s0)
   1c3f8:	00942823          	sw	s1,16(s0)
   1c3fc:	f6091ce3          	bnez	s2,1c374 <__d2b+0x84>
   1c400:	00249713          	sll	a4,s1,0x2
   1c404:	00e40733          	add	a4,s0,a4
   1c408:	01072503          	lw	a0,16(a4)
   1c40c:	bce78793          	add	a5,a5,-1074 # 3feffbce <__BSS_END__+0x3fedacbe>
   1c410:	00fa2023          	sw	a5,0(s4)
   1c414:	af0ff0ef          	jal	1b704 <__hi0bits>
   1c418:	00549493          	sll	s1,s1,0x5
   1c41c:	40a48533          	sub	a0,s1,a0
   1c420:	f69ff06f          	j	1c388 <__d2b+0x98>
   1c424:	00812683          	lw	a3,8(sp)
   1c428:	fc1ff06f          	j	1c3e8 <__d2b+0xf8>
   1c42c:	00006697          	auipc	a3,0x6
   1c430:	fa868693          	add	a3,a3,-88 # 223d4 <__clzsi2+0x230>
   1c434:	00000613          	li	a2,0
   1c438:	30f00593          	li	a1,783
   1c43c:	00006517          	auipc	a0,0x6
   1c440:	02c50513          	add	a0,a0,44 # 22468 <__clzsi2+0x2c4>
   1c444:	730010ef          	jal	1db74 <__assert_func>

0001c448 <__ratio>:
   1c448:	fd010113          	add	sp,sp,-48
   1c44c:	03212023          	sw	s2,32(sp)
   1c450:	00058913          	mv	s2,a1
   1c454:	00810593          	add	a1,sp,8
   1c458:	02112623          	sw	ra,44(sp)
   1c45c:	02812423          	sw	s0,40(sp)
   1c460:	02912223          	sw	s1,36(sp)
   1c464:	01312e23          	sw	s3,28(sp)
   1c468:	00050993          	mv	s3,a0
   1c46c:	d69ff0ef          	jal	1c1d4 <__b2d>
   1c470:	00050493          	mv	s1,a0
   1c474:	00058413          	mv	s0,a1
   1c478:	00090513          	mv	a0,s2
   1c47c:	00c10593          	add	a1,sp,12
   1c480:	d55ff0ef          	jal	1c1d4 <__b2d>
   1c484:	01092703          	lw	a4,16(s2)
   1c488:	0109a783          	lw	a5,16(s3)
   1c48c:	00c12683          	lw	a3,12(sp)
   1c490:	40e787b3          	sub	a5,a5,a4
   1c494:	00812703          	lw	a4,8(sp)
   1c498:	00579793          	sll	a5,a5,0x5
   1c49c:	40d70733          	sub	a4,a4,a3
   1c4a0:	00e787b3          	add	a5,a5,a4
   1c4a4:	00050713          	mv	a4,a0
   1c4a8:	02f05e63          	blez	a5,1c4e4 <__ratio+0x9c>
   1c4ac:	01479793          	sll	a5,a5,0x14
   1c4b0:	00878433          	add	s0,a5,s0
   1c4b4:	00058693          	mv	a3,a1
   1c4b8:	00048513          	mv	a0,s1
   1c4bc:	00040593          	mv	a1,s0
   1c4c0:	00070613          	mv	a2,a4
   1c4c4:	201030ef          	jal	1fec4 <__divdf3>
   1c4c8:	02c12083          	lw	ra,44(sp)
   1c4cc:	02812403          	lw	s0,40(sp)
   1c4d0:	02412483          	lw	s1,36(sp)
   1c4d4:	02012903          	lw	s2,32(sp)
   1c4d8:	01c12983          	lw	s3,28(sp)
   1c4dc:	03010113          	add	sp,sp,48
   1c4e0:	00008067          	ret
   1c4e4:	01479793          	sll	a5,a5,0x14
   1c4e8:	40f585b3          	sub	a1,a1,a5
   1c4ec:	fc9ff06f          	j	1c4b4 <__ratio+0x6c>

0001c4f0 <_mprec_log10>:
   1c4f0:	ff010113          	add	sp,sp,-16
   1c4f4:	01212023          	sw	s2,0(sp)
   1c4f8:	00112623          	sw	ra,12(sp)
   1c4fc:	01700793          	li	a5,23
   1c500:	00050913          	mv	s2,a0
   1c504:	06a7d263          	bge	a5,a0,1c568 <_mprec_log10+0x78>
   1c508:	00008717          	auipc	a4,0x8
   1c50c:	3d870713          	add	a4,a4,984 # 248e0 <__SDATA_BEGIN__+0x48>
   1c510:	00072783          	lw	a5,0(a4)
   1c514:	00472583          	lw	a1,4(a4)
   1c518:	00008717          	auipc	a4,0x8
   1c51c:	3d070713          	add	a4,a4,976 # 248e8 <__SDATA_BEGIN__+0x50>
   1c520:	00812423          	sw	s0,8(sp)
   1c524:	00912223          	sw	s1,4(sp)
   1c528:	00072403          	lw	s0,0(a4)
   1c52c:	00472483          	lw	s1,4(a4)
   1c530:	00078513          	mv	a0,a5
   1c534:	00040613          	mv	a2,s0
   1c538:	00048693          	mv	a3,s1
   1c53c:	4c8040ef          	jal	20a04 <__muldf3>
   1c540:	fff90913          	add	s2,s2,-1
   1c544:	00050793          	mv	a5,a0
   1c548:	fe0914e3          	bnez	s2,1c530 <_mprec_log10+0x40>
   1c54c:	00812403          	lw	s0,8(sp)
   1c550:	00c12083          	lw	ra,12(sp)
   1c554:	00412483          	lw	s1,4(sp)
   1c558:	00012903          	lw	s2,0(sp)
   1c55c:	00078513          	mv	a0,a5
   1c560:	01010113          	add	sp,sp,16
   1c564:	00008067          	ret
   1c568:	00351913          	sll	s2,a0,0x3
   1c56c:	00006717          	auipc	a4,0x6
   1c570:	78c70713          	add	a4,a4,1932 # 22cf8 <__mprec_tens>
   1c574:	01270733          	add	a4,a4,s2
   1c578:	00072783          	lw	a5,0(a4)
   1c57c:	00c12083          	lw	ra,12(sp)
   1c580:	00472583          	lw	a1,4(a4)
   1c584:	00012903          	lw	s2,0(sp)
   1c588:	00078513          	mv	a0,a5
   1c58c:	01010113          	add	sp,sp,16
   1c590:	00008067          	ret

0001c594 <__copybits>:
   1c594:	01062683          	lw	a3,16(a2)
   1c598:	fff58593          	add	a1,a1,-1
   1c59c:	4055d593          	sra	a1,a1,0x5
   1c5a0:	00158593          	add	a1,a1,1
   1c5a4:	01460793          	add	a5,a2,20
   1c5a8:	00269693          	sll	a3,a3,0x2
   1c5ac:	00259593          	sll	a1,a1,0x2
   1c5b0:	00d786b3          	add	a3,a5,a3
   1c5b4:	00b505b3          	add	a1,a0,a1
   1c5b8:	02d7f863          	bgeu	a5,a3,1c5e8 <__copybits+0x54>
   1c5bc:	00050713          	mv	a4,a0
   1c5c0:	0007a803          	lw	a6,0(a5)
   1c5c4:	00478793          	add	a5,a5,4
   1c5c8:	00470713          	add	a4,a4,4
   1c5cc:	ff072e23          	sw	a6,-4(a4)
   1c5d0:	fed7e8e3          	bltu	a5,a3,1c5c0 <__copybits+0x2c>
   1c5d4:	40c687b3          	sub	a5,a3,a2
   1c5d8:	feb78793          	add	a5,a5,-21
   1c5dc:	ffc7f793          	and	a5,a5,-4
   1c5e0:	00478793          	add	a5,a5,4
   1c5e4:	00f50533          	add	a0,a0,a5
   1c5e8:	00b57863          	bgeu	a0,a1,1c5f8 <__copybits+0x64>
   1c5ec:	00450513          	add	a0,a0,4
   1c5f0:	fe052e23          	sw	zero,-4(a0)
   1c5f4:	feb56ce3          	bltu	a0,a1,1c5ec <__copybits+0x58>
   1c5f8:	00008067          	ret

0001c5fc <__any_on>:
   1c5fc:	01052703          	lw	a4,16(a0)
   1c600:	4055d613          	sra	a2,a1,0x5
   1c604:	01450693          	add	a3,a0,20
   1c608:	02c75263          	bge	a4,a2,1c62c <__any_on+0x30>
   1c60c:	00271713          	sll	a4,a4,0x2
   1c610:	00e687b3          	add	a5,a3,a4
   1c614:	04f6f263          	bgeu	a3,a5,1c658 <__any_on+0x5c>
   1c618:	ffc7a703          	lw	a4,-4(a5)
   1c61c:	ffc78793          	add	a5,a5,-4
   1c620:	fe070ae3          	beqz	a4,1c614 <__any_on+0x18>
   1c624:	00100513          	li	a0,1
   1c628:	00008067          	ret
   1c62c:	00261793          	sll	a5,a2,0x2
   1c630:	00f687b3          	add	a5,a3,a5
   1c634:	fee650e3          	bge	a2,a4,1c614 <__any_on+0x18>
   1c638:	01f5f593          	and	a1,a1,31
   1c63c:	fc058ce3          	beqz	a1,1c614 <__any_on+0x18>
   1c640:	0007a603          	lw	a2,0(a5)
   1c644:	00100513          	li	a0,1
   1c648:	00b65733          	srl	a4,a2,a1
   1c64c:	00b71733          	sll	a4,a4,a1
   1c650:	fce602e3          	beq	a2,a4,1c614 <__any_on+0x18>
   1c654:	00008067          	ret
   1c658:	00000513          	li	a0,0
   1c65c:	00008067          	ret

0001c660 <_realloc_r>:
   1c660:	fd010113          	add	sp,sp,-48
   1c664:	02912223          	sw	s1,36(sp)
   1c668:	02112623          	sw	ra,44(sp)
   1c66c:	00060493          	mv	s1,a2
   1c670:	1e058863          	beqz	a1,1c860 <_realloc_r+0x200>
   1c674:	02812423          	sw	s0,40(sp)
   1c678:	03212023          	sw	s2,32(sp)
   1c67c:	00058413          	mv	s0,a1
   1c680:	01312e23          	sw	s3,28(sp)
   1c684:	01512a23          	sw	s5,20(sp)
   1c688:	01412c23          	sw	s4,24(sp)
   1c68c:	00050913          	mv	s2,a0
   1c690:	e29f50ef          	jal	124b8 <__malloc_lock>
   1c694:	ffc42703          	lw	a4,-4(s0)
   1c698:	00b48793          	add	a5,s1,11
   1c69c:	01600693          	li	a3,22
   1c6a0:	ff840a93          	add	s5,s0,-8
   1c6a4:	ffc77993          	and	s3,a4,-4
   1c6a8:	10f6f263          	bgeu	a3,a5,1c7ac <_realloc_r+0x14c>
   1c6ac:	ff87fa13          	and	s4,a5,-8
   1c6b0:	1007c263          	bltz	a5,1c7b4 <_realloc_r+0x154>
   1c6b4:	109a6063          	bltu	s4,s1,1c7b4 <_realloc_r+0x154>
   1c6b8:	1349d263          	bge	s3,s4,1c7dc <_realloc_r+0x17c>
   1c6bc:	01812423          	sw	s8,8(sp)
   1c6c0:	00008c17          	auipc	s8,0x8
   1c6c4:	c40c0c13          	add	s8,s8,-960 # 24300 <__malloc_av_>
   1c6c8:	008c2603          	lw	a2,8(s8)
   1c6cc:	013a86b3          	add	a3,s5,s3
   1c6d0:	0046a783          	lw	a5,4(a3)
   1c6d4:	1cd60863          	beq	a2,a3,1c8a4 <_realloc_r+0x244>
   1c6d8:	ffe7f613          	and	a2,a5,-2
   1c6dc:	00c68633          	add	a2,a3,a2
   1c6e0:	00462603          	lw	a2,4(a2)
   1c6e4:	00167613          	and	a2,a2,1
   1c6e8:	14061a63          	bnez	a2,1c83c <_realloc_r+0x1dc>
   1c6ec:	ffc7f793          	and	a5,a5,-4
   1c6f0:	00f98633          	add	a2,s3,a5
   1c6f4:	0d465863          	bge	a2,s4,1c7c4 <_realloc_r+0x164>
   1c6f8:	00177713          	and	a4,a4,1
   1c6fc:	02071c63          	bnez	a4,1c734 <_realloc_r+0xd4>
   1c700:	01712623          	sw	s7,12(sp)
   1c704:	ff842b83          	lw	s7,-8(s0)
   1c708:	01612823          	sw	s6,16(sp)
   1c70c:	417a8bb3          	sub	s7,s5,s7
   1c710:	004ba703          	lw	a4,4(s7)
   1c714:	ffc77713          	and	a4,a4,-4
   1c718:	00e787b3          	add	a5,a5,a4
   1c71c:	01378b33          	add	s6,a5,s3
   1c720:	334b5c63          	bge	s6,s4,1ca58 <_realloc_r+0x3f8>
   1c724:	00e98b33          	add	s6,s3,a4
   1c728:	294b5863          	bge	s6,s4,1c9b8 <_realloc_r+0x358>
   1c72c:	01012b03          	lw	s6,16(sp)
   1c730:	00c12b83          	lw	s7,12(sp)
   1c734:	00048593          	mv	a1,s1
   1c738:	00090513          	mv	a0,s2
   1c73c:	db4f50ef          	jal	11cf0 <_malloc_r>
   1c740:	00050493          	mv	s1,a0
   1c744:	40050863          	beqz	a0,1cb54 <_realloc_r+0x4f4>
   1c748:	ffc42783          	lw	a5,-4(s0)
   1c74c:	ff850713          	add	a4,a0,-8
   1c750:	ffe7f793          	and	a5,a5,-2
   1c754:	00fa87b3          	add	a5,s5,a5
   1c758:	24e78663          	beq	a5,a4,1c9a4 <_realloc_r+0x344>
   1c75c:	ffc98613          	add	a2,s3,-4
   1c760:	02400793          	li	a5,36
   1c764:	2ec7e463          	bltu	a5,a2,1ca4c <_realloc_r+0x3ec>
   1c768:	01300713          	li	a4,19
   1c76c:	20c76a63          	bltu	a4,a2,1c980 <_realloc_r+0x320>
   1c770:	00050793          	mv	a5,a0
   1c774:	00040713          	mv	a4,s0
   1c778:	00072683          	lw	a3,0(a4)
   1c77c:	00d7a023          	sw	a3,0(a5)
   1c780:	00472683          	lw	a3,4(a4)
   1c784:	00d7a223          	sw	a3,4(a5)
   1c788:	00872703          	lw	a4,8(a4)
   1c78c:	00e7a423          	sw	a4,8(a5)
   1c790:	00040593          	mv	a1,s0
   1c794:	00090513          	mv	a0,s2
   1c798:	a54f50ef          	jal	119ec <_free_r>
   1c79c:	00090513          	mv	a0,s2
   1c7a0:	d21f50ef          	jal	124c0 <__malloc_unlock>
   1c7a4:	00812c03          	lw	s8,8(sp)
   1c7a8:	06c0006f          	j	1c814 <_realloc_r+0x1b4>
   1c7ac:	01000a13          	li	s4,16
   1c7b0:	f09a74e3          	bgeu	s4,s1,1c6b8 <_realloc_r+0x58>
   1c7b4:	00c00793          	li	a5,12
   1c7b8:	00f92023          	sw	a5,0(s2)
   1c7bc:	00000493          	li	s1,0
   1c7c0:	0540006f          	j	1c814 <_realloc_r+0x1b4>
   1c7c4:	00c6a783          	lw	a5,12(a3)
   1c7c8:	0086a703          	lw	a4,8(a3)
   1c7cc:	00812c03          	lw	s8,8(sp)
   1c7d0:	00060993          	mv	s3,a2
   1c7d4:	00f72623          	sw	a5,12(a4)
   1c7d8:	00e7a423          	sw	a4,8(a5)
   1c7dc:	004aa783          	lw	a5,4(s5)
   1c7e0:	414986b3          	sub	a3,s3,s4
   1c7e4:	00f00613          	li	a2,15
   1c7e8:	0017f793          	and	a5,a5,1
   1c7ec:	013a8733          	add	a4,s5,s3
   1c7f0:	08d66263          	bltu	a2,a3,1c874 <_realloc_r+0x214>
   1c7f4:	0137e7b3          	or	a5,a5,s3
   1c7f8:	00faa223          	sw	a5,4(s5)
   1c7fc:	00472783          	lw	a5,4(a4)
   1c800:	0017e793          	or	a5,a5,1
   1c804:	00f72223          	sw	a5,4(a4)
   1c808:	00090513          	mv	a0,s2
   1c80c:	cb5f50ef          	jal	124c0 <__malloc_unlock>
   1c810:	00040493          	mv	s1,s0
   1c814:	02812403          	lw	s0,40(sp)
   1c818:	02c12083          	lw	ra,44(sp)
   1c81c:	02012903          	lw	s2,32(sp)
   1c820:	01c12983          	lw	s3,28(sp)
   1c824:	01812a03          	lw	s4,24(sp)
   1c828:	01412a83          	lw	s5,20(sp)
   1c82c:	00048513          	mv	a0,s1
   1c830:	02412483          	lw	s1,36(sp)
   1c834:	03010113          	add	sp,sp,48
   1c838:	00008067          	ret
   1c83c:	00177713          	and	a4,a4,1
   1c840:	ee071ae3          	bnez	a4,1c734 <_realloc_r+0xd4>
   1c844:	01712623          	sw	s7,12(sp)
   1c848:	ff842b83          	lw	s7,-8(s0)
   1c84c:	01612823          	sw	s6,16(sp)
   1c850:	417a8bb3          	sub	s7,s5,s7
   1c854:	004ba703          	lw	a4,4(s7)
   1c858:	ffc77713          	and	a4,a4,-4
   1c85c:	ec9ff06f          	j	1c724 <_realloc_r+0xc4>
   1c860:	02c12083          	lw	ra,44(sp)
   1c864:	02412483          	lw	s1,36(sp)
   1c868:	00060593          	mv	a1,a2
   1c86c:	03010113          	add	sp,sp,48
   1c870:	c80f506f          	j	11cf0 <_malloc_r>
   1c874:	0147e7b3          	or	a5,a5,s4
   1c878:	00faa223          	sw	a5,4(s5)
   1c87c:	014a85b3          	add	a1,s5,s4
   1c880:	0016e693          	or	a3,a3,1
   1c884:	00d5a223          	sw	a3,4(a1)
   1c888:	00472783          	lw	a5,4(a4)
   1c88c:	00858593          	add	a1,a1,8
   1c890:	00090513          	mv	a0,s2
   1c894:	0017e793          	or	a5,a5,1
   1c898:	00f72223          	sw	a5,4(a4)
   1c89c:	950f50ef          	jal	119ec <_free_r>
   1c8a0:	f69ff06f          	j	1c808 <_realloc_r+0x1a8>
   1c8a4:	ffc7f793          	and	a5,a5,-4
   1c8a8:	013786b3          	add	a3,a5,s3
   1c8ac:	010a0613          	add	a2,s4,16
   1c8b0:	26c6d063          	bge	a3,a2,1cb10 <_realloc_r+0x4b0>
   1c8b4:	00177713          	and	a4,a4,1
   1c8b8:	e6071ee3          	bnez	a4,1c734 <_realloc_r+0xd4>
   1c8bc:	01712623          	sw	s7,12(sp)
   1c8c0:	ff842b83          	lw	s7,-8(s0)
   1c8c4:	01612823          	sw	s6,16(sp)
   1c8c8:	417a8bb3          	sub	s7,s5,s7
   1c8cc:	004ba703          	lw	a4,4(s7)
   1c8d0:	ffc77713          	and	a4,a4,-4
   1c8d4:	00e787b3          	add	a5,a5,a4
   1c8d8:	01378b33          	add	s6,a5,s3
   1c8dc:	e4cb44e3          	blt	s6,a2,1c724 <_realloc_r+0xc4>
   1c8e0:	00cba783          	lw	a5,12(s7)
   1c8e4:	008ba703          	lw	a4,8(s7)
   1c8e8:	ffc98613          	add	a2,s3,-4
   1c8ec:	02400693          	li	a3,36
   1c8f0:	00f72623          	sw	a5,12(a4)
   1c8f4:	00e7a423          	sw	a4,8(a5)
   1c8f8:	008b8493          	add	s1,s7,8
   1c8fc:	28c6e463          	bltu	a3,a2,1cb84 <_realloc_r+0x524>
   1c900:	01300713          	li	a4,19
   1c904:	00048793          	mv	a5,s1
   1c908:	02c77263          	bgeu	a4,a2,1c92c <_realloc_r+0x2cc>
   1c90c:	00042703          	lw	a4,0(s0)
   1c910:	01b00793          	li	a5,27
   1c914:	00eba423          	sw	a4,8(s7)
   1c918:	00442703          	lw	a4,4(s0)
   1c91c:	00eba623          	sw	a4,12(s7)
   1c920:	26c7ea63          	bltu	a5,a2,1cb94 <_realloc_r+0x534>
   1c924:	00840413          	add	s0,s0,8
   1c928:	010b8793          	add	a5,s7,16
   1c92c:	00042703          	lw	a4,0(s0)
   1c930:	00e7a023          	sw	a4,0(a5)
   1c934:	00442703          	lw	a4,4(s0)
   1c938:	00e7a223          	sw	a4,4(a5)
   1c93c:	00842703          	lw	a4,8(s0)
   1c940:	00e7a423          	sw	a4,8(a5)
   1c944:	014b8733          	add	a4,s7,s4
   1c948:	414b07b3          	sub	a5,s6,s4
   1c94c:	00ec2423          	sw	a4,8(s8)
   1c950:	0017e793          	or	a5,a5,1
   1c954:	00f72223          	sw	a5,4(a4)
   1c958:	004ba783          	lw	a5,4(s7)
   1c95c:	00090513          	mv	a0,s2
   1c960:	0017f793          	and	a5,a5,1
   1c964:	0147e7b3          	or	a5,a5,s4
   1c968:	00fba223          	sw	a5,4(s7)
   1c96c:	b55f50ef          	jal	124c0 <__malloc_unlock>
   1c970:	01012b03          	lw	s6,16(sp)
   1c974:	00c12b83          	lw	s7,12(sp)
   1c978:	00812c03          	lw	s8,8(sp)
   1c97c:	e99ff06f          	j	1c814 <_realloc_r+0x1b4>
   1c980:	00042683          	lw	a3,0(s0)
   1c984:	01b00713          	li	a4,27
   1c988:	00d52023          	sw	a3,0(a0)
   1c98c:	00442683          	lw	a3,4(s0)
   1c990:	00d52223          	sw	a3,4(a0)
   1c994:	14c76e63          	bltu	a4,a2,1caf0 <_realloc_r+0x490>
   1c998:	00840713          	add	a4,s0,8
   1c99c:	00850793          	add	a5,a0,8
   1c9a0:	dd9ff06f          	j	1c778 <_realloc_r+0x118>
   1c9a4:	ffc52783          	lw	a5,-4(a0)
   1c9a8:	00812c03          	lw	s8,8(sp)
   1c9ac:	ffc7f793          	and	a5,a5,-4
   1c9b0:	00f989b3          	add	s3,s3,a5
   1c9b4:	e29ff06f          	j	1c7dc <_realloc_r+0x17c>
   1c9b8:	00cba783          	lw	a5,12(s7)
   1c9bc:	008ba703          	lw	a4,8(s7)
   1c9c0:	ffc98613          	add	a2,s3,-4
   1c9c4:	02400693          	li	a3,36
   1c9c8:	00f72623          	sw	a5,12(a4)
   1c9cc:	00e7a423          	sw	a4,8(a5)
   1c9d0:	008b8493          	add	s1,s7,8
   1c9d4:	10c6e663          	bltu	a3,a2,1cae0 <_realloc_r+0x480>
   1c9d8:	01300713          	li	a4,19
   1c9dc:	00048793          	mv	a5,s1
   1c9e0:	02c77c63          	bgeu	a4,a2,1ca18 <_realloc_r+0x3b8>
   1c9e4:	00042703          	lw	a4,0(s0)
   1c9e8:	01b00793          	li	a5,27
   1c9ec:	00eba423          	sw	a4,8(s7)
   1c9f0:	00442703          	lw	a4,4(s0)
   1c9f4:	00eba623          	sw	a4,12(s7)
   1c9f8:	14c7f863          	bgeu	a5,a2,1cb48 <_realloc_r+0x4e8>
   1c9fc:	00842783          	lw	a5,8(s0)
   1ca00:	00fba823          	sw	a5,16(s7)
   1ca04:	00c42783          	lw	a5,12(s0)
   1ca08:	00fbaa23          	sw	a5,20(s7)
   1ca0c:	0ad60c63          	beq	a2,a3,1cac4 <_realloc_r+0x464>
   1ca10:	01040413          	add	s0,s0,16
   1ca14:	018b8793          	add	a5,s7,24
   1ca18:	00042703          	lw	a4,0(s0)
   1ca1c:	00e7a023          	sw	a4,0(a5)
   1ca20:	00442703          	lw	a4,4(s0)
   1ca24:	00e7a223          	sw	a4,4(a5)
   1ca28:	00842703          	lw	a4,8(s0)
   1ca2c:	00e7a423          	sw	a4,8(a5)
   1ca30:	000b0993          	mv	s3,s6
   1ca34:	000b8a93          	mv	s5,s7
   1ca38:	01012b03          	lw	s6,16(sp)
   1ca3c:	00c12b83          	lw	s7,12(sp)
   1ca40:	00812c03          	lw	s8,8(sp)
   1ca44:	00048413          	mv	s0,s1
   1ca48:	d95ff06f          	j	1c7dc <_realloc_r+0x17c>
   1ca4c:	00040593          	mv	a1,s0
   1ca50:	804fc0ef          	jal	18a54 <memmove>
   1ca54:	d3dff06f          	j	1c790 <_realloc_r+0x130>
   1ca58:	00c6a783          	lw	a5,12(a3)
   1ca5c:	0086a703          	lw	a4,8(a3)
   1ca60:	ffc98613          	add	a2,s3,-4
   1ca64:	02400693          	li	a3,36
   1ca68:	00f72623          	sw	a5,12(a4)
   1ca6c:	00e7a423          	sw	a4,8(a5)
   1ca70:	008ba703          	lw	a4,8(s7)
   1ca74:	00cba783          	lw	a5,12(s7)
   1ca78:	008b8493          	add	s1,s7,8
   1ca7c:	00f72623          	sw	a5,12(a4)
   1ca80:	00e7a423          	sw	a4,8(a5)
   1ca84:	04c6ee63          	bltu	a3,a2,1cae0 <_realloc_r+0x480>
   1ca88:	01300713          	li	a4,19
   1ca8c:	00048793          	mv	a5,s1
   1ca90:	f8c774e3          	bgeu	a4,a2,1ca18 <_realloc_r+0x3b8>
   1ca94:	00042703          	lw	a4,0(s0)
   1ca98:	01b00793          	li	a5,27
   1ca9c:	00eba423          	sw	a4,8(s7)
   1caa0:	00442703          	lw	a4,4(s0)
   1caa4:	00eba623          	sw	a4,12(s7)
   1caa8:	0ac7f063          	bgeu	a5,a2,1cb48 <_realloc_r+0x4e8>
   1caac:	00842703          	lw	a4,8(s0)
   1cab0:	02400793          	li	a5,36
   1cab4:	00eba823          	sw	a4,16(s7)
   1cab8:	00c42703          	lw	a4,12(s0)
   1cabc:	00ebaa23          	sw	a4,20(s7)
   1cac0:	f4f618e3          	bne	a2,a5,1ca10 <_realloc_r+0x3b0>
   1cac4:	01042703          	lw	a4,16(s0)
   1cac8:	020b8793          	add	a5,s7,32
   1cacc:	01840413          	add	s0,s0,24
   1cad0:	00ebac23          	sw	a4,24(s7)
   1cad4:	ffc42703          	lw	a4,-4(s0)
   1cad8:	00ebae23          	sw	a4,28(s7)
   1cadc:	f3dff06f          	j	1ca18 <_realloc_r+0x3b8>
   1cae0:	00040593          	mv	a1,s0
   1cae4:	00048513          	mv	a0,s1
   1cae8:	f6dfb0ef          	jal	18a54 <memmove>
   1caec:	f45ff06f          	j	1ca30 <_realloc_r+0x3d0>
   1caf0:	00842703          	lw	a4,8(s0)
   1caf4:	00e52423          	sw	a4,8(a0)
   1caf8:	00c42703          	lw	a4,12(s0)
   1cafc:	00e52623          	sw	a4,12(a0)
   1cb00:	06f60463          	beq	a2,a5,1cb68 <_realloc_r+0x508>
   1cb04:	01040713          	add	a4,s0,16
   1cb08:	01050793          	add	a5,a0,16
   1cb0c:	c6dff06f          	j	1c778 <_realloc_r+0x118>
   1cb10:	014a8ab3          	add	s5,s5,s4
   1cb14:	414687b3          	sub	a5,a3,s4
   1cb18:	015c2423          	sw	s5,8(s8)
   1cb1c:	0017e793          	or	a5,a5,1
   1cb20:	00faa223          	sw	a5,4(s5)
   1cb24:	ffc42783          	lw	a5,-4(s0)
   1cb28:	00090513          	mv	a0,s2
   1cb2c:	00040493          	mv	s1,s0
   1cb30:	0017f793          	and	a5,a5,1
   1cb34:	0147e7b3          	or	a5,a5,s4
   1cb38:	fef42e23          	sw	a5,-4(s0)
   1cb3c:	985f50ef          	jal	124c0 <__malloc_unlock>
   1cb40:	00812c03          	lw	s8,8(sp)
   1cb44:	cd1ff06f          	j	1c814 <_realloc_r+0x1b4>
   1cb48:	00840413          	add	s0,s0,8
   1cb4c:	010b8793          	add	a5,s7,16
   1cb50:	ec9ff06f          	j	1ca18 <_realloc_r+0x3b8>
   1cb54:	00090513          	mv	a0,s2
   1cb58:	969f50ef          	jal	124c0 <__malloc_unlock>
   1cb5c:	00000493          	li	s1,0
   1cb60:	00812c03          	lw	s8,8(sp)
   1cb64:	cb1ff06f          	j	1c814 <_realloc_r+0x1b4>
   1cb68:	01042683          	lw	a3,16(s0)
   1cb6c:	01840713          	add	a4,s0,24
   1cb70:	01850793          	add	a5,a0,24
   1cb74:	00d52823          	sw	a3,16(a0)
   1cb78:	01442683          	lw	a3,20(s0)
   1cb7c:	00d52a23          	sw	a3,20(a0)
   1cb80:	bf9ff06f          	j	1c778 <_realloc_r+0x118>
   1cb84:	00040593          	mv	a1,s0
   1cb88:	00048513          	mv	a0,s1
   1cb8c:	ec9fb0ef          	jal	18a54 <memmove>
   1cb90:	db5ff06f          	j	1c944 <_realloc_r+0x2e4>
   1cb94:	00842783          	lw	a5,8(s0)
   1cb98:	00fba823          	sw	a5,16(s7)
   1cb9c:	00c42783          	lw	a5,12(s0)
   1cba0:	00fbaa23          	sw	a5,20(s7)
   1cba4:	00d60863          	beq	a2,a3,1cbb4 <_realloc_r+0x554>
   1cba8:	01040413          	add	s0,s0,16
   1cbac:	018b8793          	add	a5,s7,24
   1cbb0:	d7dff06f          	j	1c92c <_realloc_r+0x2cc>
   1cbb4:	01042703          	lw	a4,16(s0)
   1cbb8:	020b8793          	add	a5,s7,32
   1cbbc:	01840413          	add	s0,s0,24
   1cbc0:	00ebac23          	sw	a4,24(s7)
   1cbc4:	ffc42703          	lw	a4,-4(s0)
   1cbc8:	00ebae23          	sw	a4,28(s7)
   1cbcc:	d61ff06f          	j	1c92c <_realloc_r+0x2cc>

0001cbd0 <_strtol_l.isra.0>:
   1cbd0:	fb010113          	add	sp,sp,-80
   1cbd4:	04112623          	sw	ra,76(sp)
   1cbd8:	02400793          	li	a5,36
   1cbdc:	00a12423          	sw	a0,8(sp)
   1cbe0:	18d7ec63          	bltu	a5,a3,1cd78 <_strtol_l.isra.0+0x1a8>
   1cbe4:	04812423          	sw	s0,72(sp)
   1cbe8:	05212023          	sw	s2,64(sp)
   1cbec:	03312e23          	sw	s3,60(sp)
   1cbf0:	03412c23          	sw	s4,56(sp)
   1cbf4:	03912223          	sw	s9,36(sp)
   1cbf8:	00100793          	li	a5,1
   1cbfc:	00068c93          	mv	s9,a3
   1cc00:	00058913          	mv	s2,a1
   1cc04:	00060a13          	mv	s4,a2
   1cc08:	00068993          	mv	s3,a3
   1cc0c:	00058413          	mv	s0,a1
   1cc10:	00006717          	auipc	a4,0x6
   1cc14:	1b170713          	add	a4,a4,433 # 22dc1 <_ctype_+0x1>
   1cc18:	14f68663          	beq	a3,a5,1cd64 <_strtol_l.isra.0+0x194>
   1cc1c:	04912223          	sw	s1,68(sp)
   1cc20:	03512a23          	sw	s5,52(sp)
   1cc24:	03612823          	sw	s6,48(sp)
   1cc28:	03712623          	sw	s7,44(sp)
   1cc2c:	03812423          	sw	s8,40(sp)
   1cc30:	03a12023          	sw	s10,32(sp)
   1cc34:	01b12e23          	sw	s11,28(sp)
   1cc38:	00044483          	lbu	s1,0(s0)
   1cc3c:	00040693          	mv	a3,s0
   1cc40:	00140413          	add	s0,s0,1
   1cc44:	009707b3          	add	a5,a4,s1
   1cc48:	0007c783          	lbu	a5,0(a5)
   1cc4c:	0087f793          	and	a5,a5,8
   1cc50:	fe0794e3          	bnez	a5,1cc38 <_strtol_l.isra.0+0x68>
   1cc54:	02d00793          	li	a5,45
   1cc58:	1af48263          	beq	s1,a5,1cdfc <_strtol_l.isra.0+0x22c>
   1cc5c:	02b00793          	li	a5,43
   1cc60:	12f48a63          	beq	s1,a5,1cd94 <_strtol_l.isra.0+0x1c4>
   1cc64:	80000b37          	lui	s6,0x80000
   1cc68:	fffb0b13          	add	s6,s6,-1 # 7fffffff <__BSS_END__+0x7ffdb0ef>
   1cc6c:	00012623          	sw	zero,12(sp)
   1cc70:	120c9e63          	bnez	s9,1cdac <_strtol_l.isra.0+0x1dc>
   1cc74:	03000793          	li	a5,48
   1cc78:	1af48e63          	beq	s1,a5,1ce34 <_strtol_l.isra.0+0x264>
   1cc7c:	00a00993          	li	s3,10
   1cc80:	00a00c93          	li	s9,10
   1cc84:	00098593          	mv	a1,s3
   1cc88:	000b0513          	mv	a0,s6
   1cc8c:	4b4050ef          	jal	22140 <__umodsi3>
   1cc90:	00050b93          	mv	s7,a0
   1cc94:	00098593          	mv	a1,s3
   1cc98:	000b0513          	mv	a0,s6
   1cc9c:	45c050ef          	jal	220f8 <__hidden___udivsi3>
   1cca0:	00900d93          	li	s11,9
   1cca4:	fd048793          	add	a5,s1,-48
   1cca8:	00050d13          	mv	s10,a0
   1ccac:	00000713          	li	a4,0
   1ccb0:	00000513          	li	a0,0
   1ccb4:	01900a93          	li	s5,25
   1ccb8:	fff00c13          	li	s8,-1
   1ccbc:	02fdee63          	bltu	s11,a5,1ccf8 <_strtol_l.isra.0+0x128>
   1ccc0:	00078493          	mv	s1,a5
   1ccc4:	0594d263          	bge	s1,s9,1cd08 <_strtol_l.isra.0+0x138>
   1ccc8:	03870063          	beq	a4,s8,1cce8 <_strtol_l.isra.0+0x118>
   1cccc:	fff00713          	li	a4,-1
   1ccd0:	00ad6c63          	bltu	s10,a0,1cce8 <_strtol_l.isra.0+0x118>
   1ccd4:	12ad0063          	beq	s10,a0,1cdf4 <_strtol_l.isra.0+0x224>
   1ccd8:	00098593          	mv	a1,s3
   1ccdc:	3f0050ef          	jal	220cc <__mulsi3>
   1cce0:	00a48533          	add	a0,s1,a0
   1cce4:	00100713          	li	a4,1
   1cce8:	00044483          	lbu	s1,0(s0)
   1ccec:	00140413          	add	s0,s0,1
   1ccf0:	fd048793          	add	a5,s1,-48
   1ccf4:	fcfdf6e3          	bgeu	s11,a5,1ccc0 <_strtol_l.isra.0+0xf0>
   1ccf8:	fbf48793          	add	a5,s1,-65
   1ccfc:	0efae463          	bltu	s5,a5,1cde4 <_strtol_l.isra.0+0x214>
   1cd00:	fc948493          	add	s1,s1,-55
   1cd04:	fd94c2e3          	blt	s1,s9,1ccc8 <_strtol_l.isra.0+0xf8>
   1cd08:	fff00793          	li	a5,-1
   1cd0c:	10f70463          	beq	a4,a5,1ce14 <_strtol_l.isra.0+0x244>
   1cd10:	00c12783          	lw	a5,12(sp)
   1cd14:	00078463          	beqz	a5,1cd1c <_strtol_l.isra.0+0x14c>
   1cd18:	40a00533          	neg	a0,a0
   1cd1c:	000a0663          	beqz	s4,1cd28 <_strtol_l.isra.0+0x158>
   1cd20:	12071863          	bnez	a4,1ce50 <_strtol_l.isra.0+0x280>
   1cd24:	012a2023          	sw	s2,0(s4)
   1cd28:	04812403          	lw	s0,72(sp)
   1cd2c:	04c12083          	lw	ra,76(sp)
   1cd30:	04412483          	lw	s1,68(sp)
   1cd34:	04012903          	lw	s2,64(sp)
   1cd38:	03c12983          	lw	s3,60(sp)
   1cd3c:	03812a03          	lw	s4,56(sp)
   1cd40:	03412a83          	lw	s5,52(sp)
   1cd44:	03012b03          	lw	s6,48(sp)
   1cd48:	02c12b83          	lw	s7,44(sp)
   1cd4c:	02812c03          	lw	s8,40(sp)
   1cd50:	02412c83          	lw	s9,36(sp)
   1cd54:	02012d03          	lw	s10,32(sp)
   1cd58:	01c12d83          	lw	s11,28(sp)
   1cd5c:	05010113          	add	sp,sp,80
   1cd60:	00008067          	ret
   1cd64:	04812403          	lw	s0,72(sp)
   1cd68:	04012903          	lw	s2,64(sp)
   1cd6c:	03c12983          	lw	s3,60(sp)
   1cd70:	03812a03          	lw	s4,56(sp)
   1cd74:	02412c83          	lw	s9,36(sp)
   1cd78:	5f5000ef          	jal	1db6c <__errno>
   1cd7c:	04c12083          	lw	ra,76(sp)
   1cd80:	01600793          	li	a5,22
   1cd84:	00f52023          	sw	a5,0(a0)
   1cd88:	00000513          	li	a0,0
   1cd8c:	05010113          	add	sp,sp,80
   1cd90:	00008067          	ret
   1cd94:	80000b37          	lui	s6,0x80000
   1cd98:	00012623          	sw	zero,12(sp)
   1cd9c:	00044483          	lbu	s1,0(s0)
   1cda0:	fffb0b13          	add	s6,s6,-1 # 7fffffff <__BSS_END__+0x7ffdb0ef>
   1cda4:	00268413          	add	s0,a3,2
   1cda8:	ec0c86e3          	beqz	s9,1cc74 <_strtol_l.isra.0+0xa4>
   1cdac:	01000793          	li	a5,16
   1cdb0:	ecfc9ae3          	bne	s9,a5,1cc84 <_strtol_l.isra.0+0xb4>
   1cdb4:	03000793          	li	a5,48
   1cdb8:	01000993          	li	s3,16
   1cdbc:	ecf494e3          	bne	s1,a5,1cc84 <_strtol_l.isra.0+0xb4>
   1cdc0:	00044783          	lbu	a5,0(s0)
   1cdc4:	05800713          	li	a4,88
   1cdc8:	0df7f793          	and	a5,a5,223
   1cdcc:	eae79ce3          	bne	a5,a4,1cc84 <_strtol_l.isra.0+0xb4>
   1cdd0:	00144483          	lbu	s1,1(s0)
   1cdd4:	01000993          	li	s3,16
   1cdd8:	00240413          	add	s0,s0,2
   1cddc:	01000c93          	li	s9,16
   1cde0:	ea5ff06f          	j	1cc84 <_strtol_l.isra.0+0xb4>
   1cde4:	f9f48793          	add	a5,s1,-97
   1cde8:	f2fae0e3          	bltu	s5,a5,1cd08 <_strtol_l.isra.0+0x138>
   1cdec:	fa948493          	add	s1,s1,-87
   1cdf0:	ed5ff06f          	j	1ccc4 <_strtol_l.isra.0+0xf4>
   1cdf4:	ee9bcae3          	blt	s7,s1,1cce8 <_strtol_l.isra.0+0x118>
   1cdf8:	ee1ff06f          	j	1ccd8 <_strtol_l.isra.0+0x108>
   1cdfc:	00100793          	li	a5,1
   1ce00:	00044483          	lbu	s1,0(s0)
   1ce04:	80000b37          	lui	s6,0x80000
   1ce08:	00268413          	add	s0,a3,2
   1ce0c:	00f12623          	sw	a5,12(sp)
   1ce10:	e61ff06f          	j	1cc70 <_strtol_l.isra.0+0xa0>
   1ce14:	00812703          	lw	a4,8(sp)
   1ce18:	02200793          	li	a5,34
   1ce1c:	000b0513          	mv	a0,s6
   1ce20:	00f72023          	sw	a5,0(a4)
   1ce24:	f00a02e3          	beqz	s4,1cd28 <_strtol_l.isra.0+0x158>
   1ce28:	fff40913          	add	s2,s0,-1
   1ce2c:	000b0513          	mv	a0,s6
   1ce30:	ef5ff06f          	j	1cd24 <_strtol_l.isra.0+0x154>
   1ce34:	00044783          	lbu	a5,0(s0)
   1ce38:	05800713          	li	a4,88
   1ce3c:	00800993          	li	s3,8
   1ce40:	0df7f793          	and	a5,a5,223
   1ce44:	00800c93          	li	s9,8
   1ce48:	e2e79ee3          	bne	a5,a4,1cc84 <_strtol_l.isra.0+0xb4>
   1ce4c:	f85ff06f          	j	1cdd0 <_strtol_l.isra.0+0x200>
   1ce50:	00050b13          	mv	s6,a0
   1ce54:	fd5ff06f          	j	1ce28 <_strtol_l.isra.0+0x258>

0001ce58 <_strtol_r>:
   1ce58:	d79ff06f          	j	1cbd0 <_strtol_l.isra.0>

0001ce5c <strtol_l>:
   1ce5c:	00060693          	mv	a3,a2
   1ce60:	00058613          	mv	a2,a1
   1ce64:	00050593          	mv	a1,a0
   1ce68:	f341a503          	lw	a0,-204(gp) # 24904 <_impure_ptr>
   1ce6c:	d65ff06f          	j	1cbd0 <_strtol_l.isra.0>

0001ce70 <strtol>:
   1ce70:	00060693          	mv	a3,a2
   1ce74:	00058613          	mv	a2,a1
   1ce78:	00050593          	mv	a1,a0
   1ce7c:	f341a503          	lw	a0,-204(gp) # 24904 <_impure_ptr>
   1ce80:	d51ff06f          	j	1cbd0 <_strtol_l.isra.0>

0001ce84 <_wctomb_r>:
   1ce84:	e181a783          	lw	a5,-488(gp) # 247e8 <__global_locale+0xe0>
   1ce88:	00078067          	jr	a5

0001ce8c <__ascii_wctomb>:
   1ce8c:	02058463          	beqz	a1,1ceb4 <__ascii_wctomb+0x28>
   1ce90:	0ff00793          	li	a5,255
   1ce94:	00c7e863          	bltu	a5,a2,1cea4 <__ascii_wctomb+0x18>
   1ce98:	00c58023          	sb	a2,0(a1)
   1ce9c:	00100513          	li	a0,1
   1cea0:	00008067          	ret
   1cea4:	08a00793          	li	a5,138
   1cea8:	00f52023          	sw	a5,0(a0)
   1ceac:	fff00513          	li	a0,-1
   1ceb0:	00008067          	ret
   1ceb4:	00000513          	li	a0,0
   1ceb8:	00008067          	ret

0001cebc <__utf8_wctomb>:
   1cebc:	0a058263          	beqz	a1,1cf60 <__utf8_wctomb+0xa4>
   1cec0:	07f00793          	li	a5,127
   1cec4:	06c7f863          	bgeu	a5,a2,1cf34 <__utf8_wctomb+0x78>
   1cec8:	f8060793          	add	a5,a2,-128
   1cecc:	77f00713          	li	a4,1919
   1ced0:	06f77863          	bgeu	a4,a5,1cf40 <__utf8_wctomb+0x84>
   1ced4:	0000f7b7          	lui	a5,0xf
   1ced8:	80060713          	add	a4,a2,-2048
   1cedc:	7ff78793          	add	a5,a5,2047 # f7ff <exit-0x895>
   1cee0:	08e7f463          	bgeu	a5,a4,1cf68 <__utf8_wctomb+0xac>
   1cee4:	ffff07b7          	lui	a5,0xffff0
   1cee8:	00f607b3          	add	a5,a2,a5
   1ceec:	00100737          	lui	a4,0x100
   1cef0:	0ae7f463          	bgeu	a5,a4,1cf98 <__utf8_wctomb+0xdc>
   1cef4:	00c65713          	srl	a4,a2,0xc
   1cef8:	00665793          	srl	a5,a2,0x6
   1cefc:	01265693          	srl	a3,a2,0x12
   1cf00:	03f77713          	and	a4,a4,63
   1cf04:	03f7f793          	and	a5,a5,63
   1cf08:	03f67613          	and	a2,a2,63
   1cf0c:	ff06e693          	or	a3,a3,-16
   1cf10:	f8076713          	or	a4,a4,-128
   1cf14:	f807e793          	or	a5,a5,-128
   1cf18:	f8066613          	or	a2,a2,-128
   1cf1c:	00d58023          	sb	a3,0(a1)
   1cf20:	00e580a3          	sb	a4,1(a1)
   1cf24:	00f58123          	sb	a5,2(a1)
   1cf28:	00c581a3          	sb	a2,3(a1)
   1cf2c:	00400513          	li	a0,4
   1cf30:	00008067          	ret
   1cf34:	00c58023          	sb	a2,0(a1)
   1cf38:	00100513          	li	a0,1
   1cf3c:	00008067          	ret
   1cf40:	00665793          	srl	a5,a2,0x6
   1cf44:	03f67613          	and	a2,a2,63
   1cf48:	fc07e793          	or	a5,a5,-64
   1cf4c:	f8066613          	or	a2,a2,-128
   1cf50:	00f58023          	sb	a5,0(a1)
   1cf54:	00c580a3          	sb	a2,1(a1)
   1cf58:	00200513          	li	a0,2
   1cf5c:	00008067          	ret
   1cf60:	00000513          	li	a0,0
   1cf64:	00008067          	ret
   1cf68:	00665793          	srl	a5,a2,0x6
   1cf6c:	00c65713          	srl	a4,a2,0xc
   1cf70:	03f7f793          	and	a5,a5,63
   1cf74:	03f67613          	and	a2,a2,63
   1cf78:	fe076713          	or	a4,a4,-32
   1cf7c:	f807e793          	or	a5,a5,-128
   1cf80:	f8066613          	or	a2,a2,-128
   1cf84:	00e58023          	sb	a4,0(a1)
   1cf88:	00f580a3          	sb	a5,1(a1)
   1cf8c:	00c58123          	sb	a2,2(a1)
   1cf90:	00300513          	li	a0,3
   1cf94:	00008067          	ret
   1cf98:	08a00793          	li	a5,138
   1cf9c:	00f52023          	sw	a5,0(a0)
   1cfa0:	fff00513          	li	a0,-1
   1cfa4:	00008067          	ret

0001cfa8 <__sjis_wctomb>:
   1cfa8:	00865793          	srl	a5,a2,0x8
   1cfac:	0ff7f793          	zext.b	a5,a5
   1cfb0:	0ff67613          	zext.b	a2,a2
   1cfb4:	06058063          	beqz	a1,1d014 <__sjis_wctomb+0x6c>
   1cfb8:	04078863          	beqz	a5,1d008 <__sjis_wctomb+0x60>
   1cfbc:	07f78713          	add	a4,a5,127 # ffff007f <__BSS_END__+0xfffcb16f>
   1cfc0:	0ff77713          	zext.b	a4,a4
   1cfc4:	01e00693          	li	a3,30
   1cfc8:	00e6fa63          	bgeu	a3,a4,1cfdc <__sjis_wctomb+0x34>
   1cfcc:	02078713          	add	a4,a5,32
   1cfd0:	0ff77713          	zext.b	a4,a4
   1cfd4:	00f00693          	li	a3,15
   1cfd8:	04e6e263          	bltu	a3,a4,1d01c <__sjis_wctomb+0x74>
   1cfdc:	fc060713          	add	a4,a2,-64
   1cfe0:	0ff77713          	zext.b	a4,a4
   1cfe4:	03e00693          	li	a3,62
   1cfe8:	00e6f863          	bgeu	a3,a4,1cff8 <__sjis_wctomb+0x50>
   1cfec:	08064713          	xor	a4,a2,128
   1cff0:	07c00693          	li	a3,124
   1cff4:	02e6e463          	bltu	a3,a4,1d01c <__sjis_wctomb+0x74>
   1cff8:	00f58023          	sb	a5,0(a1)
   1cffc:	00c580a3          	sb	a2,1(a1)
   1d000:	00200513          	li	a0,2
   1d004:	00008067          	ret
   1d008:	00c58023          	sb	a2,0(a1)
   1d00c:	00100513          	li	a0,1
   1d010:	00008067          	ret
   1d014:	00000513          	li	a0,0
   1d018:	00008067          	ret
   1d01c:	08a00793          	li	a5,138
   1d020:	00f52023          	sw	a5,0(a0)
   1d024:	fff00513          	li	a0,-1
   1d028:	00008067          	ret

0001d02c <__eucjp_wctomb>:
   1d02c:	00865793          	srl	a5,a2,0x8
   1d030:	0ff7f793          	zext.b	a5,a5
   1d034:	0ff67613          	zext.b	a2,a2
   1d038:	06058c63          	beqz	a1,1d0b0 <__eucjp_wctomb+0x84>
   1d03c:	04078c63          	beqz	a5,1d094 <__eucjp_wctomb+0x68>
   1d040:	07278713          	add	a4,a5,114
   1d044:	0ff77713          	zext.b	a4,a4
   1d048:	00100693          	li	a3,1
   1d04c:	06e6f663          	bgeu	a3,a4,1d0b8 <__eucjp_wctomb+0x8c>
   1d050:	05f78713          	add	a4,a5,95
   1d054:	0ff77713          	zext.b	a4,a4
   1d058:	05d00693          	li	a3,93
   1d05c:	06e6e663          	bltu	a3,a4,1d0c8 <__eucjp_wctomb+0x9c>
   1d060:	05f60713          	add	a4,a2,95
   1d064:	0ff77713          	zext.b	a4,a4
   1d068:	02e6fc63          	bgeu	a3,a4,1d0a0 <__eucjp_wctomb+0x74>
   1d06c:	08066613          	or	a2,a2,128
   1d070:	05f60713          	add	a4,a2,95
   1d074:	0ff77713          	zext.b	a4,a4
   1d078:	04e6e863          	bltu	a3,a4,1d0c8 <__eucjp_wctomb+0x9c>
   1d07c:	f8f00713          	li	a4,-113
   1d080:	00e58023          	sb	a4,0(a1)
   1d084:	00f580a3          	sb	a5,1(a1)
   1d088:	00c58123          	sb	a2,2(a1)
   1d08c:	00300513          	li	a0,3
   1d090:	00008067          	ret
   1d094:	00c58023          	sb	a2,0(a1)
   1d098:	00100513          	li	a0,1
   1d09c:	00008067          	ret
   1d0a0:	00f58023          	sb	a5,0(a1)
   1d0a4:	00c580a3          	sb	a2,1(a1)
   1d0a8:	00200513          	li	a0,2
   1d0ac:	00008067          	ret
   1d0b0:	00000513          	li	a0,0
   1d0b4:	00008067          	ret
   1d0b8:	05f60713          	add	a4,a2,95
   1d0bc:	0ff77713          	zext.b	a4,a4
   1d0c0:	05d00693          	li	a3,93
   1d0c4:	fce6fee3          	bgeu	a3,a4,1d0a0 <__eucjp_wctomb+0x74>
   1d0c8:	08a00793          	li	a5,138
   1d0cc:	00f52023          	sw	a5,0(a0)
   1d0d0:	fff00513          	li	a0,-1
   1d0d4:	00008067          	ret

0001d0d8 <__jis_wctomb>:
   1d0d8:	00865793          	srl	a5,a2,0x8
   1d0dc:	0ff7f793          	zext.b	a5,a5
   1d0e0:	0ff67613          	zext.b	a2,a2
   1d0e4:	08058e63          	beqz	a1,1d180 <__jis_wctomb+0xa8>
   1d0e8:	06078063          	beqz	a5,1d148 <__jis_wctomb+0x70>
   1d0ec:	fdf78713          	add	a4,a5,-33
   1d0f0:	0ff77713          	zext.b	a4,a4
   1d0f4:	05d00813          	li	a6,93
   1d0f8:	08e86863          	bltu	a6,a4,1d188 <__jis_wctomb+0xb0>
   1d0fc:	fdf60713          	add	a4,a2,-33
   1d100:	0ff77713          	zext.b	a4,a4
   1d104:	08e86263          	bltu	a6,a4,1d188 <__jis_wctomb+0xb0>
   1d108:	0006a703          	lw	a4,0(a3)
   1d10c:	00200513          	li	a0,2
   1d110:	02071663          	bnez	a4,1d13c <__jis_wctomb+0x64>
   1d114:	00100713          	li	a4,1
   1d118:	00e6a023          	sw	a4,0(a3)
   1d11c:	01b00713          	li	a4,27
   1d120:	00e58023          	sb	a4,0(a1)
   1d124:	02400713          	li	a4,36
   1d128:	00e580a3          	sb	a4,1(a1)
   1d12c:	04200713          	li	a4,66
   1d130:	00e58123          	sb	a4,2(a1)
   1d134:	00500513          	li	a0,5
   1d138:	00358593          	add	a1,a1,3
   1d13c:	00f58023          	sb	a5,0(a1)
   1d140:	00c580a3          	sb	a2,1(a1)
   1d144:	00008067          	ret
   1d148:	0006a783          	lw	a5,0(a3)
   1d14c:	00100513          	li	a0,1
   1d150:	02078463          	beqz	a5,1d178 <__jis_wctomb+0xa0>
   1d154:	0006a023          	sw	zero,0(a3)
   1d158:	01b00793          	li	a5,27
   1d15c:	00f58023          	sb	a5,0(a1)
   1d160:	02800793          	li	a5,40
   1d164:	00f580a3          	sb	a5,1(a1)
   1d168:	04200793          	li	a5,66
   1d16c:	00f58123          	sb	a5,2(a1)
   1d170:	00400513          	li	a0,4
   1d174:	00358593          	add	a1,a1,3
   1d178:	00c58023          	sb	a2,0(a1)
   1d17c:	00008067          	ret
   1d180:	00100513          	li	a0,1
   1d184:	00008067          	ret
   1d188:	08a00793          	li	a5,138
   1d18c:	00f52023          	sw	a5,0(a0)
   1d190:	fff00513          	li	a0,-1
   1d194:	00008067          	ret

0001d198 <_wcrtomb_r>:
   1d198:	fe010113          	add	sp,sp,-32
   1d19c:	00812c23          	sw	s0,24(sp)
   1d1a0:	00912a23          	sw	s1,20(sp)
   1d1a4:	00112e23          	sw	ra,28(sp)
   1d1a8:	00050493          	mv	s1,a0
   1d1ac:	10450413          	add	s0,a0,260
   1d1b0:	00068463          	beqz	a3,1d1b8 <_wcrtomb_r+0x20>
   1d1b4:	00068413          	mv	s0,a3
   1d1b8:	e181a783          	lw	a5,-488(gp) # 247e8 <__global_locale+0xe0>
   1d1bc:	00040693          	mv	a3,s0
   1d1c0:	02058463          	beqz	a1,1d1e8 <_wcrtomb_r+0x50>
   1d1c4:	00048513          	mv	a0,s1
   1d1c8:	000780e7          	jalr	a5
   1d1cc:	fff00793          	li	a5,-1
   1d1d0:	02f50863          	beq	a0,a5,1d200 <_wcrtomb_r+0x68>
   1d1d4:	01c12083          	lw	ra,28(sp)
   1d1d8:	01812403          	lw	s0,24(sp)
   1d1dc:	01412483          	lw	s1,20(sp)
   1d1e0:	02010113          	add	sp,sp,32
   1d1e4:	00008067          	ret
   1d1e8:	00000613          	li	a2,0
   1d1ec:	00410593          	add	a1,sp,4
   1d1f0:	00048513          	mv	a0,s1
   1d1f4:	000780e7          	jalr	a5
   1d1f8:	fff00793          	li	a5,-1
   1d1fc:	fcf51ce3          	bne	a0,a5,1d1d4 <_wcrtomb_r+0x3c>
   1d200:	00042023          	sw	zero,0(s0)
   1d204:	01c12083          	lw	ra,28(sp)
   1d208:	01812403          	lw	s0,24(sp)
   1d20c:	08a00793          	li	a5,138
   1d210:	00f4a023          	sw	a5,0(s1)
   1d214:	01412483          	lw	s1,20(sp)
   1d218:	02010113          	add	sp,sp,32
   1d21c:	00008067          	ret

0001d220 <wcrtomb>:
   1d220:	fe010113          	add	sp,sp,-32
   1d224:	00812c23          	sw	s0,24(sp)
   1d228:	00912a23          	sw	s1,20(sp)
   1d22c:	00060413          	mv	s0,a2
   1d230:	00112e23          	sw	ra,28(sp)
   1d234:	00058613          	mv	a2,a1
   1d238:	f341a483          	lw	s1,-204(gp) # 24904 <_impure_ptr>
   1d23c:	02040c63          	beqz	s0,1d274 <wcrtomb+0x54>
   1d240:	e181a783          	lw	a5,-488(gp) # 247e8 <__global_locale+0xe0>
   1d244:	00040693          	mv	a3,s0
   1d248:	02050e63          	beqz	a0,1d284 <wcrtomb+0x64>
   1d24c:	00050593          	mv	a1,a0
   1d250:	00048513          	mv	a0,s1
   1d254:	000780e7          	jalr	a5
   1d258:	fff00793          	li	a5,-1
   1d25c:	04f50063          	beq	a0,a5,1d29c <wcrtomb+0x7c>
   1d260:	01c12083          	lw	ra,28(sp)
   1d264:	01812403          	lw	s0,24(sp)
   1d268:	01412483          	lw	s1,20(sp)
   1d26c:	02010113          	add	sp,sp,32
   1d270:	00008067          	ret
   1d274:	10448413          	add	s0,s1,260
   1d278:	e181a783          	lw	a5,-488(gp) # 247e8 <__global_locale+0xe0>
   1d27c:	00040693          	mv	a3,s0
   1d280:	fc0516e3          	bnez	a0,1d24c <wcrtomb+0x2c>
   1d284:	00000613          	li	a2,0
   1d288:	00410593          	add	a1,sp,4
   1d28c:	00048513          	mv	a0,s1
   1d290:	000780e7          	jalr	a5
   1d294:	fff00793          	li	a5,-1
   1d298:	fcf514e3          	bne	a0,a5,1d260 <wcrtomb+0x40>
   1d29c:	00042023          	sw	zero,0(s0)
   1d2a0:	01c12083          	lw	ra,28(sp)
   1d2a4:	01812403          	lw	s0,24(sp)
   1d2a8:	08a00793          	li	a5,138
   1d2ac:	00f4a023          	sw	a5,0(s1)
   1d2b0:	01412483          	lw	s1,20(sp)
   1d2b4:	02010113          	add	sp,sp,32
   1d2b8:	00008067          	ret

0001d2bc <_wcsrtombs_r>:
   1d2bc:	00070793          	mv	a5,a4
   1d2c0:	00068713          	mv	a4,a3
   1d2c4:	fff00693          	li	a3,-1
   1d2c8:	4a10006f          	j	1df68 <_wcsnrtombs_r>

0001d2cc <wcsrtombs>:
   1d2cc:	00060713          	mv	a4,a2
   1d2d0:	00068793          	mv	a5,a3
   1d2d4:	00058613          	mv	a2,a1
   1d2d8:	fff00693          	li	a3,-1
   1d2dc:	00050593          	mv	a1,a0
   1d2e0:	f341a503          	lw	a0,-204(gp) # 24904 <_impure_ptr>
   1d2e4:	4850006f          	j	1df68 <_wcsnrtombs_r>

0001d2e8 <__set_ctype>:
   1d2e8:	00006797          	auipc	a5,0x6
   1d2ec:	ad878793          	add	a5,a5,-1320 # 22dc0 <_ctype_>
   1d2f0:	0ef52623          	sw	a5,236(a0)
   1d2f4:	00008067          	ret

0001d2f8 <__smakebuf_r>:
   1d2f8:	00c59783          	lh	a5,12(a1)
   1d2fc:	f8010113          	add	sp,sp,-128
   1d300:	06812c23          	sw	s0,120(sp)
   1d304:	06112e23          	sw	ra,124(sp)
   1d308:	0027f713          	and	a4,a5,2
   1d30c:	00058413          	mv	s0,a1
   1d310:	02070463          	beqz	a4,1d338 <__smakebuf_r+0x40>
   1d314:	04358793          	add	a5,a1,67
   1d318:	00f5a023          	sw	a5,0(a1)
   1d31c:	00f5a823          	sw	a5,16(a1)
   1d320:	00100793          	li	a5,1
   1d324:	00f5aa23          	sw	a5,20(a1)
   1d328:	07c12083          	lw	ra,124(sp)
   1d32c:	07812403          	lw	s0,120(sp)
   1d330:	08010113          	add	sp,sp,128
   1d334:	00008067          	ret
   1d338:	00e59583          	lh	a1,14(a1)
   1d33c:	06912a23          	sw	s1,116(sp)
   1d340:	07212823          	sw	s2,112(sp)
   1d344:	07312623          	sw	s3,108(sp)
   1d348:	07412423          	sw	s4,104(sp)
   1d34c:	00050493          	mv	s1,a0
   1d350:	0805c663          	bltz	a1,1d3dc <__smakebuf_r+0xe4>
   1d354:	00810613          	add	a2,sp,8
   1d358:	76c000ef          	jal	1dac4 <_fstat_r>
   1d35c:	06054e63          	bltz	a0,1d3d8 <__smakebuf_r+0xe0>
   1d360:	00c12783          	lw	a5,12(sp)
   1d364:	0000f937          	lui	s2,0xf
   1d368:	000019b7          	lui	s3,0x1
   1d36c:	00f97933          	and	s2,s2,a5
   1d370:	ffffe7b7          	lui	a5,0xffffe
   1d374:	00f90933          	add	s2,s2,a5
   1d378:	00193913          	seqz	s2,s2
   1d37c:	40000a13          	li	s4,1024
   1d380:	80098993          	add	s3,s3,-2048 # 800 <exit-0xf894>
   1d384:	000a0593          	mv	a1,s4
   1d388:	00048513          	mv	a0,s1
   1d38c:	965f40ef          	jal	11cf0 <_malloc_r>
   1d390:	00c41783          	lh	a5,12(s0)
   1d394:	06050863          	beqz	a0,1d404 <__smakebuf_r+0x10c>
   1d398:	0807e793          	or	a5,a5,128
   1d39c:	00a42023          	sw	a0,0(s0)
   1d3a0:	00a42823          	sw	a0,16(s0)
   1d3a4:	00f41623          	sh	a5,12(s0)
   1d3a8:	01442a23          	sw	s4,20(s0)
   1d3ac:	0a091063          	bnez	s2,1d44c <__smakebuf_r+0x154>
   1d3b0:	0137e7b3          	or	a5,a5,s3
   1d3b4:	07c12083          	lw	ra,124(sp)
   1d3b8:	00f41623          	sh	a5,12(s0)
   1d3bc:	07812403          	lw	s0,120(sp)
   1d3c0:	07412483          	lw	s1,116(sp)
   1d3c4:	07012903          	lw	s2,112(sp)
   1d3c8:	06c12983          	lw	s3,108(sp)
   1d3cc:	06812a03          	lw	s4,104(sp)
   1d3d0:	08010113          	add	sp,sp,128
   1d3d4:	00008067          	ret
   1d3d8:	00c41783          	lh	a5,12(s0)
   1d3dc:	0807f793          	and	a5,a5,128
   1d3e0:	00000913          	li	s2,0
   1d3e4:	04078e63          	beqz	a5,1d440 <__smakebuf_r+0x148>
   1d3e8:	04000a13          	li	s4,64
   1d3ec:	000a0593          	mv	a1,s4
   1d3f0:	00048513          	mv	a0,s1
   1d3f4:	8fdf40ef          	jal	11cf0 <_malloc_r>
   1d3f8:	00c41783          	lh	a5,12(s0)
   1d3fc:	00000993          	li	s3,0
   1d400:	f8051ce3          	bnez	a0,1d398 <__smakebuf_r+0xa0>
   1d404:	2007f713          	and	a4,a5,512
   1d408:	04071e63          	bnez	a4,1d464 <__smakebuf_r+0x16c>
   1d40c:	ffc7f793          	and	a5,a5,-4
   1d410:	0027e793          	or	a5,a5,2
   1d414:	04340713          	add	a4,s0,67
   1d418:	00f41623          	sh	a5,12(s0)
   1d41c:	00100793          	li	a5,1
   1d420:	07412483          	lw	s1,116(sp)
   1d424:	07012903          	lw	s2,112(sp)
   1d428:	06c12983          	lw	s3,108(sp)
   1d42c:	06812a03          	lw	s4,104(sp)
   1d430:	00e42023          	sw	a4,0(s0)
   1d434:	00e42823          	sw	a4,16(s0)
   1d438:	00f42a23          	sw	a5,20(s0)
   1d43c:	eedff06f          	j	1d328 <__smakebuf_r+0x30>
   1d440:	40000a13          	li	s4,1024
   1d444:	00000993          	li	s3,0
   1d448:	f3dff06f          	j	1d384 <__smakebuf_r+0x8c>
   1d44c:	00e41583          	lh	a1,14(s0)
   1d450:	00048513          	mv	a0,s1
   1d454:	6c8000ef          	jal	1db1c <_isatty_r>
   1d458:	02051063          	bnez	a0,1d478 <__smakebuf_r+0x180>
   1d45c:	00c41783          	lh	a5,12(s0)
   1d460:	f51ff06f          	j	1d3b0 <__smakebuf_r+0xb8>
   1d464:	07412483          	lw	s1,116(sp)
   1d468:	07012903          	lw	s2,112(sp)
   1d46c:	06c12983          	lw	s3,108(sp)
   1d470:	06812a03          	lw	s4,104(sp)
   1d474:	eb5ff06f          	j	1d328 <__smakebuf_r+0x30>
   1d478:	00c45783          	lhu	a5,12(s0)
   1d47c:	ffc7f793          	and	a5,a5,-4
   1d480:	0017e793          	or	a5,a5,1
   1d484:	01079793          	sll	a5,a5,0x10
   1d488:	4107d793          	sra	a5,a5,0x10
   1d48c:	f25ff06f          	j	1d3b0 <__smakebuf_r+0xb8>

0001d490 <__swhatbuf_r>:
   1d490:	f9010113          	add	sp,sp,-112
   1d494:	06812423          	sw	s0,104(sp)
   1d498:	00058413          	mv	s0,a1
   1d49c:	00e59583          	lh	a1,14(a1)
   1d4a0:	06912223          	sw	s1,100(sp)
   1d4a4:	07212023          	sw	s2,96(sp)
   1d4a8:	06112623          	sw	ra,108(sp)
   1d4ac:	00060493          	mv	s1,a2
   1d4b0:	00068913          	mv	s2,a3
   1d4b4:	0405ca63          	bltz	a1,1d508 <__swhatbuf_r+0x78>
   1d4b8:	00810613          	add	a2,sp,8
   1d4bc:	608000ef          	jal	1dac4 <_fstat_r>
   1d4c0:	04054463          	bltz	a0,1d508 <__swhatbuf_r+0x78>
   1d4c4:	00c12703          	lw	a4,12(sp)
   1d4c8:	0000f7b7          	lui	a5,0xf
   1d4cc:	06c12083          	lw	ra,108(sp)
   1d4d0:	00e7f7b3          	and	a5,a5,a4
   1d4d4:	ffffe737          	lui	a4,0xffffe
   1d4d8:	00e787b3          	add	a5,a5,a4
   1d4dc:	06812403          	lw	s0,104(sp)
   1d4e0:	0017b793          	seqz	a5,a5
   1d4e4:	00f92023          	sw	a5,0(s2) # f000 <exit-0x1094>
   1d4e8:	40000713          	li	a4,1024
   1d4ec:	00e4a023          	sw	a4,0(s1)
   1d4f0:	00001537          	lui	a0,0x1
   1d4f4:	06412483          	lw	s1,100(sp)
   1d4f8:	06012903          	lw	s2,96(sp)
   1d4fc:	80050513          	add	a0,a0,-2048 # 800 <exit-0xf894>
   1d500:	07010113          	add	sp,sp,112
   1d504:	00008067          	ret
   1d508:	00c45783          	lhu	a5,12(s0)
   1d50c:	0807f793          	and	a5,a5,128
   1d510:	02078863          	beqz	a5,1d540 <__swhatbuf_r+0xb0>
   1d514:	06c12083          	lw	ra,108(sp)
   1d518:	06812403          	lw	s0,104(sp)
   1d51c:	00000793          	li	a5,0
   1d520:	00f92023          	sw	a5,0(s2)
   1d524:	04000713          	li	a4,64
   1d528:	00e4a023          	sw	a4,0(s1)
   1d52c:	06012903          	lw	s2,96(sp)
   1d530:	06412483          	lw	s1,100(sp)
   1d534:	00000513          	li	a0,0
   1d538:	07010113          	add	sp,sp,112
   1d53c:	00008067          	ret
   1d540:	06c12083          	lw	ra,108(sp)
   1d544:	06812403          	lw	s0,104(sp)
   1d548:	00f92023          	sw	a5,0(s2)
   1d54c:	40000713          	li	a4,1024
   1d550:	00e4a023          	sw	a4,0(s1)
   1d554:	06012903          	lw	s2,96(sp)
   1d558:	06412483          	lw	s1,100(sp)
   1d55c:	00000513          	li	a0,0
   1d560:	07010113          	add	sp,sp,112
   1d564:	00008067          	ret

0001d568 <__swbuf_r>:
   1d568:	fe010113          	add	sp,sp,-32
   1d56c:	00812c23          	sw	s0,24(sp)
   1d570:	00912a23          	sw	s1,20(sp)
   1d574:	01212823          	sw	s2,16(sp)
   1d578:	00112e23          	sw	ra,28(sp)
   1d57c:	00050913          	mv	s2,a0
   1d580:	00058493          	mv	s1,a1
   1d584:	00060413          	mv	s0,a2
   1d588:	00050663          	beqz	a0,1d594 <__swbuf_r+0x2c>
   1d58c:	03452783          	lw	a5,52(a0)
   1d590:	16078063          	beqz	a5,1d6f0 <__swbuf_r+0x188>
   1d594:	01842783          	lw	a5,24(s0)
   1d598:	00c41703          	lh	a4,12(s0)
   1d59c:	00f42423          	sw	a5,8(s0)
   1d5a0:	00877793          	and	a5,a4,8
   1d5a4:	08078063          	beqz	a5,1d624 <__swbuf_r+0xbc>
   1d5a8:	01042783          	lw	a5,16(s0)
   1d5ac:	06078c63          	beqz	a5,1d624 <__swbuf_r+0xbc>
   1d5b0:	01312623          	sw	s3,12(sp)
   1d5b4:	01271693          	sll	a3,a4,0x12
   1d5b8:	0ff4f993          	zext.b	s3,s1
   1d5bc:	0ff4f493          	zext.b	s1,s1
   1d5c0:	0806d863          	bgez	a3,1d650 <__swbuf_r+0xe8>
   1d5c4:	00042703          	lw	a4,0(s0)
   1d5c8:	01442683          	lw	a3,20(s0)
   1d5cc:	40f707b3          	sub	a5,a4,a5
   1d5d0:	0ad7d863          	bge	a5,a3,1d680 <__swbuf_r+0x118>
   1d5d4:	00842683          	lw	a3,8(s0)
   1d5d8:	00170613          	add	a2,a4,1 # ffffe001 <__BSS_END__+0xfffd90f1>
   1d5dc:	00c42023          	sw	a2,0(s0)
   1d5e0:	fff68693          	add	a3,a3,-1
   1d5e4:	00d42423          	sw	a3,8(s0)
   1d5e8:	01370023          	sb	s3,0(a4)
   1d5ec:	01442703          	lw	a4,20(s0)
   1d5f0:	00178793          	add	a5,a5,1 # f001 <exit-0x1093>
   1d5f4:	0cf70263          	beq	a4,a5,1d6b8 <__swbuf_r+0x150>
   1d5f8:	00c45783          	lhu	a5,12(s0)
   1d5fc:	0017f793          	and	a5,a5,1
   1d600:	0c079a63          	bnez	a5,1d6d4 <__swbuf_r+0x16c>
   1d604:	00c12983          	lw	s3,12(sp)
   1d608:	01c12083          	lw	ra,28(sp)
   1d60c:	01812403          	lw	s0,24(sp)
   1d610:	01012903          	lw	s2,16(sp)
   1d614:	00048513          	mv	a0,s1
   1d618:	01412483          	lw	s1,20(sp)
   1d61c:	02010113          	add	sp,sp,32
   1d620:	00008067          	ret
   1d624:	00040593          	mv	a1,s0
   1d628:	00090513          	mv	a0,s2
   1d62c:	8ccfa0ef          	jal	176f8 <__swsetup_r>
   1d630:	08051e63          	bnez	a0,1d6cc <__swbuf_r+0x164>
   1d634:	00c41703          	lh	a4,12(s0)
   1d638:	01312623          	sw	s3,12(sp)
   1d63c:	01042783          	lw	a5,16(s0)
   1d640:	01271693          	sll	a3,a4,0x12
   1d644:	0ff4f993          	zext.b	s3,s1
   1d648:	0ff4f493          	zext.b	s1,s1
   1d64c:	f606cce3          	bltz	a3,1d5c4 <__swbuf_r+0x5c>
   1d650:	06442683          	lw	a3,100(s0)
   1d654:	ffffe637          	lui	a2,0xffffe
   1d658:	000025b7          	lui	a1,0x2
   1d65c:	00b76733          	or	a4,a4,a1
   1d660:	fff60613          	add	a2,a2,-1 # ffffdfff <__BSS_END__+0xfffd90ef>
   1d664:	00c6f6b3          	and	a3,a3,a2
   1d668:	00e41623          	sh	a4,12(s0)
   1d66c:	00042703          	lw	a4,0(s0)
   1d670:	06d42223          	sw	a3,100(s0)
   1d674:	01442683          	lw	a3,20(s0)
   1d678:	40f707b3          	sub	a5,a4,a5
   1d67c:	f4d7cce3          	blt	a5,a3,1d5d4 <__swbuf_r+0x6c>
   1d680:	00040593          	mv	a1,s0
   1d684:	00090513          	mv	a0,s2
   1d688:	9adf90ef          	jal	17034 <_fflush_r>
   1d68c:	02051e63          	bnez	a0,1d6c8 <__swbuf_r+0x160>
   1d690:	00042703          	lw	a4,0(s0)
   1d694:	00842683          	lw	a3,8(s0)
   1d698:	00100793          	li	a5,1
   1d69c:	00170613          	add	a2,a4,1
   1d6a0:	fff68693          	add	a3,a3,-1
   1d6a4:	00c42023          	sw	a2,0(s0)
   1d6a8:	00d42423          	sw	a3,8(s0)
   1d6ac:	01370023          	sb	s3,0(a4)
   1d6b0:	01442703          	lw	a4,20(s0)
   1d6b4:	f4f712e3          	bne	a4,a5,1d5f8 <__swbuf_r+0x90>
   1d6b8:	00040593          	mv	a1,s0
   1d6bc:	00090513          	mv	a0,s2
   1d6c0:	975f90ef          	jal	17034 <_fflush_r>
   1d6c4:	f40500e3          	beqz	a0,1d604 <__swbuf_r+0x9c>
   1d6c8:	00c12983          	lw	s3,12(sp)
   1d6cc:	fff00493          	li	s1,-1
   1d6d0:	f39ff06f          	j	1d608 <__swbuf_r+0xa0>
   1d6d4:	00a00793          	li	a5,10
   1d6d8:	f2f496e3          	bne	s1,a5,1d604 <__swbuf_r+0x9c>
   1d6dc:	00040593          	mv	a1,s0
   1d6e0:	00090513          	mv	a0,s2
   1d6e4:	951f90ef          	jal	17034 <_fflush_r>
   1d6e8:	f0050ee3          	beqz	a0,1d604 <__swbuf_r+0x9c>
   1d6ec:	fddff06f          	j	1d6c8 <__swbuf_r+0x160>
   1d6f0:	ff0f30ef          	jal	10ee0 <__sinit>
   1d6f4:	ea1ff06f          	j	1d594 <__swbuf_r+0x2c>

0001d6f8 <__swbuf>:
   1d6f8:	00058613          	mv	a2,a1
   1d6fc:	00050593          	mv	a1,a0
   1d700:	f341a503          	lw	a0,-204(gp) # 24904 <_impure_ptr>
   1d704:	e65ff06f          	j	1d568 <__swbuf_r>

0001d708 <strcasecmp>:
   1d708:	00050693          	mv	a3,a0
   1d70c:	00005817          	auipc	a6,0x5
   1d710:	6b580813          	add	a6,a6,1717 # 22dc1 <_ctype_+0x1>
   1d714:	00100613          	li	a2,1
   1d718:	0006c783          	lbu	a5,0(a3)
   1d71c:	00158593          	add	a1,a1,1 # 2001 <exit-0xe093>
   1d720:	00168693          	add	a3,a3,1
   1d724:	00f80733          	add	a4,a6,a5
   1d728:	00074703          	lbu	a4,0(a4)
   1d72c:	00377713          	and	a4,a4,3
   1d730:	00c71463          	bne	a4,a2,1d738 <strcasecmp+0x30>
   1d734:	02078793          	add	a5,a5,32
   1d738:	fff5c503          	lbu	a0,-1(a1)
   1d73c:	00a80733          	add	a4,a6,a0
   1d740:	00074703          	lbu	a4,0(a4)
   1d744:	40a788b3          	sub	a7,a5,a0
   1d748:	00377713          	and	a4,a4,3
   1d74c:	00c70863          	beq	a4,a2,1d75c <strcasecmp+0x54>
   1d750:	00a79e63          	bne	a5,a0,1d76c <strcasecmp+0x64>
   1d754:	fc0512e3          	bnez	a0,1d718 <strcasecmp+0x10>
   1d758:	00008067          	ret
   1d75c:	02050713          	add	a4,a0,32
   1d760:	40e78533          	sub	a0,a5,a4
   1d764:	fae78ae3          	beq	a5,a4,1d718 <strcasecmp+0x10>
   1d768:	00008067          	ret
   1d76c:	00088513          	mv	a0,a7
   1d770:	00008067          	ret

0001d774 <strcat>:
   1d774:	ff010113          	add	sp,sp,-16
   1d778:	00812423          	sw	s0,8(sp)
   1d77c:	00112623          	sw	ra,12(sp)
   1d780:	00357793          	and	a5,a0,3
   1d784:	00050413          	mv	s0,a0
   1d788:	04079463          	bnez	a5,1d7d0 <strcat+0x5c>
   1d78c:	00052703          	lw	a4,0(a0)
   1d790:	feff0637          	lui	a2,0xfeff0
   1d794:	eff60613          	add	a2,a2,-257 # fefefeff <__BSS_END__+0xfefcafef>
   1d798:	00c707b3          	add	a5,a4,a2
   1d79c:	808086b7          	lui	a3,0x80808
   1d7a0:	fff74713          	not	a4,a4
   1d7a4:	00e7f7b3          	and	a5,a5,a4
   1d7a8:	08068693          	add	a3,a3,128 # 80808080 <__BSS_END__+0x807e3170>
   1d7ac:	00d7f7b3          	and	a5,a5,a3
   1d7b0:	02079063          	bnez	a5,1d7d0 <strcat+0x5c>
   1d7b4:	00452703          	lw	a4,4(a0)
   1d7b8:	00450513          	add	a0,a0,4
   1d7bc:	00c707b3          	add	a5,a4,a2
   1d7c0:	fff74713          	not	a4,a4
   1d7c4:	00e7f7b3          	and	a5,a5,a4
   1d7c8:	00d7f7b3          	and	a5,a5,a3
   1d7cc:	fe0784e3          	beqz	a5,1d7b4 <strcat+0x40>
   1d7d0:	00054783          	lbu	a5,0(a0)
   1d7d4:	00078863          	beqz	a5,1d7e4 <strcat+0x70>
   1d7d8:	00154783          	lbu	a5,1(a0)
   1d7dc:	00150513          	add	a0,a0,1
   1d7e0:	fe079ce3          	bnez	a5,1d7d8 <strcat+0x64>
   1d7e4:	dacfb0ef          	jal	18d90 <strcpy>
   1d7e8:	00c12083          	lw	ra,12(sp)
   1d7ec:	00040513          	mv	a0,s0
   1d7f0:	00812403          	lw	s0,8(sp)
   1d7f4:	01010113          	add	sp,sp,16
   1d7f8:	00008067          	ret

0001d7fc <strchr>:
   1d7fc:	0ff5f693          	zext.b	a3,a1
   1d800:	00357793          	and	a5,a0,3
   1d804:	0c068063          	beqz	a3,1d8c4 <strchr+0xc8>
   1d808:	00078e63          	beqz	a5,1d824 <strchr+0x28>
   1d80c:	00054783          	lbu	a5,0(a0)
   1d810:	0a078663          	beqz	a5,1d8bc <strchr+0xc0>
   1d814:	0ad78663          	beq	a5,a3,1d8c0 <strchr+0xc4>
   1d818:	00150513          	add	a0,a0,1
   1d81c:	00357793          	and	a5,a0,3
   1d820:	fe0796e3          	bnez	a5,1d80c <strchr+0x10>
   1d824:	0ff5f593          	zext.b	a1,a1
   1d828:	00859893          	sll	a7,a1,0x8
   1d82c:	00052703          	lw	a4,0(a0)
   1d830:	00b888b3          	add	a7,a7,a1
   1d834:	01089793          	sll	a5,a7,0x10
   1d838:	00f888b3          	add	a7,a7,a5
   1d83c:	feff0837          	lui	a6,0xfeff0
   1d840:	00e8c633          	xor	a2,a7,a4
   1d844:	eff80813          	add	a6,a6,-257 # fefefeff <__BSS_END__+0xfefcafef>
   1d848:	010707b3          	add	a5,a4,a6
   1d84c:	010605b3          	add	a1,a2,a6
   1d850:	fff74713          	not	a4,a4
   1d854:	fff64613          	not	a2,a2
   1d858:	00e7f7b3          	and	a5,a5,a4
   1d85c:	80808337          	lui	t1,0x80808
   1d860:	00c5f733          	and	a4,a1,a2
   1d864:	00e7e7b3          	or	a5,a5,a4
   1d868:	08030313          	add	t1,t1,128 # 80808080 <__BSS_END__+0x807e3170>
   1d86c:	0067f7b3          	and	a5,a5,t1
   1d870:	02079a63          	bnez	a5,1d8a4 <strchr+0xa8>
   1d874:	00452703          	lw	a4,4(a0)
   1d878:	00450513          	add	a0,a0,4
   1d87c:	01174633          	xor	a2,a4,a7
   1d880:	010707b3          	add	a5,a4,a6
   1d884:	010605b3          	add	a1,a2,a6
   1d888:	fff74713          	not	a4,a4
   1d88c:	fff64613          	not	a2,a2
   1d890:	00e7f7b3          	and	a5,a5,a4
   1d894:	00c5f733          	and	a4,a1,a2
   1d898:	00e7e7b3          	or	a5,a5,a4
   1d89c:	0067f7b3          	and	a5,a5,t1
   1d8a0:	fc078ae3          	beqz	a5,1d874 <strchr+0x78>
   1d8a4:	00054783          	lbu	a5,0(a0)
   1d8a8:	00078a63          	beqz	a5,1d8bc <strchr+0xc0>
   1d8ac:	08f68663          	beq	a3,a5,1d938 <strchr+0x13c>
   1d8b0:	00154783          	lbu	a5,1(a0)
   1d8b4:	00150513          	add	a0,a0,1
   1d8b8:	fe079ae3          	bnez	a5,1d8ac <strchr+0xb0>
   1d8bc:	00000513          	li	a0,0
   1d8c0:	00008067          	ret
   1d8c4:	00078c63          	beqz	a5,1d8dc <strchr+0xe0>
   1d8c8:	00054783          	lbu	a5,0(a0)
   1d8cc:	fe078ae3          	beqz	a5,1d8c0 <strchr+0xc4>
   1d8d0:	00150513          	add	a0,a0,1
   1d8d4:	00357793          	and	a5,a0,3
   1d8d8:	fe0798e3          	bnez	a5,1d8c8 <strchr+0xcc>
   1d8dc:	00052703          	lw	a4,0(a0)
   1d8e0:	feff0637          	lui	a2,0xfeff0
   1d8e4:	eff60613          	add	a2,a2,-257 # fefefeff <__BSS_END__+0xfefcafef>
   1d8e8:	00c707b3          	add	a5,a4,a2
   1d8ec:	808086b7          	lui	a3,0x80808
   1d8f0:	fff74713          	not	a4,a4
   1d8f4:	00e7f7b3          	and	a5,a5,a4
   1d8f8:	08068693          	add	a3,a3,128 # 80808080 <__BSS_END__+0x807e3170>
   1d8fc:	00d7f7b3          	and	a5,a5,a3
   1d900:	02079063          	bnez	a5,1d920 <strchr+0x124>
   1d904:	00452703          	lw	a4,4(a0)
   1d908:	00450513          	add	a0,a0,4
   1d90c:	00c707b3          	add	a5,a4,a2
   1d910:	fff74713          	not	a4,a4
   1d914:	00e7f7b3          	and	a5,a5,a4
   1d918:	00d7f7b3          	and	a5,a5,a3
   1d91c:	fe0784e3          	beqz	a5,1d904 <strchr+0x108>
   1d920:	00054783          	lbu	a5,0(a0)
   1d924:	f8078ee3          	beqz	a5,1d8c0 <strchr+0xc4>
   1d928:	00154783          	lbu	a5,1(a0)
   1d92c:	00150513          	add	a0,a0,1
   1d930:	fe079ce3          	bnez	a5,1d928 <strchr+0x12c>
   1d934:	00008067          	ret
   1d938:	00008067          	ret

0001d93c <strlcpy>:
   1d93c:	00058793          	mv	a5,a1
   1d940:	00061e63          	bnez	a2,1d95c <strlcpy+0x20>
   1d944:	0240006f          	j	1d968 <strlcpy+0x2c>
   1d948:	0007c703          	lbu	a4,0(a5)
   1d94c:	00150513          	add	a0,a0,1
   1d950:	00178793          	add	a5,a5,1
   1d954:	fee50fa3          	sb	a4,-1(a0)
   1d958:	00070e63          	beqz	a4,1d974 <strlcpy+0x38>
   1d95c:	fff60613          	add	a2,a2,-1
   1d960:	fe0614e3          	bnez	a2,1d948 <strlcpy+0xc>
   1d964:	00050023          	sb	zero,0(a0)
   1d968:	0007c703          	lbu	a4,0(a5)
   1d96c:	00178793          	add	a5,a5,1
   1d970:	fe071ce3          	bnez	a4,1d968 <strlcpy+0x2c>
   1d974:	40b78533          	sub	a0,a5,a1
   1d978:	fff50513          	add	a0,a0,-1
   1d97c:	00008067          	ret

0001d980 <strncasecmp>:
   1d980:	00050693          	mv	a3,a0
   1d984:	04060c63          	beqz	a2,1d9dc <strncasecmp+0x5c>
   1d988:	00c58633          	add	a2,a1,a2
   1d98c:	00005897          	auipc	a7,0x5
   1d990:	43588893          	add	a7,a7,1077 # 22dc1 <_ctype_+0x1>
   1d994:	00100813          	li	a6,1
   1d998:	0006c783          	lbu	a5,0(a3)
   1d99c:	00158593          	add	a1,a1,1
   1d9a0:	00168693          	add	a3,a3,1
   1d9a4:	00f88733          	add	a4,a7,a5
   1d9a8:	00074703          	lbu	a4,0(a4)
   1d9ac:	00377713          	and	a4,a4,3
   1d9b0:	01071463          	bne	a4,a6,1d9b8 <strncasecmp+0x38>
   1d9b4:	02078793          	add	a5,a5,32
   1d9b8:	fff5c503          	lbu	a0,-1(a1)
   1d9bc:	00a88733          	add	a4,a7,a0
   1d9c0:	00074703          	lbu	a4,0(a4)
   1d9c4:	40a78333          	sub	t1,a5,a0
   1d9c8:	00377713          	and	a4,a4,3
   1d9cc:	03070063          	beq	a4,a6,1d9ec <strncasecmp+0x6c>
   1d9d0:	00a79a63          	bne	a5,a0,1d9e4 <strncasecmp+0x64>
   1d9d4:	00050a63          	beqz	a0,1d9e8 <strncasecmp+0x68>
   1d9d8:	fcc590e3          	bne	a1,a2,1d998 <strncasecmp+0x18>
   1d9dc:	00000513          	li	a0,0
   1d9e0:	00008067          	ret
   1d9e4:	00030513          	mv	a0,t1
   1d9e8:	00008067          	ret
   1d9ec:	02050713          	add	a4,a0,32
   1d9f0:	40e78533          	sub	a0,a5,a4
   1d9f4:	fee782e3          	beq	a5,a4,1d9d8 <strncasecmp+0x58>
   1d9f8:	00008067          	ret

0001d9fc <strncmp>:
   1d9fc:	04060a63          	beqz	a2,1da50 <strncmp+0x54>
   1da00:	00b567b3          	or	a5,a0,a1
   1da04:	0037f793          	and	a5,a5,3
   1da08:	04078863          	beqz	a5,1da58 <strncmp+0x5c>
   1da0c:	00054703          	lbu	a4,0(a0)
   1da10:	0005c683          	lbu	a3,0(a1)
   1da14:	0ad71463          	bne	a4,a3,1dabc <strncmp+0xc0>
   1da18:	00100793          	li	a5,1
   1da1c:	02f60a63          	beq	a2,a5,1da50 <strncmp+0x54>
   1da20:	00050813          	mv	a6,a0
   1da24:	0140006f          	j	1da38 <strncmp+0x3c>
   1da28:	00054703          	lbu	a4,0(a0)
   1da2c:	0005c683          	lbu	a3,0(a1)
   1da30:	08d71663          	bne	a4,a3,1dabc <strncmp+0xc0>
   1da34:	00078e63          	beqz	a5,1da50 <strncmp+0x54>
   1da38:	00150513          	add	a0,a0,1
   1da3c:	40a607b3          	sub	a5,a2,a0
   1da40:	fff78793          	add	a5,a5,-1
   1da44:	00158593          	add	a1,a1,1
   1da48:	00f807b3          	add	a5,a6,a5
   1da4c:	fc071ee3          	bnez	a4,1da28 <strncmp+0x2c>
   1da50:	00000513          	li	a0,0
   1da54:	00008067          	ret
   1da58:	feff0337          	lui	t1,0xfeff0
   1da5c:	808088b7          	lui	a7,0x80808
   1da60:	00300793          	li	a5,3
   1da64:	eff30313          	add	t1,t1,-257 # fefefeff <__BSS_END__+0xfefcafef>
   1da68:	08088893          	add	a7,a7,128 # 80808080 <__BSS_END__+0x807e3170>
   1da6c:	00300e13          	li	t3,3
   1da70:	02c7e063          	bltu	a5,a2,1da90 <strncmp+0x94>
   1da74:	f99ff06f          	j	1da0c <strncmp+0x10>
   1da78:	ffc60613          	add	a2,a2,-4
   1da7c:	fc060ae3          	beqz	a2,1da50 <strncmp+0x54>
   1da80:	fc0798e3          	bnez	a5,1da50 <strncmp+0x54>
   1da84:	00450513          	add	a0,a0,4
   1da88:	00458593          	add	a1,a1,4
   1da8c:	f8ce70e3          	bgeu	t3,a2,1da0c <strncmp+0x10>
   1da90:	00052703          	lw	a4,0(a0)
   1da94:	0005a683          	lw	a3,0(a1)
   1da98:	006707b3          	add	a5,a4,t1
   1da9c:	fff74813          	not	a6,a4
   1daa0:	0107f7b3          	and	a5,a5,a6
   1daa4:	0117f7b3          	and	a5,a5,a7
   1daa8:	fcd708e3          	beq	a4,a3,1da78 <strncmp+0x7c>
   1daac:	00054703          	lbu	a4,0(a0)
   1dab0:	0005c683          	lbu	a3,0(a1)
   1dab4:	00050813          	mv	a6,a0
   1dab8:	f8d700e3          	beq	a4,a3,1da38 <strncmp+0x3c>
   1dabc:	40d70533          	sub	a0,a4,a3
   1dac0:	00008067          	ret

0001dac4 <_fstat_r>:
   1dac4:	ff010113          	add	sp,sp,-16
   1dac8:	00058713          	mv	a4,a1
   1dacc:	00812423          	sw	s0,8(sp)
   1dad0:	00060593          	mv	a1,a2
   1dad4:	00050413          	mv	s0,a0
   1dad8:	00070513          	mv	a0,a4
   1dadc:	f401a823          	sw	zero,-176(gp) # 24920 <errno>
   1dae0:	00112623          	sw	ra,12(sp)
   1dae4:	359000ef          	jal	1e63c <_fstat>
   1dae8:	fff00793          	li	a5,-1
   1daec:	00f50a63          	beq	a0,a5,1db00 <_fstat_r+0x3c>
   1daf0:	00c12083          	lw	ra,12(sp)
   1daf4:	00812403          	lw	s0,8(sp)
   1daf8:	01010113          	add	sp,sp,16
   1dafc:	00008067          	ret
   1db00:	f501a783          	lw	a5,-176(gp) # 24920 <errno>
   1db04:	fe0786e3          	beqz	a5,1daf0 <_fstat_r+0x2c>
   1db08:	00c12083          	lw	ra,12(sp)
   1db0c:	00f42023          	sw	a5,0(s0)
   1db10:	00812403          	lw	s0,8(sp)
   1db14:	01010113          	add	sp,sp,16
   1db18:	00008067          	ret

0001db1c <_isatty_r>:
   1db1c:	ff010113          	add	sp,sp,-16
   1db20:	00812423          	sw	s0,8(sp)
   1db24:	00050413          	mv	s0,a0
   1db28:	00058513          	mv	a0,a1
   1db2c:	f401a823          	sw	zero,-176(gp) # 24920 <errno>
   1db30:	00112623          	sw	ra,12(sp)
   1db34:	371000ef          	jal	1e6a4 <_isatty>
   1db38:	fff00793          	li	a5,-1
   1db3c:	00f50a63          	beq	a0,a5,1db50 <_isatty_r+0x34>
   1db40:	00c12083          	lw	ra,12(sp)
   1db44:	00812403          	lw	s0,8(sp)
   1db48:	01010113          	add	sp,sp,16
   1db4c:	00008067          	ret
   1db50:	f501a783          	lw	a5,-176(gp) # 24920 <errno>
   1db54:	fe0786e3          	beqz	a5,1db40 <_isatty_r+0x24>
   1db58:	00c12083          	lw	ra,12(sp)
   1db5c:	00f42023          	sw	a5,0(s0)
   1db60:	00812403          	lw	s0,8(sp)
   1db64:	01010113          	add	sp,sp,16
   1db68:	00008067          	ret

0001db6c <__errno>:
   1db6c:	f341a503          	lw	a0,-204(gp) # 24904 <_impure_ptr>
   1db70:	00008067          	ret

0001db74 <__assert_func>:
   1db74:	ff010113          	add	sp,sp,-16
   1db78:	00068793          	mv	a5,a3
   1db7c:	f341a703          	lw	a4,-204(gp) # 24904 <_impure_ptr>
   1db80:	00060813          	mv	a6,a2
   1db84:	00112623          	sw	ra,12(sp)
   1db88:	00c72883          	lw	a7,12(a4)
   1db8c:	00078613          	mv	a2,a5
   1db90:	00050693          	mv	a3,a0
   1db94:	00058713          	mv	a4,a1
   1db98:	00005797          	auipc	a5,0x5
   1db9c:	95078793          	add	a5,a5,-1712 # 224e8 <__clzsi2+0x344>
   1dba0:	00080c63          	beqz	a6,1dbb8 <__assert_func+0x44>
   1dba4:	00005597          	auipc	a1,0x5
   1dba8:	95458593          	add	a1,a1,-1708 # 224f8 <__clzsi2+0x354>
   1dbac:	00088513          	mv	a0,a7
   1dbb0:	41c000ef          	jal	1dfcc <fiprintf>
   1dbb4:	460000ef          	jal	1e014 <abort>
   1dbb8:	00005797          	auipc	a5,0x5
   1dbbc:	93c78793          	add	a5,a5,-1732 # 224f4 <__clzsi2+0x350>
   1dbc0:	00078813          	mv	a6,a5
   1dbc4:	fe1ff06f          	j	1dba4 <__assert_func+0x30>

0001dbc8 <__assert>:
   1dbc8:	ff010113          	add	sp,sp,-16
   1dbcc:	00060693          	mv	a3,a2
   1dbd0:	00000613          	li	a2,0
   1dbd4:	00112623          	sw	ra,12(sp)
   1dbd8:	f9dff0ef          	jal	1db74 <__assert_func>

0001dbdc <_calloc_r>:
   1dbdc:	fe010113          	add	sp,sp,-32
   1dbe0:	00812c23          	sw	s0,24(sp)
   1dbe4:	00112e23          	sw	ra,28(sp)
   1dbe8:	0105d693          	srl	a3,a1,0x10
   1dbec:	00058793          	mv	a5,a1
   1dbf0:	00050413          	mv	s0,a0
   1dbf4:	01065713          	srl	a4,a2,0x10
   1dbf8:	0c069063          	bnez	a3,1dcb8 <_calloc_r+0xdc>
   1dbfc:	14071a63          	bnez	a4,1dd50 <_calloc_r+0x174>
   1dc00:	01061593          	sll	a1,a2,0x10
   1dc04:	01079513          	sll	a0,a5,0x10
   1dc08:	0105d593          	srl	a1,a1,0x10
   1dc0c:	01055513          	srl	a0,a0,0x10
   1dc10:	4bc040ef          	jal	220cc <__mulsi3>
   1dc14:	00050593          	mv	a1,a0
   1dc18:	00040513          	mv	a0,s0
   1dc1c:	8d4f40ef          	jal	11cf0 <_malloc_r>
   1dc20:	00050413          	mv	s0,a0
   1dc24:	10050a63          	beqz	a0,1dd38 <_calloc_r+0x15c>
   1dc28:	ffc52603          	lw	a2,-4(a0)
   1dc2c:	02400713          	li	a4,36
   1dc30:	ffc67613          	and	a2,a2,-4
   1dc34:	ffc60613          	add	a2,a2,-4
   1dc38:	04c76863          	bltu	a4,a2,1dc88 <_calloc_r+0xac>
   1dc3c:	01300693          	li	a3,19
   1dc40:	00050793          	mv	a5,a0
   1dc44:	02c6f263          	bgeu	a3,a2,1dc68 <_calloc_r+0x8c>
   1dc48:	00052023          	sw	zero,0(a0)
   1dc4c:	00052223          	sw	zero,4(a0)
   1dc50:	01b00793          	li	a5,27
   1dc54:	04c7f863          	bgeu	a5,a2,1dca4 <_calloc_r+0xc8>
   1dc58:	00052423          	sw	zero,8(a0)
   1dc5c:	00052623          	sw	zero,12(a0)
   1dc60:	01050793          	add	a5,a0,16
   1dc64:	10e60263          	beq	a2,a4,1dd68 <_calloc_r+0x18c>
   1dc68:	0007a023          	sw	zero,0(a5)
   1dc6c:	0007a223          	sw	zero,4(a5)
   1dc70:	0007a423          	sw	zero,8(a5)
   1dc74:	01c12083          	lw	ra,28(sp)
   1dc78:	00040513          	mv	a0,s0
   1dc7c:	01812403          	lw	s0,24(sp)
   1dc80:	02010113          	add	sp,sp,32
   1dc84:	00008067          	ret
   1dc88:	00000593          	li	a1,0
   1dc8c:	919f30ef          	jal	115a4 <memset>
   1dc90:	01c12083          	lw	ra,28(sp)
   1dc94:	00040513          	mv	a0,s0
   1dc98:	01812403          	lw	s0,24(sp)
   1dc9c:	02010113          	add	sp,sp,32
   1dca0:	00008067          	ret
   1dca4:	00850793          	add	a5,a0,8
   1dca8:	0007a023          	sw	zero,0(a5)
   1dcac:	0007a223          	sw	zero,4(a5)
   1dcb0:	0007a423          	sw	zero,8(a5)
   1dcb4:	fc1ff06f          	j	1dc74 <_calloc_r+0x98>
   1dcb8:	0c071663          	bnez	a4,1dd84 <_calloc_r+0x1a8>
   1dcbc:	01212823          	sw	s2,16(sp)
   1dcc0:	01312623          	sw	s3,12(sp)
   1dcc4:	00912a23          	sw	s1,20(sp)
   1dcc8:	00068913          	mv	s2,a3
   1dccc:	00060993          	mv	s3,a2
   1dcd0:	01079513          	sll	a0,a5,0x10
   1dcd4:	01061593          	sll	a1,a2,0x10
   1dcd8:	0105d593          	srl	a1,a1,0x10
   1dcdc:	01055513          	srl	a0,a0,0x10
   1dce0:	3ec040ef          	jal	220cc <__mulsi3>
   1dce4:	00050493          	mv	s1,a0
   1dce8:	01091593          	sll	a1,s2,0x10
   1dcec:	01099513          	sll	a0,s3,0x10
   1dcf0:	0105d593          	srl	a1,a1,0x10
   1dcf4:	01055513          	srl	a0,a0,0x10
   1dcf8:	3d4040ef          	jal	220cc <__mulsi3>
   1dcfc:	0104d793          	srl	a5,s1,0x10
   1dd00:	00f505b3          	add	a1,a0,a5
   1dd04:	0105d793          	srl	a5,a1,0x10
   1dd08:	06079863          	bnez	a5,1dd78 <_calloc_r+0x19c>
   1dd0c:	01049493          	sll	s1,s1,0x10
   1dd10:	0104d493          	srl	s1,s1,0x10
   1dd14:	01059593          	sll	a1,a1,0x10
   1dd18:	0095e5b3          	or	a1,a1,s1
   1dd1c:	00040513          	mv	a0,s0
   1dd20:	01412483          	lw	s1,20(sp)
   1dd24:	01012903          	lw	s2,16(sp)
   1dd28:	00c12983          	lw	s3,12(sp)
   1dd2c:	fc5f30ef          	jal	11cf0 <_malloc_r>
   1dd30:	00050413          	mv	s0,a0
   1dd34:	ee051ae3          	bnez	a0,1dc28 <_calloc_r+0x4c>
   1dd38:	00000413          	li	s0,0
   1dd3c:	01c12083          	lw	ra,28(sp)
   1dd40:	00040513          	mv	a0,s0
   1dd44:	01812403          	lw	s0,24(sp)
   1dd48:	02010113          	add	sp,sp,32
   1dd4c:	00008067          	ret
   1dd50:	01212823          	sw	s2,16(sp)
   1dd54:	01312623          	sw	s3,12(sp)
   1dd58:	00912a23          	sw	s1,20(sp)
   1dd5c:	00070913          	mv	s2,a4
   1dd60:	00058993          	mv	s3,a1
   1dd64:	f6dff06f          	j	1dcd0 <_calloc_r+0xf4>
   1dd68:	00052823          	sw	zero,16(a0)
   1dd6c:	01850793          	add	a5,a0,24
   1dd70:	00052a23          	sw	zero,20(a0)
   1dd74:	ef5ff06f          	j	1dc68 <_calloc_r+0x8c>
   1dd78:	01412483          	lw	s1,20(sp)
   1dd7c:	01012903          	lw	s2,16(sp)
   1dd80:	00c12983          	lw	s3,12(sp)
   1dd84:	de9ff0ef          	jal	1db6c <__errno>
   1dd88:	00c00793          	li	a5,12
   1dd8c:	00f52023          	sw	a5,0(a0)
   1dd90:	00000413          	li	s0,0
   1dd94:	fa9ff06f          	j	1dd3c <_calloc_r+0x160>

0001dd98 <__env_lock>:
   1dd98:	f6018513          	add	a0,gp,-160 # 24930 <__lock___env_recursive_mutex>
   1dd9c:	fecf306f          	j	11588 <__retarget_lock_acquire_recursive>

0001dda0 <__env_unlock>:
   1dda0:	f6018513          	add	a0,gp,-160 # 24930 <__lock___env_recursive_mutex>
   1dda4:	ffcf306f          	j	115a0 <__retarget_lock_release_recursive>

0001dda8 <_wcsnrtombs_l>:
   1dda8:	fa010113          	add	sp,sp,-96
   1ddac:	04912a23          	sw	s1,84(sp)
   1ddb0:	05212823          	sw	s2,80(sp)
   1ddb4:	05312623          	sw	s3,76(sp)
   1ddb8:	05412423          	sw	s4,72(sp)
   1ddbc:	05512223          	sw	s5,68(sp)
   1ddc0:	04112e23          	sw	ra,92(sp)
   1ddc4:	03912a23          	sw	s9,52(sp)
   1ddc8:	03a12823          	sw	s10,48(sp)
   1ddcc:	00a12623          	sw	a0,12(sp)
   1ddd0:	00058a13          	mv	s4,a1
   1ddd4:	00060a93          	mv	s5,a2
   1ddd8:	00070913          	mv	s2,a4
   1dddc:	00080993          	mv	s3,a6
   1dde0:	00078493          	mv	s1,a5
   1dde4:	12078063          	beqz	a5,1df04 <_wcsnrtombs_l+0x15c>
   1dde8:	000aac83          	lw	s9,0(s5)
   1ddec:	120a0263          	beqz	s4,1df10 <_wcsnrtombs_l+0x168>
   1ddf0:	14090e63          	beqz	s2,1df4c <_wcsnrtombs_l+0x1a4>
   1ddf4:	05612023          	sw	s6,64(sp)
   1ddf8:	fff68b13          	add	s6,a3,-1
   1ddfc:	16068063          	beqz	a3,1df5c <_wcsnrtombs_l+0x1b4>
   1de00:	04812c23          	sw	s0,88(sp)
   1de04:	03b12623          	sw	s11,44(sp)
   1de08:	03712e23          	sw	s7,60(sp)
   1de0c:	03812c23          	sw	s8,56(sp)
   1de10:	000a0413          	mv	s0,s4
   1de14:	00000d13          	li	s10,0
   1de18:	fff00d93          	li	s11,-1
   1de1c:	0240006f          	j	1de40 <_wcsnrtombs_l+0x98>
   1de20:	080a1a63          	bnez	s4,1deb4 <_wcsnrtombs_l+0x10c>
   1de24:	000ca783          	lw	a5,0(s9)
   1de28:	004c8c93          	add	s9,s9,4
   1de2c:	0c078263          	beqz	a5,1def0 <_wcsnrtombs_l+0x148>
   1de30:	1326f263          	bgeu	a3,s2,1df54 <_wcsnrtombs_l+0x1ac>
   1de34:	fffb0b13          	add	s6,s6,-1 # 7fffffff <__BSS_END__+0x7ffdb0ef>
   1de38:	00068d13          	mv	s10,a3
   1de3c:	03bb0c63          	beq	s6,s11,1de74 <_wcsnrtombs_l+0xcc>
   1de40:	0e09a783          	lw	a5,224(s3)
   1de44:	000ca603          	lw	a2,0(s9)
   1de48:	00c12503          	lw	a0,12(sp)
   1de4c:	00048693          	mv	a3,s1
   1de50:	01410593          	add	a1,sp,20
   1de54:	0004ac03          	lw	s8,0(s1)
   1de58:	0044ab83          	lw	s7,4(s1)
   1de5c:	000780e7          	jalr	a5
   1de60:	0bb50e63          	beq	a0,s11,1df1c <_wcsnrtombs_l+0x174>
   1de64:	01a506b3          	add	a3,a0,s10
   1de68:	fad97ce3          	bgeu	s2,a3,1de20 <_wcsnrtombs_l+0x78>
   1de6c:	0184a023          	sw	s8,0(s1)
   1de70:	0174a223          	sw	s7,4(s1)
   1de74:	05812403          	lw	s0,88(sp)
   1de78:	04012b03          	lw	s6,64(sp)
   1de7c:	03c12b83          	lw	s7,60(sp)
   1de80:	03812c03          	lw	s8,56(sp)
   1de84:	02c12d83          	lw	s11,44(sp)
   1de88:	05c12083          	lw	ra,92(sp)
   1de8c:	05412483          	lw	s1,84(sp)
   1de90:	05012903          	lw	s2,80(sp)
   1de94:	04c12983          	lw	s3,76(sp)
   1de98:	04812a03          	lw	s4,72(sp)
   1de9c:	04412a83          	lw	s5,68(sp)
   1dea0:	03412c83          	lw	s9,52(sp)
   1dea4:	000d0513          	mv	a0,s10
   1dea8:	03012d03          	lw	s10,48(sp)
   1deac:	06010113          	add	sp,sp,96
   1deb0:	00008067          	ret
   1deb4:	08a05063          	blez	a0,1df34 <_wcsnrtombs_l+0x18c>
   1deb8:	01410893          	add	a7,sp,20
   1debc:	00a40533          	add	a0,s0,a0
   1dec0:	0008c783          	lbu	a5,0(a7)
   1dec4:	00140413          	add	s0,s0,1
   1dec8:	00188893          	add	a7,a7,1
   1decc:	fef40fa3          	sb	a5,-1(s0)
   1ded0:	fe8518e3          	bne	a0,s0,1dec0 <_wcsnrtombs_l+0x118>
   1ded4:	000aa783          	lw	a5,0(s5)
   1ded8:	00050413          	mv	s0,a0
   1dedc:	00478793          	add	a5,a5,4
   1dee0:	00faa023          	sw	a5,0(s5)
   1dee4:	000ca783          	lw	a5,0(s9)
   1dee8:	004c8c93          	add	s9,s9,4
   1deec:	f40792e3          	bnez	a5,1de30 <_wcsnrtombs_l+0x88>
   1def0:	000a0463          	beqz	s4,1def8 <_wcsnrtombs_l+0x150>
   1def4:	000aa023          	sw	zero,0(s5)
   1def8:	0004a023          	sw	zero,0(s1)
   1defc:	fff68d13          	add	s10,a3,-1
   1df00:	f75ff06f          	j	1de74 <_wcsnrtombs_l+0xcc>
   1df04:	000aac83          	lw	s9,0(s5)
   1df08:	10c50493          	add	s1,a0,268
   1df0c:	ee0a12e3          	bnez	s4,1ddf0 <_wcsnrtombs_l+0x48>
   1df10:	05612023          	sw	s6,64(sp)
   1df14:	fff00913          	li	s2,-1
   1df18:	ee1ff06f          	j	1ddf8 <_wcsnrtombs_l+0x50>
   1df1c:	00c12703          	lw	a4,12(sp)
   1df20:	08a00793          	li	a5,138
   1df24:	fff00d13          	li	s10,-1
   1df28:	00f72023          	sw	a5,0(a4)
   1df2c:	0004a023          	sw	zero,0(s1)
   1df30:	f45ff06f          	j	1de74 <_wcsnrtombs_l+0xcc>
   1df34:	000aa783          	lw	a5,0(s5)
   1df38:	00040513          	mv	a0,s0
   1df3c:	00050413          	mv	s0,a0
   1df40:	00478793          	add	a5,a5,4
   1df44:	00faa023          	sw	a5,0(s5)
   1df48:	f9dff06f          	j	1dee4 <_wcsnrtombs_l+0x13c>
   1df4c:	00000d13          	li	s10,0
   1df50:	f39ff06f          	j	1de88 <_wcsnrtombs_l+0xe0>
   1df54:	00068d13          	mv	s10,a3
   1df58:	f1dff06f          	j	1de74 <_wcsnrtombs_l+0xcc>
   1df5c:	04012b03          	lw	s6,64(sp)
   1df60:	00000d13          	li	s10,0
   1df64:	f25ff06f          	j	1de88 <_wcsnrtombs_l+0xe0>

0001df68 <_wcsnrtombs_r>:
   1df68:	d3818813          	add	a6,gp,-712 # 24708 <__global_locale>
   1df6c:	f341a503          	lw	a0,-204(gp) # 24904 <_impure_ptr>
   1df70:	e39ff06f          	j	1dda8 <_wcsnrtombs_l>

0001df74 <wcsnrtombs>:
   1df74:	00070793          	mv	a5,a4
   1df78:	d3818813          	add	a6,gp,-712 # 24708 <__global_locale>
   1df7c:	00068713          	mv	a4,a3
   1df80:	00060693          	mv	a3,a2
   1df84:	00058613          	mv	a2,a1
   1df88:	00050593          	mv	a1,a0
   1df8c:	f341a503          	lw	a0,-204(gp) # 24904 <_impure_ptr>
   1df90:	e19ff06f          	j	1dda8 <_wcsnrtombs_l>

0001df94 <_fiprintf_r>:
   1df94:	fc010113          	add	sp,sp,-64
   1df98:	02c10313          	add	t1,sp,44
   1df9c:	02d12623          	sw	a3,44(sp)
   1dfa0:	00030693          	mv	a3,t1
   1dfa4:	00112e23          	sw	ra,28(sp)
   1dfa8:	02e12823          	sw	a4,48(sp)
   1dfac:	02f12a23          	sw	a5,52(sp)
   1dfb0:	03012c23          	sw	a6,56(sp)
   1dfb4:	03112e23          	sw	a7,60(sp)
   1dfb8:	00612623          	sw	t1,12(sp)
   1dfbc:	bf0f70ef          	jal	153ac <_vfiprintf_r>
   1dfc0:	01c12083          	lw	ra,28(sp)
   1dfc4:	04010113          	add	sp,sp,64
   1dfc8:	00008067          	ret

0001dfcc <fiprintf>:
   1dfcc:	fc010113          	add	sp,sp,-64
   1dfd0:	02810313          	add	t1,sp,40
   1dfd4:	02c12423          	sw	a2,40(sp)
   1dfd8:	02d12623          	sw	a3,44(sp)
   1dfdc:	00058613          	mv	a2,a1
   1dfe0:	00030693          	mv	a3,t1
   1dfe4:	00050593          	mv	a1,a0
   1dfe8:	f341a503          	lw	a0,-204(gp) # 24904 <_impure_ptr>
   1dfec:	00112e23          	sw	ra,28(sp)
   1dff0:	02e12823          	sw	a4,48(sp)
   1dff4:	02f12a23          	sw	a5,52(sp)
   1dff8:	03012c23          	sw	a6,56(sp)
   1dffc:	03112e23          	sw	a7,60(sp)
   1e000:	00612623          	sw	t1,12(sp)
   1e004:	ba8f70ef          	jal	153ac <_vfiprintf_r>
   1e008:	01c12083          	lw	ra,28(sp)
   1e00c:	04010113          	add	sp,sp,64
   1e010:	00008067          	ret

0001e014 <abort>:
   1e014:	ff010113          	add	sp,sp,-16
   1e018:	00600513          	li	a0,6
   1e01c:	00112623          	sw	ra,12(sp)
   1e020:	2a8000ef          	jal	1e2c8 <raise>
   1e024:	00100513          	li	a0,1
   1e028:	5e4000ef          	jal	1e60c <_exit>

0001e02c <_init_signal_r>:
   1e02c:	11852783          	lw	a5,280(a0)
   1e030:	00078663          	beqz	a5,1e03c <_init_signal_r+0x10>
   1e034:	00000513          	li	a0,0
   1e038:	00008067          	ret
   1e03c:	ff010113          	add	sp,sp,-16
   1e040:	08000593          	li	a1,128
   1e044:	00812423          	sw	s0,8(sp)
   1e048:	00112623          	sw	ra,12(sp)
   1e04c:	00050413          	mv	s0,a0
   1e050:	ca1f30ef          	jal	11cf0 <_malloc_r>
   1e054:	10a42c23          	sw	a0,280(s0)
   1e058:	02050463          	beqz	a0,1e080 <_init_signal_r+0x54>
   1e05c:	08050793          	add	a5,a0,128
   1e060:	00052023          	sw	zero,0(a0)
   1e064:	00450513          	add	a0,a0,4
   1e068:	fef51ce3          	bne	a0,a5,1e060 <_init_signal_r+0x34>
   1e06c:	00000513          	li	a0,0
   1e070:	00c12083          	lw	ra,12(sp)
   1e074:	00812403          	lw	s0,8(sp)
   1e078:	01010113          	add	sp,sp,16
   1e07c:	00008067          	ret
   1e080:	fff00513          	li	a0,-1
   1e084:	fedff06f          	j	1e070 <_init_signal_r+0x44>

0001e088 <_signal_r>:
   1e088:	fe010113          	add	sp,sp,-32
   1e08c:	00912a23          	sw	s1,20(sp)
   1e090:	00112e23          	sw	ra,28(sp)
   1e094:	01f00793          	li	a5,31
   1e098:	00050493          	mv	s1,a0
   1e09c:	02b7ec63          	bltu	a5,a1,1e0d4 <_signal_r+0x4c>
   1e0a0:	11852783          	lw	a5,280(a0)
   1e0a4:	00812c23          	sw	s0,24(sp)
   1e0a8:	00058413          	mv	s0,a1
   1e0ac:	02078c63          	beqz	a5,1e0e4 <_signal_r+0x5c>
   1e0b0:	00241413          	sll	s0,s0,0x2
   1e0b4:	008787b3          	add	a5,a5,s0
   1e0b8:	01812403          	lw	s0,24(sp)
   1e0bc:	0007a503          	lw	a0,0(a5)
   1e0c0:	00c7a023          	sw	a2,0(a5)
   1e0c4:	01c12083          	lw	ra,28(sp)
   1e0c8:	01412483          	lw	s1,20(sp)
   1e0cc:	02010113          	add	sp,sp,32
   1e0d0:	00008067          	ret
   1e0d4:	01600793          	li	a5,22
   1e0d8:	00f52023          	sw	a5,0(a0)
   1e0dc:	fff00513          	li	a0,-1
   1e0e0:	fe5ff06f          	j	1e0c4 <_signal_r+0x3c>
   1e0e4:	08000593          	li	a1,128
   1e0e8:	00c12623          	sw	a2,12(sp)
   1e0ec:	c05f30ef          	jal	11cf0 <_malloc_r>
   1e0f0:	10a4ac23          	sw	a0,280(s1)
   1e0f4:	00c12603          	lw	a2,12(sp)
   1e0f8:	00050793          	mv	a5,a0
   1e0fc:	00050713          	mv	a4,a0
   1e100:	08050693          	add	a3,a0,128
   1e104:	00050a63          	beqz	a0,1e118 <_signal_r+0x90>
   1e108:	00072023          	sw	zero,0(a4)
   1e10c:	00470713          	add	a4,a4,4
   1e110:	fed71ce3          	bne	a4,a3,1e108 <_signal_r+0x80>
   1e114:	f9dff06f          	j	1e0b0 <_signal_r+0x28>
   1e118:	01812403          	lw	s0,24(sp)
   1e11c:	fff00513          	li	a0,-1
   1e120:	fa5ff06f          	j	1e0c4 <_signal_r+0x3c>

0001e124 <_raise_r>:
   1e124:	ff010113          	add	sp,sp,-16
   1e128:	00912223          	sw	s1,4(sp)
   1e12c:	00112623          	sw	ra,12(sp)
   1e130:	01f00793          	li	a5,31
   1e134:	00050493          	mv	s1,a0
   1e138:	0ab7e063          	bltu	a5,a1,1e1d8 <_raise_r+0xb4>
   1e13c:	11852783          	lw	a5,280(a0)
   1e140:	00812423          	sw	s0,8(sp)
   1e144:	00058413          	mv	s0,a1
   1e148:	04078463          	beqz	a5,1e190 <_raise_r+0x6c>
   1e14c:	00259713          	sll	a4,a1,0x2
   1e150:	00e787b3          	add	a5,a5,a4
   1e154:	0007a703          	lw	a4,0(a5)
   1e158:	02070c63          	beqz	a4,1e190 <_raise_r+0x6c>
   1e15c:	00100693          	li	a3,1
   1e160:	00d70c63          	beq	a4,a3,1e178 <_raise_r+0x54>
   1e164:	fff00693          	li	a3,-1
   1e168:	04d70863          	beq	a4,a3,1e1b8 <_raise_r+0x94>
   1e16c:	0007a023          	sw	zero,0(a5)
   1e170:	00058513          	mv	a0,a1
   1e174:	000700e7          	jalr	a4
   1e178:	00812403          	lw	s0,8(sp)
   1e17c:	00000513          	li	a0,0
   1e180:	00c12083          	lw	ra,12(sp)
   1e184:	00412483          	lw	s1,4(sp)
   1e188:	01010113          	add	sp,sp,16
   1e18c:	00008067          	ret
   1e190:	00048513          	mv	a0,s1
   1e194:	430000ef          	jal	1e5c4 <_getpid_r>
   1e198:	00040613          	mv	a2,s0
   1e19c:	00812403          	lw	s0,8(sp)
   1e1a0:	00c12083          	lw	ra,12(sp)
   1e1a4:	00050593          	mv	a1,a0
   1e1a8:	00048513          	mv	a0,s1
   1e1ac:	00412483          	lw	s1,4(sp)
   1e1b0:	01010113          	add	sp,sp,16
   1e1b4:	3b80006f          	j	1e56c <_kill_r>
   1e1b8:	00812403          	lw	s0,8(sp)
   1e1bc:	00c12083          	lw	ra,12(sp)
   1e1c0:	01600793          	li	a5,22
   1e1c4:	00f52023          	sw	a5,0(a0)
   1e1c8:	00412483          	lw	s1,4(sp)
   1e1cc:	00100513          	li	a0,1
   1e1d0:	01010113          	add	sp,sp,16
   1e1d4:	00008067          	ret
   1e1d8:	01600793          	li	a5,22
   1e1dc:	00f52023          	sw	a5,0(a0)
   1e1e0:	fff00513          	li	a0,-1
   1e1e4:	f9dff06f          	j	1e180 <_raise_r+0x5c>

0001e1e8 <__sigtramp_r>:
   1e1e8:	01f00793          	li	a5,31
   1e1ec:	0cb7ea63          	bltu	a5,a1,1e2c0 <__sigtramp_r+0xd8>
   1e1f0:	11852783          	lw	a5,280(a0)
   1e1f4:	ff010113          	add	sp,sp,-16
   1e1f8:	00812423          	sw	s0,8(sp)
   1e1fc:	00912223          	sw	s1,4(sp)
   1e200:	00112623          	sw	ra,12(sp)
   1e204:	00058413          	mv	s0,a1
   1e208:	00050493          	mv	s1,a0
   1e20c:	08078063          	beqz	a5,1e28c <__sigtramp_r+0xa4>
   1e210:	00241713          	sll	a4,s0,0x2
   1e214:	00e787b3          	add	a5,a5,a4
   1e218:	0007a703          	lw	a4,0(a5)
   1e21c:	02070c63          	beqz	a4,1e254 <__sigtramp_r+0x6c>
   1e220:	fff00693          	li	a3,-1
   1e224:	06d70063          	beq	a4,a3,1e284 <__sigtramp_r+0x9c>
   1e228:	00100693          	li	a3,1
   1e22c:	04d70063          	beq	a4,a3,1e26c <__sigtramp_r+0x84>
   1e230:	00040513          	mv	a0,s0
   1e234:	0007a023          	sw	zero,0(a5)
   1e238:	000700e7          	jalr	a4
   1e23c:	00000513          	li	a0,0
   1e240:	00c12083          	lw	ra,12(sp)
   1e244:	00812403          	lw	s0,8(sp)
   1e248:	00412483          	lw	s1,4(sp)
   1e24c:	01010113          	add	sp,sp,16
   1e250:	00008067          	ret
   1e254:	00c12083          	lw	ra,12(sp)
   1e258:	00812403          	lw	s0,8(sp)
   1e25c:	00412483          	lw	s1,4(sp)
   1e260:	00100513          	li	a0,1
   1e264:	01010113          	add	sp,sp,16
   1e268:	00008067          	ret
   1e26c:	00c12083          	lw	ra,12(sp)
   1e270:	00812403          	lw	s0,8(sp)
   1e274:	00412483          	lw	s1,4(sp)
   1e278:	00300513          	li	a0,3
   1e27c:	01010113          	add	sp,sp,16
   1e280:	00008067          	ret
   1e284:	00200513          	li	a0,2
   1e288:	fb9ff06f          	j	1e240 <__sigtramp_r+0x58>
   1e28c:	08000593          	li	a1,128
   1e290:	a61f30ef          	jal	11cf0 <_malloc_r>
   1e294:	10a4ac23          	sw	a0,280(s1)
   1e298:	00050793          	mv	a5,a0
   1e29c:	00050e63          	beqz	a0,1e2b8 <__sigtramp_r+0xd0>
   1e2a0:	00050713          	mv	a4,a0
   1e2a4:	08050693          	add	a3,a0,128
   1e2a8:	00072023          	sw	zero,0(a4)
   1e2ac:	00470713          	add	a4,a4,4
   1e2b0:	fed71ce3          	bne	a4,a3,1e2a8 <__sigtramp_r+0xc0>
   1e2b4:	f5dff06f          	j	1e210 <__sigtramp_r+0x28>
   1e2b8:	fff00513          	li	a0,-1
   1e2bc:	f85ff06f          	j	1e240 <__sigtramp_r+0x58>
   1e2c0:	fff00513          	li	a0,-1
   1e2c4:	00008067          	ret

0001e2c8 <raise>:
   1e2c8:	ff010113          	add	sp,sp,-16
   1e2cc:	00912223          	sw	s1,4(sp)
   1e2d0:	00112623          	sw	ra,12(sp)
   1e2d4:	01f00793          	li	a5,31
   1e2d8:	f341a483          	lw	s1,-204(gp) # 24904 <_impure_ptr>
   1e2dc:	08a7ee63          	bltu	a5,a0,1e378 <raise+0xb0>
   1e2e0:	1184a783          	lw	a5,280(s1)
   1e2e4:	00812423          	sw	s0,8(sp)
   1e2e8:	00050413          	mv	s0,a0
   1e2ec:	04078263          	beqz	a5,1e330 <raise+0x68>
   1e2f0:	00251713          	sll	a4,a0,0x2
   1e2f4:	00e787b3          	add	a5,a5,a4
   1e2f8:	0007a703          	lw	a4,0(a5)
   1e2fc:	02070a63          	beqz	a4,1e330 <raise+0x68>
   1e300:	00100693          	li	a3,1
   1e304:	00d70a63          	beq	a4,a3,1e318 <raise+0x50>
   1e308:	fff00693          	li	a3,-1
   1e30c:	04d70663          	beq	a4,a3,1e358 <raise+0x90>
   1e310:	0007a023          	sw	zero,0(a5)
   1e314:	000700e7          	jalr	a4
   1e318:	00812403          	lw	s0,8(sp)
   1e31c:	00000513          	li	a0,0
   1e320:	00c12083          	lw	ra,12(sp)
   1e324:	00412483          	lw	s1,4(sp)
   1e328:	01010113          	add	sp,sp,16
   1e32c:	00008067          	ret
   1e330:	00048513          	mv	a0,s1
   1e334:	290000ef          	jal	1e5c4 <_getpid_r>
   1e338:	00040613          	mv	a2,s0
   1e33c:	00812403          	lw	s0,8(sp)
   1e340:	00c12083          	lw	ra,12(sp)
   1e344:	00050593          	mv	a1,a0
   1e348:	00048513          	mv	a0,s1
   1e34c:	00412483          	lw	s1,4(sp)
   1e350:	01010113          	add	sp,sp,16
   1e354:	2180006f          	j	1e56c <_kill_r>
   1e358:	00812403          	lw	s0,8(sp)
   1e35c:	00c12083          	lw	ra,12(sp)
   1e360:	01600793          	li	a5,22
   1e364:	00f4a023          	sw	a5,0(s1)
   1e368:	00100513          	li	a0,1
   1e36c:	00412483          	lw	s1,4(sp)
   1e370:	01010113          	add	sp,sp,16
   1e374:	00008067          	ret
   1e378:	01600793          	li	a5,22
   1e37c:	00f4a023          	sw	a5,0(s1)
   1e380:	fff00513          	li	a0,-1
   1e384:	f9dff06f          	j	1e320 <raise+0x58>

0001e388 <signal>:
   1e388:	ff010113          	add	sp,sp,-16
   1e38c:	01212023          	sw	s2,0(sp)
   1e390:	00112623          	sw	ra,12(sp)
   1e394:	01f00793          	li	a5,31
   1e398:	f341a903          	lw	s2,-204(gp) # 24904 <_impure_ptr>
   1e39c:	04a7e263          	bltu	a5,a0,1e3e0 <signal+0x58>
   1e3a0:	00812423          	sw	s0,8(sp)
   1e3a4:	00050413          	mv	s0,a0
   1e3a8:	11892503          	lw	a0,280(s2)
   1e3ac:	00912223          	sw	s1,4(sp)
   1e3b0:	00058493          	mv	s1,a1
   1e3b4:	02050e63          	beqz	a0,1e3f0 <signal+0x68>
   1e3b8:	00241413          	sll	s0,s0,0x2
   1e3bc:	008507b3          	add	a5,a0,s0
   1e3c0:	0007a503          	lw	a0,0(a5)
   1e3c4:	00812403          	lw	s0,8(sp)
   1e3c8:	0097a023          	sw	s1,0(a5)
   1e3cc:	00412483          	lw	s1,4(sp)
   1e3d0:	00c12083          	lw	ra,12(sp)
   1e3d4:	00012903          	lw	s2,0(sp)
   1e3d8:	01010113          	add	sp,sp,16
   1e3dc:	00008067          	ret
   1e3e0:	01600793          	li	a5,22
   1e3e4:	00f92023          	sw	a5,0(s2)
   1e3e8:	fff00513          	li	a0,-1
   1e3ec:	fe5ff06f          	j	1e3d0 <signal+0x48>
   1e3f0:	08000593          	li	a1,128
   1e3f4:	00090513          	mv	a0,s2
   1e3f8:	8f9f30ef          	jal	11cf0 <_malloc_r>
   1e3fc:	10a92c23          	sw	a0,280(s2)
   1e400:	00050793          	mv	a5,a0
   1e404:	08050713          	add	a4,a0,128
   1e408:	00050a63          	beqz	a0,1e41c <signal+0x94>
   1e40c:	0007a023          	sw	zero,0(a5)
   1e410:	00478793          	add	a5,a5,4
   1e414:	fef71ce3          	bne	a4,a5,1e40c <signal+0x84>
   1e418:	fa1ff06f          	j	1e3b8 <signal+0x30>
   1e41c:	00812403          	lw	s0,8(sp)
   1e420:	00412483          	lw	s1,4(sp)
   1e424:	fff00513          	li	a0,-1
   1e428:	fa9ff06f          	j	1e3d0 <signal+0x48>

0001e42c <_init_signal>:
   1e42c:	ff010113          	add	sp,sp,-16
   1e430:	00812423          	sw	s0,8(sp)
   1e434:	f341a403          	lw	s0,-204(gp) # 24904 <_impure_ptr>
   1e438:	11842783          	lw	a5,280(s0)
   1e43c:	00112623          	sw	ra,12(sp)
   1e440:	00078c63          	beqz	a5,1e458 <_init_signal+0x2c>
   1e444:	00000513          	li	a0,0
   1e448:	00c12083          	lw	ra,12(sp)
   1e44c:	00812403          	lw	s0,8(sp)
   1e450:	01010113          	add	sp,sp,16
   1e454:	00008067          	ret
   1e458:	08000593          	li	a1,128
   1e45c:	00040513          	mv	a0,s0
   1e460:	891f30ef          	jal	11cf0 <_malloc_r>
   1e464:	10a42c23          	sw	a0,280(s0)
   1e468:	00050c63          	beqz	a0,1e480 <_init_signal+0x54>
   1e46c:	08050793          	add	a5,a0,128
   1e470:	00052023          	sw	zero,0(a0)
   1e474:	00450513          	add	a0,a0,4
   1e478:	fef51ce3          	bne	a0,a5,1e470 <_init_signal+0x44>
   1e47c:	fc9ff06f          	j	1e444 <_init_signal+0x18>
   1e480:	fff00513          	li	a0,-1
   1e484:	fc5ff06f          	j	1e448 <_init_signal+0x1c>

0001e488 <__sigtramp>:
   1e488:	ff010113          	add	sp,sp,-16
   1e48c:	00912223          	sw	s1,4(sp)
   1e490:	00112623          	sw	ra,12(sp)
   1e494:	01f00793          	li	a5,31
   1e498:	f341a483          	lw	s1,-204(gp) # 24904 <_impure_ptr>
   1e49c:	0ca7e463          	bltu	a5,a0,1e564 <__sigtramp+0xdc>
   1e4a0:	1184a783          	lw	a5,280(s1)
   1e4a4:	00812423          	sw	s0,8(sp)
   1e4a8:	00050413          	mv	s0,a0
   1e4ac:	08078263          	beqz	a5,1e530 <__sigtramp+0xa8>
   1e4b0:	00241713          	sll	a4,s0,0x2
   1e4b4:	00e787b3          	add	a5,a5,a4
   1e4b8:	0007a703          	lw	a4,0(a5)
   1e4bc:	02070c63          	beqz	a4,1e4f4 <__sigtramp+0x6c>
   1e4c0:	fff00693          	li	a3,-1
   1e4c4:	06d70063          	beq	a4,a3,1e524 <__sigtramp+0x9c>
   1e4c8:	00100693          	li	a3,1
   1e4cc:	04d70063          	beq	a4,a3,1e50c <__sigtramp+0x84>
   1e4d0:	00040513          	mv	a0,s0
   1e4d4:	0007a023          	sw	zero,0(a5)
   1e4d8:	000700e7          	jalr	a4
   1e4dc:	00812403          	lw	s0,8(sp)
   1e4e0:	00000513          	li	a0,0
   1e4e4:	00c12083          	lw	ra,12(sp)
   1e4e8:	00412483          	lw	s1,4(sp)
   1e4ec:	01010113          	add	sp,sp,16
   1e4f0:	00008067          	ret
   1e4f4:	00812403          	lw	s0,8(sp)
   1e4f8:	00c12083          	lw	ra,12(sp)
   1e4fc:	00412483          	lw	s1,4(sp)
   1e500:	00100513          	li	a0,1
   1e504:	01010113          	add	sp,sp,16
   1e508:	00008067          	ret
   1e50c:	00812403          	lw	s0,8(sp)
   1e510:	00c12083          	lw	ra,12(sp)
   1e514:	00412483          	lw	s1,4(sp)
   1e518:	00300513          	li	a0,3
   1e51c:	01010113          	add	sp,sp,16
   1e520:	00008067          	ret
   1e524:	00812403          	lw	s0,8(sp)
   1e528:	00200513          	li	a0,2
   1e52c:	fb9ff06f          	j	1e4e4 <__sigtramp+0x5c>
   1e530:	08000593          	li	a1,128
   1e534:	00048513          	mv	a0,s1
   1e538:	fb8f30ef          	jal	11cf0 <_malloc_r>
   1e53c:	10a4ac23          	sw	a0,280(s1)
   1e540:	00050793          	mv	a5,a0
   1e544:	00050e63          	beqz	a0,1e560 <__sigtramp+0xd8>
   1e548:	00050713          	mv	a4,a0
   1e54c:	08050693          	add	a3,a0,128
   1e550:	00072023          	sw	zero,0(a4)
   1e554:	00470713          	add	a4,a4,4
   1e558:	fee69ce3          	bne	a3,a4,1e550 <__sigtramp+0xc8>
   1e55c:	f55ff06f          	j	1e4b0 <__sigtramp+0x28>
   1e560:	00812403          	lw	s0,8(sp)
   1e564:	fff00513          	li	a0,-1
   1e568:	f7dff06f          	j	1e4e4 <__sigtramp+0x5c>

0001e56c <_kill_r>:
   1e56c:	ff010113          	add	sp,sp,-16
   1e570:	00058713          	mv	a4,a1
   1e574:	00812423          	sw	s0,8(sp)
   1e578:	00060593          	mv	a1,a2
   1e57c:	00050413          	mv	s0,a0
   1e580:	00070513          	mv	a0,a4
   1e584:	f401a823          	sw	zero,-176(gp) # 24920 <errno>
   1e588:	00112623          	sw	ra,12(sp)
   1e58c:	158000ef          	jal	1e6e4 <_kill>
   1e590:	fff00793          	li	a5,-1
   1e594:	00f50a63          	beq	a0,a5,1e5a8 <_kill_r+0x3c>
   1e598:	00c12083          	lw	ra,12(sp)
   1e59c:	00812403          	lw	s0,8(sp)
   1e5a0:	01010113          	add	sp,sp,16
   1e5a4:	00008067          	ret
   1e5a8:	f501a783          	lw	a5,-176(gp) # 24920 <errno>
   1e5ac:	fe0786e3          	beqz	a5,1e598 <_kill_r+0x2c>
   1e5b0:	00c12083          	lw	ra,12(sp)
   1e5b4:	00f42023          	sw	a5,0(s0)
   1e5b8:	00812403          	lw	s0,8(sp)
   1e5bc:	01010113          	add	sp,sp,16
   1e5c0:	00008067          	ret

0001e5c4 <_getpid_r>:
   1e5c4:	0d80006f          	j	1e69c <_getpid>

0001e5c8 <_close>:
   1e5c8:	ff010113          	add	sp,sp,-16
   1e5cc:	00112623          	sw	ra,12(sp)
   1e5d0:	00812423          	sw	s0,8(sp)
   1e5d4:	03900893          	li	a7,57
   1e5d8:	00000073          	ecall
   1e5dc:	00050413          	mv	s0,a0
   1e5e0:	00054c63          	bltz	a0,1e5f8 <_close+0x30>
   1e5e4:	00c12083          	lw	ra,12(sp)
   1e5e8:	00040513          	mv	a0,s0
   1e5ec:	00812403          	lw	s0,8(sp)
   1e5f0:	01010113          	add	sp,sp,16
   1e5f4:	00008067          	ret
   1e5f8:	40800433          	neg	s0,s0
   1e5fc:	d70ff0ef          	jal	1db6c <__errno>
   1e600:	00852023          	sw	s0,0(a0)
   1e604:	fff00413          	li	s0,-1
   1e608:	fddff06f          	j	1e5e4 <_close+0x1c>

0001e60c <_exit>:
   1e60c:	05d00893          	li	a7,93
   1e610:	00000073          	ecall
   1e614:	00054463          	bltz	a0,1e61c <_exit+0x10>
   1e618:	0000006f          	j	1e618 <_exit+0xc>
   1e61c:	ff010113          	add	sp,sp,-16
   1e620:	00812423          	sw	s0,8(sp)
   1e624:	00050413          	mv	s0,a0
   1e628:	00112623          	sw	ra,12(sp)
   1e62c:	40800433          	neg	s0,s0
   1e630:	d3cff0ef          	jal	1db6c <__errno>
   1e634:	00852023          	sw	s0,0(a0)
   1e638:	0000006f          	j	1e638 <_exit+0x2c>

0001e63c <_fstat>:
   1e63c:	f7010113          	add	sp,sp,-144
   1e640:	08912223          	sw	s1,132(sp)
   1e644:	08112623          	sw	ra,140(sp)
   1e648:	00058493          	mv	s1,a1
   1e64c:	08812423          	sw	s0,136(sp)
   1e650:	05000893          	li	a7,80
   1e654:	00010593          	mv	a1,sp
   1e658:	00000073          	ecall
   1e65c:	00050413          	mv	s0,a0
   1e660:	02054463          	bltz	a0,1e688 <_fstat+0x4c>
   1e664:	00048513          	mv	a0,s1
   1e668:	00010593          	mv	a1,sp
   1e66c:	1e4000ef          	jal	1e850 <_conv_stat>
   1e670:	08c12083          	lw	ra,140(sp)
   1e674:	00040513          	mv	a0,s0
   1e678:	08812403          	lw	s0,136(sp)
   1e67c:	08412483          	lw	s1,132(sp)
   1e680:	09010113          	add	sp,sp,144
   1e684:	00008067          	ret
   1e688:	40800433          	neg	s0,s0
   1e68c:	ce0ff0ef          	jal	1db6c <__errno>
   1e690:	00852023          	sw	s0,0(a0)
   1e694:	fff00413          	li	s0,-1
   1e698:	fcdff06f          	j	1e664 <_fstat+0x28>

0001e69c <_getpid>:
   1e69c:	00100513          	li	a0,1
   1e6a0:	00008067          	ret

0001e6a4 <_isatty>:
   1e6a4:	f9010113          	add	sp,sp,-112
   1e6a8:	00810593          	add	a1,sp,8
   1e6ac:	06112623          	sw	ra,108(sp)
   1e6b0:	f8dff0ef          	jal	1e63c <_fstat>
   1e6b4:	fff00793          	li	a5,-1
   1e6b8:	00f50e63          	beq	a0,a5,1e6d4 <_isatty+0x30>
   1e6bc:	00c12503          	lw	a0,12(sp)
   1e6c0:	06c12083          	lw	ra,108(sp)
   1e6c4:	00d55513          	srl	a0,a0,0xd
   1e6c8:	00157513          	and	a0,a0,1
   1e6cc:	07010113          	add	sp,sp,112
   1e6d0:	00008067          	ret
   1e6d4:	06c12083          	lw	ra,108(sp)
   1e6d8:	00000513          	li	a0,0
   1e6dc:	07010113          	add	sp,sp,112
   1e6e0:	00008067          	ret

0001e6e4 <_kill>:
   1e6e4:	ff010113          	add	sp,sp,-16
   1e6e8:	00112623          	sw	ra,12(sp)
   1e6ec:	c80ff0ef          	jal	1db6c <__errno>
   1e6f0:	00c12083          	lw	ra,12(sp)
   1e6f4:	01600793          	li	a5,22
   1e6f8:	00f52023          	sw	a5,0(a0)
   1e6fc:	fff00513          	li	a0,-1
   1e700:	01010113          	add	sp,sp,16
   1e704:	00008067          	ret

0001e708 <_lseek>:
   1e708:	ff010113          	add	sp,sp,-16
   1e70c:	00112623          	sw	ra,12(sp)
   1e710:	00812423          	sw	s0,8(sp)
   1e714:	03e00893          	li	a7,62
   1e718:	00000073          	ecall
   1e71c:	00050413          	mv	s0,a0
   1e720:	00054c63          	bltz	a0,1e738 <_lseek+0x30>
   1e724:	00c12083          	lw	ra,12(sp)
   1e728:	00040513          	mv	a0,s0
   1e72c:	00812403          	lw	s0,8(sp)
   1e730:	01010113          	add	sp,sp,16
   1e734:	00008067          	ret
   1e738:	40800433          	neg	s0,s0
   1e73c:	c30ff0ef          	jal	1db6c <__errno>
   1e740:	00852023          	sw	s0,0(a0)
   1e744:	fff00413          	li	s0,-1
   1e748:	fddff06f          	j	1e724 <_lseek+0x1c>

0001e74c <_read>:
   1e74c:	ff010113          	add	sp,sp,-16
   1e750:	00112623          	sw	ra,12(sp)
   1e754:	00812423          	sw	s0,8(sp)
   1e758:	03f00893          	li	a7,63
   1e75c:	00000073          	ecall
   1e760:	00050413          	mv	s0,a0
   1e764:	00054c63          	bltz	a0,1e77c <_read+0x30>
   1e768:	00c12083          	lw	ra,12(sp)
   1e76c:	00040513          	mv	a0,s0
   1e770:	00812403          	lw	s0,8(sp)
   1e774:	01010113          	add	sp,sp,16
   1e778:	00008067          	ret
   1e77c:	40800433          	neg	s0,s0
   1e780:	becff0ef          	jal	1db6c <__errno>
   1e784:	00852023          	sw	s0,0(a0)
   1e788:	fff00413          	li	s0,-1
   1e78c:	fddff06f          	j	1e768 <_read+0x1c>

0001e790 <_sbrk>:
   1e790:	f8c18693          	add	a3,gp,-116 # 2495c <heap_end.0>
   1e794:	0006a703          	lw	a4,0(a3)
   1e798:	ff010113          	add	sp,sp,-16
   1e79c:	00112623          	sw	ra,12(sp)
   1e7a0:	00050793          	mv	a5,a0
   1e7a4:	02071063          	bnez	a4,1e7c4 <_sbrk+0x34>
   1e7a8:	0d600893          	li	a7,214
   1e7ac:	00000513          	li	a0,0
   1e7b0:	00000073          	ecall
   1e7b4:	fff00613          	li	a2,-1
   1e7b8:	00050713          	mv	a4,a0
   1e7bc:	02c50a63          	beq	a0,a2,1e7f0 <_sbrk+0x60>
   1e7c0:	00a6a023          	sw	a0,0(a3)
   1e7c4:	0d600893          	li	a7,214
   1e7c8:	00e78533          	add	a0,a5,a4
   1e7cc:	00000073          	ecall
   1e7d0:	0006a703          	lw	a4,0(a3)
   1e7d4:	00e787b3          	add	a5,a5,a4
   1e7d8:	00f51c63          	bne	a0,a5,1e7f0 <_sbrk+0x60>
   1e7dc:	00c12083          	lw	ra,12(sp)
   1e7e0:	00a6a023          	sw	a0,0(a3)
   1e7e4:	00070513          	mv	a0,a4
   1e7e8:	01010113          	add	sp,sp,16
   1e7ec:	00008067          	ret
   1e7f0:	b7cff0ef          	jal	1db6c <__errno>
   1e7f4:	00c12083          	lw	ra,12(sp)
   1e7f8:	00c00793          	li	a5,12
   1e7fc:	00f52023          	sw	a5,0(a0)
   1e800:	fff00513          	li	a0,-1
   1e804:	01010113          	add	sp,sp,16
   1e808:	00008067          	ret

0001e80c <_write>:
   1e80c:	ff010113          	add	sp,sp,-16
   1e810:	00112623          	sw	ra,12(sp)
   1e814:	00812423          	sw	s0,8(sp)
   1e818:	04000893          	li	a7,64
   1e81c:	00000073          	ecall
   1e820:	00050413          	mv	s0,a0
   1e824:	00054c63          	bltz	a0,1e83c <_write+0x30>
   1e828:	00c12083          	lw	ra,12(sp)
   1e82c:	00040513          	mv	a0,s0
   1e830:	00812403          	lw	s0,8(sp)
   1e834:	01010113          	add	sp,sp,16
   1e838:	00008067          	ret
   1e83c:	40800433          	neg	s0,s0
   1e840:	b2cff0ef          	jal	1db6c <__errno>
   1e844:	00852023          	sw	s0,0(a0)
   1e848:	fff00413          	li	s0,-1
   1e84c:	fddff06f          	j	1e828 <_write+0x1c>

0001e850 <_conv_stat>:
   1e850:	0185d703          	lhu	a4,24(a1)
   1e854:	0145d783          	lhu	a5,20(a1)
   1e858:	ff010113          	add	sp,sp,-16
   1e85c:	01c5a283          	lw	t0,28(a1)
   1e860:	0205af83          	lw	t6,32(a1)
   1e864:	0305af03          	lw	t5,48(a1)
   1e868:	0405ae83          	lw	t4,64(a1)
   1e86c:	0385ae03          	lw	t3,56(a1)
   1e870:	0485a303          	lw	t1,72(a1)
   1e874:	04c5a383          	lw	t2,76(a1)
   1e878:	0585a803          	lw	a6,88(a1)
   1e87c:	05c5a883          	lw	a7,92(a1)
   1e880:	00812623          	sw	s0,12(sp)
   1e884:	00912423          	sw	s1,8(sp)
   1e888:	0105a403          	lw	s0,16(a1)
   1e88c:	0085a483          	lw	s1,8(a1)
   1e890:	01212223          	sw	s2,4(sp)
   1e894:	0005a903          	lw	s2,0(a1)
   1e898:	0685a603          	lw	a2,104(a1)
   1e89c:	01071713          	sll	a4,a4,0x10
   1e8a0:	00e7e7b3          	or	a5,a5,a4
   1e8a4:	06c5a683          	lw	a3,108(a1)
   1e8a8:	01251023          	sh	s2,0(a0)
   1e8ac:	00951123          	sh	s1,2(a0)
   1e8b0:	00852223          	sw	s0,4(a0)
   1e8b4:	00f52423          	sw	a5,8(a0)
   1e8b8:	00551623          	sh	t0,12(a0)
   1e8bc:	01f51723          	sh	t6,14(a0)
   1e8c0:	01e52823          	sw	t5,16(a0)
   1e8c4:	05d52623          	sw	t4,76(a0)
   1e8c8:	05c52423          	sw	t3,72(a0)
   1e8cc:	00652c23          	sw	t1,24(a0)
   1e8d0:	00752e23          	sw	t2,28(a0)
   1e8d4:	03052423          	sw	a6,40(a0)
   1e8d8:	03152623          	sw	a7,44(a0)
   1e8dc:	02c52c23          	sw	a2,56(a0)
   1e8e0:	00c12403          	lw	s0,12(sp)
   1e8e4:	02d52e23          	sw	a3,60(a0)
   1e8e8:	00812483          	lw	s1,8(sp)
   1e8ec:	00412903          	lw	s2,4(sp)
   1e8f0:	01010113          	add	sp,sp,16
   1e8f4:	00008067          	ret

0001e8f8 <__udivdi3>:
   1e8f8:	fd010113          	add	sp,sp,-48
   1e8fc:	01312e23          	sw	s3,28(sp)
   1e900:	02112623          	sw	ra,44(sp)
   1e904:	01612823          	sw	s6,16(sp)
   1e908:	00050993          	mv	s3,a0
   1e90c:	16069663          	bnez	a3,1ea78 <__udivdi3+0x180>
   1e910:	02812423          	sw	s0,40(sp)
   1e914:	01512a23          	sw	s5,20(sp)
   1e918:	02912223          	sw	s1,36(sp)
   1e91c:	03212023          	sw	s2,32(sp)
   1e920:	01412c23          	sw	s4,24(sp)
   1e924:	00060a93          	mv	s5,a2
   1e928:	00050413          	mv	s0,a0
   1e92c:	1cc5f063          	bgeu	a1,a2,1eaec <__udivdi3+0x1f4>
   1e930:	000107b7          	lui	a5,0x10
   1e934:	00058493          	mv	s1,a1
   1e938:	2af66e63          	bltu	a2,a5,1ebf4 <__udivdi3+0x2fc>
   1e93c:	010007b7          	lui	a5,0x1000
   1e940:	01800713          	li	a4,24
   1e944:	00f67463          	bgeu	a2,a5,1e94c <__udivdi3+0x54>
   1e948:	01000713          	li	a4,16
   1e94c:	00e656b3          	srl	a3,a2,a4
   1e950:	00004797          	auipc	a5,0x4
   1e954:	5b478793          	add	a5,a5,1460 # 22f04 <__clz_tab>
   1e958:	00d787b3          	add	a5,a5,a3
   1e95c:	0007c783          	lbu	a5,0(a5)
   1e960:	02000693          	li	a3,32
   1e964:	00e787b3          	add	a5,a5,a4
   1e968:	40f68733          	sub	a4,a3,a5
   1e96c:	00f68c63          	beq	a3,a5,1e984 <__udivdi3+0x8c>
   1e970:	00e594b3          	sll	s1,a1,a4
   1e974:	00f9d7b3          	srl	a5,s3,a5
   1e978:	00e61ab3          	sll	s5,a2,a4
   1e97c:	0097e4b3          	or	s1,a5,s1
   1e980:	00e99433          	sll	s0,s3,a4
   1e984:	010ada13          	srl	s4,s5,0x10
   1e988:	000a0593          	mv	a1,s4
   1e98c:	00048513          	mv	a0,s1
   1e990:	010a9b13          	sll	s6,s5,0x10
   1e994:	764030ef          	jal	220f8 <__hidden___udivsi3>
   1e998:	010b5b13          	srl	s6,s6,0x10
   1e99c:	00050593          	mv	a1,a0
   1e9a0:	00050913          	mv	s2,a0
   1e9a4:	000b0513          	mv	a0,s6
   1e9a8:	724030ef          	jal	220cc <__mulsi3>
   1e9ac:	00050793          	mv	a5,a0
   1e9b0:	000a0593          	mv	a1,s4
   1e9b4:	00048513          	mv	a0,s1
   1e9b8:	00078493          	mv	s1,a5
   1e9bc:	784030ef          	jal	22140 <__umodsi3>
   1e9c0:	01051513          	sll	a0,a0,0x10
   1e9c4:	01045793          	srl	a5,s0,0x10
   1e9c8:	00a7e7b3          	or	a5,a5,a0
   1e9cc:	0097fc63          	bgeu	a5,s1,1e9e4 <__udivdi3+0xec>
   1e9d0:	00fa87b3          	add	a5,s5,a5
   1e9d4:	fff90713          	add	a4,s2,-1
   1e9d8:	0157e463          	bltu	a5,s5,1e9e0 <__udivdi3+0xe8>
   1e9dc:	5a97e863          	bltu	a5,s1,1ef8c <__udivdi3+0x694>
   1e9e0:	00070913          	mv	s2,a4
   1e9e4:	409784b3          	sub	s1,a5,s1
   1e9e8:	000a0593          	mv	a1,s4
   1e9ec:	00048513          	mv	a0,s1
   1e9f0:	708030ef          	jal	220f8 <__hidden___udivsi3>
   1e9f4:	00050593          	mv	a1,a0
   1e9f8:	00050993          	mv	s3,a0
   1e9fc:	000b0513          	mv	a0,s6
   1ea00:	6cc030ef          	jal	220cc <__mulsi3>
   1ea04:	00050793          	mv	a5,a0
   1ea08:	000a0593          	mv	a1,s4
   1ea0c:	00048513          	mv	a0,s1
   1ea10:	01041413          	sll	s0,s0,0x10
   1ea14:	00078493          	mv	s1,a5
   1ea18:	728030ef          	jal	22140 <__umodsi3>
   1ea1c:	01051513          	sll	a0,a0,0x10
   1ea20:	01045413          	srl	s0,s0,0x10
   1ea24:	00a46433          	or	s0,s0,a0
   1ea28:	00947c63          	bgeu	s0,s1,1ea40 <__udivdi3+0x148>
   1ea2c:	008a8433          	add	s0,s5,s0
   1ea30:	fff98793          	add	a5,s3,-1
   1ea34:	4d546e63          	bltu	s0,s5,1ef10 <__udivdi3+0x618>
   1ea38:	ffe98993          	add	s3,s3,-2
   1ea3c:	4c947a63          	bgeu	s0,s1,1ef10 <__udivdi3+0x618>
   1ea40:	01091613          	sll	a2,s2,0x10
   1ea44:	01366533          	or	a0,a2,s3
   1ea48:	00000b13          	li	s6,0
   1ea4c:	02812403          	lw	s0,40(sp)
   1ea50:	02c12083          	lw	ra,44(sp)
   1ea54:	02412483          	lw	s1,36(sp)
   1ea58:	02012903          	lw	s2,32(sp)
   1ea5c:	01812a03          	lw	s4,24(sp)
   1ea60:	01412a83          	lw	s5,20(sp)
   1ea64:	01c12983          	lw	s3,28(sp)
   1ea68:	000b0593          	mv	a1,s6
   1ea6c:	01012b03          	lw	s6,16(sp)
   1ea70:	03010113          	add	sp,sp,48
   1ea74:	00008067          	ret
   1ea78:	02d5f263          	bgeu	a1,a3,1ea9c <__udivdi3+0x1a4>
   1ea7c:	00000b13          	li	s6,0
   1ea80:	00000513          	li	a0,0
   1ea84:	02c12083          	lw	ra,44(sp)
   1ea88:	01c12983          	lw	s3,28(sp)
   1ea8c:	000b0593          	mv	a1,s6
   1ea90:	01012b03          	lw	s6,16(sp)
   1ea94:	03010113          	add	sp,sp,48
   1ea98:	00008067          	ret
   1ea9c:	000107b7          	lui	a5,0x10
   1eaa0:	26f6ee63          	bltu	a3,a5,1ed1c <__udivdi3+0x424>
   1eaa4:	01000737          	lui	a4,0x1000
   1eaa8:	01800793          	li	a5,24
   1eaac:	00e6f463          	bgeu	a3,a4,1eab4 <__udivdi3+0x1bc>
   1eab0:	01000793          	li	a5,16
   1eab4:	00f6d533          	srl	a0,a3,a5
   1eab8:	00004717          	auipc	a4,0x4
   1eabc:	44c70713          	add	a4,a4,1100 # 22f04 <__clz_tab>
   1eac0:	00a70733          	add	a4,a4,a0
   1eac4:	00074703          	lbu	a4,0(a4)
   1eac8:	02000513          	li	a0,32
   1eacc:	00f70733          	add	a4,a4,a5
   1ead0:	40e50b33          	sub	s6,a0,a4
   1ead4:	26e51c63          	bne	a0,a4,1ed4c <__udivdi3+0x454>
   1ead8:	46b6ee63          	bltu	a3,a1,1ef54 <__udivdi3+0x65c>
   1eadc:	00c9b533          	sltu	a0,s3,a2
   1eae0:	00153513          	seqz	a0,a0
   1eae4:	00000b13          	li	s6,0
   1eae8:	f9dff06f          	j	1ea84 <__udivdi3+0x18c>
   1eaec:	10060c63          	beqz	a2,1ec04 <__udivdi3+0x30c>
   1eaf0:	000107b7          	lui	a5,0x10
   1eaf4:	44f67663          	bgeu	a2,a5,1ef40 <__udivdi3+0x648>
   1eaf8:	10063713          	sltiu	a4,a2,256
   1eafc:	00173713          	seqz	a4,a4
   1eb00:	00371713          	sll	a4,a4,0x3
   1eb04:	00e656b3          	srl	a3,a2,a4
   1eb08:	00004797          	auipc	a5,0x4
   1eb0c:	3fc78793          	add	a5,a5,1020 # 22f04 <__clz_tab>
   1eb10:	00d787b3          	add	a5,a5,a3
   1eb14:	0007c483          	lbu	s1,0(a5)
   1eb18:	02000793          	li	a5,32
   1eb1c:	00e484b3          	add	s1,s1,a4
   1eb20:	40978733          	sub	a4,a5,s1
   1eb24:	10979463          	bne	a5,s1,1ec2c <__udivdi3+0x334>
   1eb28:	01061a13          	sll	s4,a2,0x10
   1eb2c:	40c584b3          	sub	s1,a1,a2
   1eb30:	01065913          	srl	s2,a2,0x10
   1eb34:	010a5a13          	srl	s4,s4,0x10
   1eb38:	00100b13          	li	s6,1
   1eb3c:	00090593          	mv	a1,s2
   1eb40:	00048513          	mv	a0,s1
   1eb44:	5b4030ef          	jal	220f8 <__hidden___udivsi3>
   1eb48:	000a0593          	mv	a1,s4
   1eb4c:	00050993          	mv	s3,a0
   1eb50:	57c030ef          	jal	220cc <__mulsi3>
   1eb54:	00050793          	mv	a5,a0
   1eb58:	00090593          	mv	a1,s2
   1eb5c:	00048513          	mv	a0,s1
   1eb60:	00078493          	mv	s1,a5
   1eb64:	5dc030ef          	jal	22140 <__umodsi3>
   1eb68:	01051513          	sll	a0,a0,0x10
   1eb6c:	01045793          	srl	a5,s0,0x10
   1eb70:	00a7e7b3          	or	a5,a5,a0
   1eb74:	0097fc63          	bgeu	a5,s1,1eb8c <__udivdi3+0x294>
   1eb78:	00fa87b3          	add	a5,s5,a5
   1eb7c:	fff98713          	add	a4,s3,-1
   1eb80:	0157e463          	bltu	a5,s5,1eb88 <__udivdi3+0x290>
   1eb84:	3e97ee63          	bltu	a5,s1,1ef80 <__udivdi3+0x688>
   1eb88:	00070993          	mv	s3,a4
   1eb8c:	409784b3          	sub	s1,a5,s1
   1eb90:	00090593          	mv	a1,s2
   1eb94:	00048513          	mv	a0,s1
   1eb98:	560030ef          	jal	220f8 <__hidden___udivsi3>
   1eb9c:	000a0593          	mv	a1,s4
   1eba0:	00050a13          	mv	s4,a0
   1eba4:	528030ef          	jal	220cc <__mulsi3>
   1eba8:	00050793          	mv	a5,a0
   1ebac:	00090593          	mv	a1,s2
   1ebb0:	00048513          	mv	a0,s1
   1ebb4:	01041413          	sll	s0,s0,0x10
   1ebb8:	00078493          	mv	s1,a5
   1ebbc:	584030ef          	jal	22140 <__umodsi3>
   1ebc0:	01051513          	sll	a0,a0,0x10
   1ebc4:	01045413          	srl	s0,s0,0x10
   1ebc8:	00a46433          	or	s0,s0,a0
   1ebcc:	00947e63          	bgeu	s0,s1,1ebe8 <__udivdi3+0x2f0>
   1ebd0:	008a8433          	add	s0,s5,s0
   1ebd4:	fffa0793          	add	a5,s4,-1
   1ebd8:	01546663          	bltu	s0,s5,1ebe4 <__udivdi3+0x2ec>
   1ebdc:	ffea0a13          	add	s4,s4,-2
   1ebe0:	00946463          	bltu	s0,s1,1ebe8 <__udivdi3+0x2f0>
   1ebe4:	00078a13          	mv	s4,a5
   1ebe8:	01099613          	sll	a2,s3,0x10
   1ebec:	01466533          	or	a0,a2,s4
   1ebf0:	e5dff06f          	j	1ea4c <__udivdi3+0x154>
   1ebf4:	10063713          	sltiu	a4,a2,256
   1ebf8:	00173713          	seqz	a4,a4
   1ebfc:	00371713          	sll	a4,a4,0x3
   1ec00:	d4dff06f          	j	1e94c <__udivdi3+0x54>
   1ec04:	00000693          	li	a3,0
   1ec08:	00004797          	auipc	a5,0x4
   1ec0c:	2fc78793          	add	a5,a5,764 # 22f04 <__clz_tab>
   1ec10:	00d787b3          	add	a5,a5,a3
   1ec14:	0007c483          	lbu	s1,0(a5)
   1ec18:	00000713          	li	a4,0
   1ec1c:	02000793          	li	a5,32
   1ec20:	00e484b3          	add	s1,s1,a4
   1ec24:	40978733          	sub	a4,a5,s1
   1ec28:	f09780e3          	beq	a5,s1,1eb28 <__udivdi3+0x230>
   1ec2c:	00e61ab3          	sll	s5,a2,a4
   1ec30:	01712623          	sw	s7,12(sp)
   1ec34:	010ad913          	srl	s2,s5,0x10
   1ec38:	0095dbb3          	srl	s7,a1,s1
   1ec3c:	00e597b3          	sll	a5,a1,a4
   1ec40:	0099d4b3          	srl	s1,s3,s1
   1ec44:	00090593          	mv	a1,s2
   1ec48:	000b8513          	mv	a0,s7
   1ec4c:	010a9a13          	sll	s4,s5,0x10
   1ec50:	00f4e4b3          	or	s1,s1,a5
   1ec54:	00e99433          	sll	s0,s3,a4
   1ec58:	010a5a13          	srl	s4,s4,0x10
   1ec5c:	49c030ef          	jal	220f8 <__hidden___udivsi3>
   1ec60:	00050593          	mv	a1,a0
   1ec64:	00050b13          	mv	s6,a0
   1ec68:	000a0513          	mv	a0,s4
   1ec6c:	460030ef          	jal	220cc <__mulsi3>
   1ec70:	00050993          	mv	s3,a0
   1ec74:	00090593          	mv	a1,s2
   1ec78:	000b8513          	mv	a0,s7
   1ec7c:	4c4030ef          	jal	22140 <__umodsi3>
   1ec80:	01051513          	sll	a0,a0,0x10
   1ec84:	0104d793          	srl	a5,s1,0x10
   1ec88:	00a7e7b3          	or	a5,a5,a0
   1ec8c:	0137fe63          	bgeu	a5,s3,1eca8 <__udivdi3+0x3b0>
   1ec90:	00fa87b3          	add	a5,s5,a5
   1ec94:	fffb0713          	add	a4,s6,-1
   1ec98:	2d57ec63          	bltu	a5,s5,1ef70 <__udivdi3+0x678>
   1ec9c:	2d37fa63          	bgeu	a5,s3,1ef70 <__udivdi3+0x678>
   1eca0:	ffeb0b13          	add	s6,s6,-2
   1eca4:	015787b3          	add	a5,a5,s5
   1eca8:	413789b3          	sub	s3,a5,s3
   1ecac:	00090593          	mv	a1,s2
   1ecb0:	00098513          	mv	a0,s3
   1ecb4:	444030ef          	jal	220f8 <__hidden___udivsi3>
   1ecb8:	00050593          	mv	a1,a0
   1ecbc:	00050b93          	mv	s7,a0
   1ecc0:	000a0513          	mv	a0,s4
   1ecc4:	408030ef          	jal	220cc <__mulsi3>
   1ecc8:	00050793          	mv	a5,a0
   1eccc:	00090593          	mv	a1,s2
   1ecd0:	00098513          	mv	a0,s3
   1ecd4:	01049493          	sll	s1,s1,0x10
   1ecd8:	00078993          	mv	s3,a5
   1ecdc:	464030ef          	jal	22140 <__umodsi3>
   1ece0:	01051513          	sll	a0,a0,0x10
   1ece4:	0104d493          	srl	s1,s1,0x10
   1ece8:	00a4e4b3          	or	s1,s1,a0
   1ecec:	0134fe63          	bgeu	s1,s3,1ed08 <__udivdi3+0x410>
   1ecf0:	009a84b3          	add	s1,s5,s1
   1ecf4:	fffb8793          	add	a5,s7,-1
   1ecf8:	2754e463          	bltu	s1,s5,1ef60 <__udivdi3+0x668>
   1ecfc:	2734f263          	bgeu	s1,s3,1ef60 <__udivdi3+0x668>
   1ed00:	ffeb8b93          	add	s7,s7,-2
   1ed04:	015484b3          	add	s1,s1,s5
   1ed08:	010b1b13          	sll	s6,s6,0x10
   1ed0c:	017b6b33          	or	s6,s6,s7
   1ed10:	413484b3          	sub	s1,s1,s3
   1ed14:	00c12b83          	lw	s7,12(sp)
   1ed18:	e25ff06f          	j	1eb3c <__udivdi3+0x244>
   1ed1c:	1006b793          	sltiu	a5,a3,256
   1ed20:	0017b793          	seqz	a5,a5
   1ed24:	00379793          	sll	a5,a5,0x3
   1ed28:	00f6d533          	srl	a0,a3,a5
   1ed2c:	00004717          	auipc	a4,0x4
   1ed30:	1d870713          	add	a4,a4,472 # 22f04 <__clz_tab>
   1ed34:	00a70733          	add	a4,a4,a0
   1ed38:	00074703          	lbu	a4,0(a4)
   1ed3c:	02000513          	li	a0,32
   1ed40:	00f70733          	add	a4,a4,a5
   1ed44:	40e50b33          	sub	s6,a0,a4
   1ed48:	d8e508e3          	beq	a0,a4,1ead8 <__udivdi3+0x1e0>
   1ed4c:	016696b3          	sll	a3,a3,s6
   1ed50:	01912223          	sw	s9,4(sp)
   1ed54:	00e65cb3          	srl	s9,a2,a4
   1ed58:	00dcecb3          	or	s9,s9,a3
   1ed5c:	01512a23          	sw	s5,20(sp)
   1ed60:	01712623          	sw	s7,12(sp)
   1ed64:	010cda93          	srl	s5,s9,0x10
   1ed68:	00e5dbb3          	srl	s7,a1,a4
   1ed6c:	016597b3          	sll	a5,a1,s6
   1ed70:	00e9d733          	srl	a4,s3,a4
   1ed74:	01812423          	sw	s8,8(sp)
   1ed78:	000a8593          	mv	a1,s5
   1ed7c:	000b8513          	mv	a0,s7
   1ed80:	010c9c13          	sll	s8,s9,0x10
   1ed84:	02812423          	sw	s0,40(sp)
   1ed88:	02912223          	sw	s1,36(sp)
   1ed8c:	03212023          	sw	s2,32(sp)
   1ed90:	00f764b3          	or	s1,a4,a5
   1ed94:	01661933          	sll	s2,a2,s6
   1ed98:	01412c23          	sw	s4,24(sp)
   1ed9c:	010c5c13          	srl	s8,s8,0x10
   1eda0:	358030ef          	jal	220f8 <__hidden___udivsi3>
   1eda4:	00050593          	mv	a1,a0
   1eda8:	00050413          	mv	s0,a0
   1edac:	000c0513          	mv	a0,s8
   1edb0:	31c030ef          	jal	220cc <__mulsi3>
   1edb4:	00050a13          	mv	s4,a0
   1edb8:	000a8593          	mv	a1,s5
   1edbc:	000b8513          	mv	a0,s7
   1edc0:	380030ef          	jal	22140 <__umodsi3>
   1edc4:	01051513          	sll	a0,a0,0x10
   1edc8:	0104d793          	srl	a5,s1,0x10
   1edcc:	00a7e7b3          	or	a5,a5,a0
   1edd0:	0147fe63          	bgeu	a5,s4,1edec <__udivdi3+0x4f4>
   1edd4:	00fc87b3          	add	a5,s9,a5
   1edd8:	fff40713          	add	a4,s0,-1
   1eddc:	1997ee63          	bltu	a5,s9,1ef78 <__udivdi3+0x680>
   1ede0:	1947fc63          	bgeu	a5,s4,1ef78 <__udivdi3+0x680>
   1ede4:	ffe40413          	add	s0,s0,-2
   1ede8:	019787b3          	add	a5,a5,s9
   1edec:	41478a33          	sub	s4,a5,s4
   1edf0:	000a8593          	mv	a1,s5
   1edf4:	000a0513          	mv	a0,s4
   1edf8:	300030ef          	jal	220f8 <__hidden___udivsi3>
   1edfc:	00050593          	mv	a1,a0
   1ee00:	00050b93          	mv	s7,a0
   1ee04:	000c0513          	mv	a0,s8
   1ee08:	2c4030ef          	jal	220cc <__mulsi3>
   1ee0c:	00050793          	mv	a5,a0
   1ee10:	000a8593          	mv	a1,s5
   1ee14:	000a0513          	mv	a0,s4
   1ee18:	00078a13          	mv	s4,a5
   1ee1c:	324030ef          	jal	22140 <__umodsi3>
   1ee20:	01049713          	sll	a4,s1,0x10
   1ee24:	01051513          	sll	a0,a0,0x10
   1ee28:	01075713          	srl	a4,a4,0x10
   1ee2c:	00a76733          	or	a4,a4,a0
   1ee30:	01477e63          	bgeu	a4,s4,1ee4c <__udivdi3+0x554>
   1ee34:	00ec8733          	add	a4,s9,a4
   1ee38:	fffb8793          	add	a5,s7,-1
   1ee3c:	13976663          	bltu	a4,s9,1ef68 <__udivdi3+0x670>
   1ee40:	13477463          	bgeu	a4,s4,1ef68 <__udivdi3+0x670>
   1ee44:	ffeb8b93          	add	s7,s7,-2
   1ee48:	01970733          	add	a4,a4,s9
   1ee4c:	00010e37          	lui	t3,0x10
   1ee50:	01041413          	sll	s0,s0,0x10
   1ee54:	01746433          	or	s0,s0,s7
   1ee58:	fffe0793          	add	a5,t3,-1 # ffff <exit-0x95>
   1ee5c:	00f47833          	and	a6,s0,a5
   1ee60:	00f977b3          	and	a5,s2,a5
   1ee64:	41470733          	sub	a4,a4,s4
   1ee68:	01045e93          	srl	t4,s0,0x10
   1ee6c:	01095913          	srl	s2,s2,0x10
   1ee70:	00080513          	mv	a0,a6
   1ee74:	00078593          	mv	a1,a5
   1ee78:	254030ef          	jal	220cc <__mulsi3>
   1ee7c:	00050313          	mv	t1,a0
   1ee80:	00090593          	mv	a1,s2
   1ee84:	00080513          	mv	a0,a6
   1ee88:	244030ef          	jal	220cc <__mulsi3>
   1ee8c:	00050813          	mv	a6,a0
   1ee90:	00078593          	mv	a1,a5
   1ee94:	000e8513          	mv	a0,t4
   1ee98:	234030ef          	jal	220cc <__mulsi3>
   1ee9c:	00050893          	mv	a7,a0
   1eea0:	00090593          	mv	a1,s2
   1eea4:	000e8513          	mv	a0,t4
   1eea8:	224030ef          	jal	220cc <__mulsi3>
   1eeac:	01035793          	srl	a5,t1,0x10
   1eeb0:	01180833          	add	a6,a6,a7
   1eeb4:	010787b3          	add	a5,a5,a6
   1eeb8:	0117f463          	bgeu	a5,a7,1eec0 <__udivdi3+0x5c8>
   1eebc:	01c50533          	add	a0,a0,t3
   1eec0:	0107d693          	srl	a3,a5,0x10
   1eec4:	00a686b3          	add	a3,a3,a0
   1eec8:	06d76863          	bltu	a4,a3,1ef38 <__udivdi3+0x640>
   1eecc:	04d70663          	beq	a4,a3,1ef18 <__udivdi3+0x620>
   1eed0:	00040513          	mv	a0,s0
   1eed4:	02812403          	lw	s0,40(sp)
   1eed8:	02c12083          	lw	ra,44(sp)
   1eedc:	00000b13          	li	s6,0
   1eee0:	02412483          	lw	s1,36(sp)
   1eee4:	02012903          	lw	s2,32(sp)
   1eee8:	01812a03          	lw	s4,24(sp)
   1eeec:	01412a83          	lw	s5,20(sp)
   1eef0:	00c12b83          	lw	s7,12(sp)
   1eef4:	00812c03          	lw	s8,8(sp)
   1eef8:	00412c83          	lw	s9,4(sp)
   1eefc:	01c12983          	lw	s3,28(sp)
   1ef00:	000b0593          	mv	a1,s6
   1ef04:	01012b03          	lw	s6,16(sp)
   1ef08:	03010113          	add	sp,sp,48
   1ef0c:	00008067          	ret
   1ef10:	00078993          	mv	s3,a5
   1ef14:	b2dff06f          	j	1ea40 <__udivdi3+0x148>
   1ef18:	00010737          	lui	a4,0x10
   1ef1c:	fff70713          	add	a4,a4,-1 # ffff <exit-0x95>
   1ef20:	00e7f7b3          	and	a5,a5,a4
   1ef24:	01079793          	sll	a5,a5,0x10
   1ef28:	00e37333          	and	t1,t1,a4
   1ef2c:	01699533          	sll	a0,s3,s6
   1ef30:	006787b3          	add	a5,a5,t1
   1ef34:	f8f57ee3          	bgeu	a0,a5,1eed0 <__udivdi3+0x5d8>
   1ef38:	fff40513          	add	a0,s0,-1
   1ef3c:	f99ff06f          	j	1eed4 <__udivdi3+0x5dc>
   1ef40:	010007b7          	lui	a5,0x1000
   1ef44:	04f67a63          	bgeu	a2,a5,1ef98 <__udivdi3+0x6a0>
   1ef48:	01065693          	srl	a3,a2,0x10
   1ef4c:	01000713          	li	a4,16
   1ef50:	bb9ff06f          	j	1eb08 <__udivdi3+0x210>
   1ef54:	00000b13          	li	s6,0
   1ef58:	00100513          	li	a0,1
   1ef5c:	b29ff06f          	j	1ea84 <__udivdi3+0x18c>
   1ef60:	00078b93          	mv	s7,a5
   1ef64:	da5ff06f          	j	1ed08 <__udivdi3+0x410>
   1ef68:	00078b93          	mv	s7,a5
   1ef6c:	ee1ff06f          	j	1ee4c <__udivdi3+0x554>
   1ef70:	00070b13          	mv	s6,a4
   1ef74:	d35ff06f          	j	1eca8 <__udivdi3+0x3b0>
   1ef78:	00070413          	mv	s0,a4
   1ef7c:	e71ff06f          	j	1edec <__udivdi3+0x4f4>
   1ef80:	ffe98993          	add	s3,s3,-2
   1ef84:	015787b3          	add	a5,a5,s5
   1ef88:	c05ff06f          	j	1eb8c <__udivdi3+0x294>
   1ef8c:	ffe90913          	add	s2,s2,-2
   1ef90:	015787b3          	add	a5,a5,s5
   1ef94:	a51ff06f          	j	1e9e4 <__udivdi3+0xec>
   1ef98:	01865693          	srl	a3,a2,0x18
   1ef9c:	01800713          	li	a4,24
   1efa0:	b69ff06f          	j	1eb08 <__udivdi3+0x210>

0001efa4 <__umoddi3>:
   1efa4:	fd010113          	add	sp,sp,-48
   1efa8:	02112623          	sw	ra,44(sp)
   1efac:	00050793          	mv	a5,a0
   1efb0:	14069663          	bnez	a3,1f0fc <__umoddi3+0x158>
   1efb4:	03212023          	sw	s2,32(sp)
   1efb8:	01412c23          	sw	s4,24(sp)
   1efbc:	02812423          	sw	s0,40(sp)
   1efc0:	02912223          	sw	s1,36(sp)
   1efc4:	01312e23          	sw	s3,28(sp)
   1efc8:	01512a23          	sw	s5,20(sp)
   1efcc:	00060a13          	mv	s4,a2
   1efd0:	00050913          	mv	s2,a0
   1efd4:	1ac5f663          	bgeu	a1,a2,1f180 <__umoddi3+0x1dc>
   1efd8:	01612823          	sw	s6,16(sp)
   1efdc:	00010737          	lui	a4,0x10
   1efe0:	00058993          	mv	s3,a1
   1efe4:	28e66063          	bltu	a2,a4,1f264 <__umoddi3+0x2c0>
   1efe8:	01000737          	lui	a4,0x1000
   1efec:	01800693          	li	a3,24
   1eff0:	00e67463          	bgeu	a2,a4,1eff8 <__umoddi3+0x54>
   1eff4:	01000693          	li	a3,16
   1eff8:	00d65533          	srl	a0,a2,a3
   1effc:	00004717          	auipc	a4,0x4
   1f000:	f0870713          	add	a4,a4,-248 # 22f04 <__clz_tab>
   1f004:	00a70733          	add	a4,a4,a0
   1f008:	00074703          	lbu	a4,0(a4)
   1f00c:	02000513          	li	a0,32
   1f010:	00d70733          	add	a4,a4,a3
   1f014:	40e504b3          	sub	s1,a0,a4
   1f018:	00e50c63          	beq	a0,a4,1f030 <__umoddi3+0x8c>
   1f01c:	009599b3          	sll	s3,a1,s1
   1f020:	00e7d733          	srl	a4,a5,a4
   1f024:	00961a33          	sll	s4,a2,s1
   1f028:	013769b3          	or	s3,a4,s3
   1f02c:	00979933          	sll	s2,a5,s1
   1f030:	010a5a93          	srl	s5,s4,0x10
   1f034:	000a8593          	mv	a1,s5
   1f038:	00098513          	mv	a0,s3
   1f03c:	010a1b13          	sll	s6,s4,0x10
   1f040:	0b8030ef          	jal	220f8 <__hidden___udivsi3>
   1f044:	010b5b13          	srl	s6,s6,0x10
   1f048:	000b0593          	mv	a1,s6
   1f04c:	080030ef          	jal	220cc <__mulsi3>
   1f050:	00050413          	mv	s0,a0
   1f054:	000a8593          	mv	a1,s5
   1f058:	00098513          	mv	a0,s3
   1f05c:	0e4030ef          	jal	22140 <__umodsi3>
   1f060:	01051513          	sll	a0,a0,0x10
   1f064:	01095793          	srl	a5,s2,0x10
   1f068:	00a7e7b3          	or	a5,a5,a0
   1f06c:	0087f863          	bgeu	a5,s0,1f07c <__umoddi3+0xd8>
   1f070:	00fa07b3          	add	a5,s4,a5
   1f074:	0147e463          	bltu	a5,s4,1f07c <__umoddi3+0xd8>
   1f078:	5687e863          	bltu	a5,s0,1f5e8 <__umoddi3+0x644>
   1f07c:	40878433          	sub	s0,a5,s0
   1f080:	000a8593          	mv	a1,s5
   1f084:	00040513          	mv	a0,s0
   1f088:	070030ef          	jal	220f8 <__hidden___udivsi3>
   1f08c:	000b0593          	mv	a1,s6
   1f090:	03c030ef          	jal	220cc <__mulsi3>
   1f094:	00050793          	mv	a5,a0
   1f098:	000a8593          	mv	a1,s5
   1f09c:	00040513          	mv	a0,s0
   1f0a0:	00078413          	mv	s0,a5
   1f0a4:	09c030ef          	jal	22140 <__umodsi3>
   1f0a8:	01091793          	sll	a5,s2,0x10
   1f0ac:	01051513          	sll	a0,a0,0x10
   1f0b0:	0107d793          	srl	a5,a5,0x10
   1f0b4:	00a7e7b3          	or	a5,a5,a0
   1f0b8:	0087f863          	bgeu	a5,s0,1f0c8 <__umoddi3+0x124>
   1f0bc:	00fa07b3          	add	a5,s4,a5
   1f0c0:	0147e463          	bltu	a5,s4,1f0c8 <__umoddi3+0x124>
   1f0c4:	5087ea63          	bltu	a5,s0,1f5d8 <__umoddi3+0x634>
   1f0c8:	01012b03          	lw	s6,16(sp)
   1f0cc:	408787b3          	sub	a5,a5,s0
   1f0d0:	0097d533          	srl	a0,a5,s1
   1f0d4:	02812403          	lw	s0,40(sp)
   1f0d8:	02412483          	lw	s1,36(sp)
   1f0dc:	02012903          	lw	s2,32(sp)
   1f0e0:	01c12983          	lw	s3,28(sp)
   1f0e4:	01812a03          	lw	s4,24(sp)
   1f0e8:	01412a83          	lw	s5,20(sp)
   1f0ec:	00000593          	li	a1,0
   1f0f0:	02c12083          	lw	ra,44(sp)
   1f0f4:	03010113          	add	sp,sp,48
   1f0f8:	00008067          	ret
   1f0fc:	00050893          	mv	a7,a0
   1f100:	fed5e8e3          	bltu	a1,a3,1f0f0 <__umoddi3+0x14c>
   1f104:	03212023          	sw	s2,32(sp)
   1f108:	01312e23          	sw	s3,28(sp)
   1f10c:	00010737          	lui	a4,0x10
   1f110:	00058813          	mv	a6,a1
   1f114:	24e6ec63          	bltu	a3,a4,1f36c <__umoddi3+0x3c8>
   1f118:	01000737          	lui	a4,0x1000
   1f11c:	01800513          	li	a0,24
   1f120:	00e6f463          	bgeu	a3,a4,1f128 <__umoddi3+0x184>
   1f124:	01000513          	li	a0,16
   1f128:	00a6d333          	srl	t1,a3,a0
   1f12c:	00004717          	auipc	a4,0x4
   1f130:	dd870713          	add	a4,a4,-552 # 22f04 <__clz_tab>
   1f134:	00670733          	add	a4,a4,t1
   1f138:	00074703          	lbu	a4,0(a4)
   1f13c:	02000313          	li	t1,32
   1f140:	00a709b3          	add	s3,a4,a0
   1f144:	41330933          	sub	s2,t1,s3
   1f148:	25331a63          	bne	t1,s3,1f39c <__umoddi3+0x3f8>
   1f14c:	00b6e463          	bltu	a3,a1,1f154 <__umoddi3+0x1b0>
   1f150:	00c7ea63          	bltu	a5,a2,1f164 <__umoddi3+0x1c0>
   1f154:	40c788b3          	sub	a7,a5,a2
   1f158:	40d586b3          	sub	a3,a1,a3
   1f15c:	0117b833          	sltu	a6,a5,a7
   1f160:	41068833          	sub	a6,a3,a6
   1f164:	02c12083          	lw	ra,44(sp)
   1f168:	02012903          	lw	s2,32(sp)
   1f16c:	01c12983          	lw	s3,28(sp)
   1f170:	00088513          	mv	a0,a7
   1f174:	00080593          	mv	a1,a6
   1f178:	03010113          	add	sp,sp,48
   1f17c:	00008067          	ret
   1f180:	0e060a63          	beqz	a2,1f274 <__umoddi3+0x2d0>
   1f184:	00010737          	lui	a4,0x10
   1f188:	42e67663          	bgeu	a2,a4,1f5b4 <__umoddi3+0x610>
   1f18c:	10063693          	sltiu	a3,a2,256
   1f190:	0016b693          	seqz	a3,a3
   1f194:	00369693          	sll	a3,a3,0x3
   1f198:	00d65533          	srl	a0,a2,a3
   1f19c:	00004717          	auipc	a4,0x4
   1f1a0:	d6870713          	add	a4,a4,-664 # 22f04 <__clz_tab>
   1f1a4:	00a70733          	add	a4,a4,a0
   1f1a8:	00074983          	lbu	s3,0(a4)
   1f1ac:	02000713          	li	a4,32
   1f1b0:	00d989b3          	add	s3,s3,a3
   1f1b4:	413704b3          	sub	s1,a4,s3
   1f1b8:	0f371263          	bne	a4,s3,1f29c <__umoddi3+0x2f8>
   1f1bc:	01061413          	sll	s0,a2,0x10
   1f1c0:	40c589b3          	sub	s3,a1,a2
   1f1c4:	01065a93          	srl	s5,a2,0x10
   1f1c8:	01045413          	srl	s0,s0,0x10
   1f1cc:	000a8593          	mv	a1,s5
   1f1d0:	00098513          	mv	a0,s3
   1f1d4:	725020ef          	jal	220f8 <__hidden___udivsi3>
   1f1d8:	00040593          	mv	a1,s0
   1f1dc:	6f1020ef          	jal	220cc <__mulsi3>
   1f1e0:	00050793          	mv	a5,a0
   1f1e4:	000a8593          	mv	a1,s5
   1f1e8:	00098513          	mv	a0,s3
   1f1ec:	00078993          	mv	s3,a5
   1f1f0:	751020ef          	jal	22140 <__umodsi3>
   1f1f4:	01051513          	sll	a0,a0,0x10
   1f1f8:	01095793          	srl	a5,s2,0x10
   1f1fc:	00a7e7b3          	or	a5,a5,a0
   1f200:	0137f863          	bgeu	a5,s3,1f210 <__umoddi3+0x26c>
   1f204:	00fa07b3          	add	a5,s4,a5
   1f208:	0147e463          	bltu	a5,s4,1f210 <__umoddi3+0x26c>
   1f20c:	3d37ea63          	bltu	a5,s3,1f5e0 <__umoddi3+0x63c>
   1f210:	413789b3          	sub	s3,a5,s3
   1f214:	000a8593          	mv	a1,s5
   1f218:	00098513          	mv	a0,s3
   1f21c:	6dd020ef          	jal	220f8 <__hidden___udivsi3>
   1f220:	00040593          	mv	a1,s0
   1f224:	6a9020ef          	jal	220cc <__mulsi3>
   1f228:	00050413          	mv	s0,a0
   1f22c:	000a8593          	mv	a1,s5
   1f230:	00098513          	mv	a0,s3
   1f234:	70d020ef          	jal	22140 <__umodsi3>
   1f238:	01091913          	sll	s2,s2,0x10
   1f23c:	01051793          	sll	a5,a0,0x10
   1f240:	01095913          	srl	s2,s2,0x10
   1f244:	00f967b3          	or	a5,s2,a5
   1f248:	0087fa63          	bgeu	a5,s0,1f25c <__umoddi3+0x2b8>
   1f24c:	00fa07b3          	add	a5,s4,a5
   1f250:	0147e663          	bltu	a5,s4,1f25c <__umoddi3+0x2b8>
   1f254:	0087f463          	bgeu	a5,s0,1f25c <__umoddi3+0x2b8>
   1f258:	014787b3          	add	a5,a5,s4
   1f25c:	408787b3          	sub	a5,a5,s0
   1f260:	e71ff06f          	j	1f0d0 <__umoddi3+0x12c>
   1f264:	10063693          	sltiu	a3,a2,256
   1f268:	0016b693          	seqz	a3,a3
   1f26c:	00369693          	sll	a3,a3,0x3
   1f270:	d89ff06f          	j	1eff8 <__umoddi3+0x54>
   1f274:	00000513          	li	a0,0
   1f278:	00004717          	auipc	a4,0x4
   1f27c:	c8c70713          	add	a4,a4,-884 # 22f04 <__clz_tab>
   1f280:	00a70733          	add	a4,a4,a0
   1f284:	00074983          	lbu	s3,0(a4)
   1f288:	00000693          	li	a3,0
   1f28c:	02000713          	li	a4,32
   1f290:	00d989b3          	add	s3,s3,a3
   1f294:	413704b3          	sub	s1,a4,s3
   1f298:	f33702e3          	beq	a4,s3,1f1bc <__umoddi3+0x218>
   1f29c:	00961a33          	sll	s4,a2,s1
   1f2a0:	01712623          	sw	s7,12(sp)
   1f2a4:	010a5a93          	srl	s5,s4,0x10
   1f2a8:	0135dbb3          	srl	s7,a1,s3
   1f2ac:	00959733          	sll	a4,a1,s1
   1f2b0:	0137d9b3          	srl	s3,a5,s3
   1f2b4:	000a8593          	mv	a1,s5
   1f2b8:	000b8513          	mv	a0,s7
   1f2bc:	010a1413          	sll	s0,s4,0x10
   1f2c0:	00e9e9b3          	or	s3,s3,a4
   1f2c4:	00979933          	sll	s2,a5,s1
   1f2c8:	01612823          	sw	s6,16(sp)
   1f2cc:	01045413          	srl	s0,s0,0x10
   1f2d0:	629020ef          	jal	220f8 <__hidden___udivsi3>
   1f2d4:	00040593          	mv	a1,s0
   1f2d8:	5f5020ef          	jal	220cc <__mulsi3>
   1f2dc:	00050b13          	mv	s6,a0
   1f2e0:	000a8593          	mv	a1,s5
   1f2e4:	000b8513          	mv	a0,s7
   1f2e8:	659020ef          	jal	22140 <__umodsi3>
   1f2ec:	01051513          	sll	a0,a0,0x10
   1f2f0:	0109d793          	srl	a5,s3,0x10
   1f2f4:	00a7e7b3          	or	a5,a5,a0
   1f2f8:	0167fa63          	bgeu	a5,s6,1f30c <__umoddi3+0x368>
   1f2fc:	00fa07b3          	add	a5,s4,a5
   1f300:	0147e663          	bltu	a5,s4,1f30c <__umoddi3+0x368>
   1f304:	0167f463          	bgeu	a5,s6,1f30c <__umoddi3+0x368>
   1f308:	014787b3          	add	a5,a5,s4
   1f30c:	41678b33          	sub	s6,a5,s6
   1f310:	000a8593          	mv	a1,s5
   1f314:	000b0513          	mv	a0,s6
   1f318:	5e1020ef          	jal	220f8 <__hidden___udivsi3>
   1f31c:	00040593          	mv	a1,s0
   1f320:	5ad020ef          	jal	220cc <__mulsi3>
   1f324:	00050793          	mv	a5,a0
   1f328:	000a8593          	mv	a1,s5
   1f32c:	000b0513          	mv	a0,s6
   1f330:	01099993          	sll	s3,s3,0x10
   1f334:	00078b13          	mv	s6,a5
   1f338:	609020ef          	jal	22140 <__umodsi3>
   1f33c:	01051513          	sll	a0,a0,0x10
   1f340:	0109d993          	srl	s3,s3,0x10
   1f344:	00a9e9b3          	or	s3,s3,a0
   1f348:	0169fa63          	bgeu	s3,s6,1f35c <__umoddi3+0x3b8>
   1f34c:	013a09b3          	add	s3,s4,s3
   1f350:	0149e663          	bltu	s3,s4,1f35c <__umoddi3+0x3b8>
   1f354:	0169f463          	bgeu	s3,s6,1f35c <__umoddi3+0x3b8>
   1f358:	014989b3          	add	s3,s3,s4
   1f35c:	416989b3          	sub	s3,s3,s6
   1f360:	00c12b83          	lw	s7,12(sp)
   1f364:	01012b03          	lw	s6,16(sp)
   1f368:	e65ff06f          	j	1f1cc <__umoddi3+0x228>
   1f36c:	1006b513          	sltiu	a0,a3,256
   1f370:	00153513          	seqz	a0,a0
   1f374:	00351513          	sll	a0,a0,0x3
   1f378:	00a6d333          	srl	t1,a3,a0
   1f37c:	00004717          	auipc	a4,0x4
   1f380:	b8870713          	add	a4,a4,-1144 # 22f04 <__clz_tab>
   1f384:	00670733          	add	a4,a4,t1
   1f388:	00074703          	lbu	a4,0(a4)
   1f38c:	02000313          	li	t1,32
   1f390:	00a709b3          	add	s3,a4,a0
   1f394:	41330933          	sub	s2,t1,s3
   1f398:	db330ae3          	beq	t1,s3,1f14c <__umoddi3+0x1a8>
   1f39c:	01512a23          	sw	s5,20(sp)
   1f3a0:	012696b3          	sll	a3,a3,s2
   1f3a4:	01365ab3          	srl	s5,a2,s3
   1f3a8:	00daeab3          	or	s5,s5,a3
   1f3ac:	01712623          	sw	s7,12(sp)
   1f3b0:	01a12023          	sw	s10,0(sp)
   1f3b4:	010adb93          	srl	s7,s5,0x10
   1f3b8:	0135dd33          	srl	s10,a1,s3
   1f3bc:	01259733          	sll	a4,a1,s2
   1f3c0:	0137d6b3          	srl	a3,a5,s3
   1f3c4:	01912223          	sw	s9,4(sp)
   1f3c8:	000b8593          	mv	a1,s7
   1f3cc:	000d0513          	mv	a0,s10
   1f3d0:	010a9c93          	sll	s9,s5,0x10
   1f3d4:	02812423          	sw	s0,40(sp)
   1f3d8:	02912223          	sw	s1,36(sp)
   1f3dc:	01261433          	sll	s0,a2,s2
   1f3e0:	012794b3          	sll	s1,a5,s2
   1f3e4:	01412c23          	sw	s4,24(sp)
   1f3e8:	01612823          	sw	s6,16(sp)
   1f3ec:	00e6ea33          	or	s4,a3,a4
   1f3f0:	01812423          	sw	s8,8(sp)
   1f3f4:	010cdc93          	srl	s9,s9,0x10
   1f3f8:	501020ef          	jal	220f8 <__hidden___udivsi3>
   1f3fc:	00050593          	mv	a1,a0
   1f400:	00050b13          	mv	s6,a0
   1f404:	000c8513          	mv	a0,s9
   1f408:	4c5020ef          	jal	220cc <__mulsi3>
   1f40c:	00050c13          	mv	s8,a0
   1f410:	000b8593          	mv	a1,s7
   1f414:	000d0513          	mv	a0,s10
   1f418:	529020ef          	jal	22140 <__umodsi3>
   1f41c:	01051513          	sll	a0,a0,0x10
   1f420:	010a5793          	srl	a5,s4,0x10
   1f424:	00a7e7b3          	or	a5,a5,a0
   1f428:	0187fe63          	bgeu	a5,s8,1f444 <__umoddi3+0x4a0>
   1f42c:	00fa87b3          	add	a5,s5,a5
   1f430:	fffb0713          	add	a4,s6,-1
   1f434:	1957ee63          	bltu	a5,s5,1f5d0 <__umoddi3+0x62c>
   1f438:	1987fc63          	bgeu	a5,s8,1f5d0 <__umoddi3+0x62c>
   1f43c:	ffeb0b13          	add	s6,s6,-2
   1f440:	015787b3          	add	a5,a5,s5
   1f444:	41878c33          	sub	s8,a5,s8
   1f448:	000b8593          	mv	a1,s7
   1f44c:	000c0513          	mv	a0,s8
   1f450:	4a9020ef          	jal	220f8 <__hidden___udivsi3>
   1f454:	00050593          	mv	a1,a0
   1f458:	00050d13          	mv	s10,a0
   1f45c:	000c8513          	mv	a0,s9
   1f460:	46d020ef          	jal	220cc <__mulsi3>
   1f464:	00050793          	mv	a5,a0
   1f468:	000b8593          	mv	a1,s7
   1f46c:	000c0513          	mv	a0,s8
   1f470:	00078b93          	mv	s7,a5
   1f474:	4cd020ef          	jal	22140 <__umodsi3>
   1f478:	010a1593          	sll	a1,s4,0x10
   1f47c:	01051513          	sll	a0,a0,0x10
   1f480:	0105d593          	srl	a1,a1,0x10
   1f484:	00a5e5b3          	or	a1,a1,a0
   1f488:	0175fe63          	bgeu	a1,s7,1f4a4 <__umoddi3+0x500>
   1f48c:	00ba85b3          	add	a1,s5,a1
   1f490:	fffd0793          	add	a5,s10,-1
   1f494:	1355ea63          	bltu	a1,s5,1f5c8 <__umoddi3+0x624>
   1f498:	1375f863          	bgeu	a1,s7,1f5c8 <__umoddi3+0x624>
   1f49c:	ffed0d13          	add	s10,s10,-2
   1f4a0:	015585b3          	add	a1,a1,s5
   1f4a4:	010b1793          	sll	a5,s6,0x10
   1f4a8:	00010e37          	lui	t3,0x10
   1f4ac:	01a7e7b3          	or	a5,a5,s10
   1f4b0:	fffe0313          	add	t1,t3,-1 # ffff <exit-0x95>
   1f4b4:	0067f8b3          	and	a7,a5,t1
   1f4b8:	00647333          	and	t1,s0,t1
   1f4bc:	41758733          	sub	a4,a1,s7
   1f4c0:	0107d793          	srl	a5,a5,0x10
   1f4c4:	01045e93          	srl	t4,s0,0x10
   1f4c8:	00088513          	mv	a0,a7
   1f4cc:	00030593          	mv	a1,t1
   1f4d0:	3fd020ef          	jal	220cc <__mulsi3>
   1f4d4:	00050813          	mv	a6,a0
   1f4d8:	000e8593          	mv	a1,t4
   1f4dc:	00088513          	mv	a0,a7
   1f4e0:	3ed020ef          	jal	220cc <__mulsi3>
   1f4e4:	00050893          	mv	a7,a0
   1f4e8:	00030593          	mv	a1,t1
   1f4ec:	00078513          	mv	a0,a5
   1f4f0:	3dd020ef          	jal	220cc <__mulsi3>
   1f4f4:	00050313          	mv	t1,a0
   1f4f8:	000e8593          	mv	a1,t4
   1f4fc:	00078513          	mv	a0,a5
   1f500:	3cd020ef          	jal	220cc <__mulsi3>
   1f504:	01085793          	srl	a5,a6,0x10
   1f508:	006888b3          	add	a7,a7,t1
   1f50c:	011787b3          	add	a5,a5,a7
   1f510:	0067f463          	bgeu	a5,t1,1f518 <__umoddi3+0x574>
   1f514:	01c50533          	add	a0,a0,t3
   1f518:	00010637          	lui	a2,0x10
   1f51c:	fff60613          	add	a2,a2,-1 # ffff <exit-0x95>
   1f520:	0107d693          	srl	a3,a5,0x10
   1f524:	00c7f7b3          	and	a5,a5,a2
   1f528:	01079793          	sll	a5,a5,0x10
   1f52c:	00c87833          	and	a6,a6,a2
   1f530:	00a686b3          	add	a3,a3,a0
   1f534:	010787b3          	add	a5,a5,a6
   1f538:	06d76263          	bltu	a4,a3,1f59c <__umoddi3+0x5f8>
   1f53c:	04d70e63          	beq	a4,a3,1f598 <__umoddi3+0x5f4>
   1f540:	40f487b3          	sub	a5,s1,a5
   1f544:	00f4b4b3          	sltu	s1,s1,a5
   1f548:	02812403          	lw	s0,40(sp)
   1f54c:	02c12083          	lw	ra,44(sp)
   1f550:	40d705b3          	sub	a1,a4,a3
   1f554:	409585b3          	sub	a1,a1,s1
   1f558:	01359733          	sll	a4,a1,s3
   1f55c:	0127d7b3          	srl	a5,a5,s2
   1f560:	02412483          	lw	s1,36(sp)
   1f564:	01c12983          	lw	s3,28(sp)
   1f568:	01812a03          	lw	s4,24(sp)
   1f56c:	01412a83          	lw	s5,20(sp)
   1f570:	01012b03          	lw	s6,16(sp)
   1f574:	00c12b83          	lw	s7,12(sp)
   1f578:	00812c03          	lw	s8,8(sp)
   1f57c:	00412c83          	lw	s9,4(sp)
   1f580:	00012d03          	lw	s10,0(sp)
   1f584:	0125d5b3          	srl	a1,a1,s2
   1f588:	00f76533          	or	a0,a4,a5
   1f58c:	02012903          	lw	s2,32(sp)
   1f590:	03010113          	add	sp,sp,48
   1f594:	00008067          	ret
   1f598:	faf4f4e3          	bgeu	s1,a5,1f540 <__umoddi3+0x59c>
   1f59c:	40878433          	sub	s0,a5,s0
   1f5a0:	0087b7b3          	sltu	a5,a5,s0
   1f5a4:	01578ab3          	add	s5,a5,s5
   1f5a8:	415686b3          	sub	a3,a3,s5
   1f5ac:	00040793          	mv	a5,s0
   1f5b0:	f91ff06f          	j	1f540 <__umoddi3+0x59c>
   1f5b4:	01000737          	lui	a4,0x1000
   1f5b8:	02e67c63          	bgeu	a2,a4,1f5f0 <__umoddi3+0x64c>
   1f5bc:	01065513          	srl	a0,a2,0x10
   1f5c0:	01000693          	li	a3,16
   1f5c4:	bd9ff06f          	j	1f19c <__umoddi3+0x1f8>
   1f5c8:	00078d13          	mv	s10,a5
   1f5cc:	ed9ff06f          	j	1f4a4 <__umoddi3+0x500>
   1f5d0:	00070b13          	mv	s6,a4
   1f5d4:	e71ff06f          	j	1f444 <__umoddi3+0x4a0>
   1f5d8:	014787b3          	add	a5,a5,s4
   1f5dc:	aedff06f          	j	1f0c8 <__umoddi3+0x124>
   1f5e0:	014787b3          	add	a5,a5,s4
   1f5e4:	c2dff06f          	j	1f210 <__umoddi3+0x26c>
   1f5e8:	014787b3          	add	a5,a5,s4
   1f5ec:	a91ff06f          	j	1f07c <__umoddi3+0xd8>
   1f5f0:	01865513          	srl	a0,a2,0x18
   1f5f4:	01800693          	li	a3,24
   1f5f8:	ba5ff06f          	j	1f19c <__umoddi3+0x1f8>

0001f5fc <__adddf3>:
   1f5fc:	001007b7          	lui	a5,0x100
   1f600:	fe010113          	add	sp,sp,-32
   1f604:	fff78e93          	add	t4,a5,-1 # fffff <__BSS_END__+0xdb0ef>
   1f608:	00bef833          	and	a6,t4,a1
   1f60c:	00def7b3          	and	a5,t4,a3
   1f610:	0146d313          	srl	t1,a3,0x14
   1f614:	01212823          	sw	s2,16(sp)
   1f618:	0145d913          	srl	s2,a1,0x14
   1f61c:	00379793          	sll	a5,a5,0x3
   1f620:	00812c23          	sw	s0,24(sp)
   1f624:	00381813          	sll	a6,a6,0x3
   1f628:	01f5d413          	srl	s0,a1,0x1f
   1f62c:	01d55713          	srl	a4,a0,0x1d
   1f630:	01d65893          	srl	a7,a2,0x1d
   1f634:	7ff97913          	and	s2,s2,2047
   1f638:	7ff37313          	and	t1,t1,2047
   1f63c:	00112e23          	sw	ra,28(sp)
   1f640:	00912a23          	sw	s1,20(sp)
   1f644:	01312623          	sw	s3,12(sp)
   1f648:	01f6d693          	srl	a3,a3,0x1f
   1f64c:	00f8e8b3          	or	a7,a7,a5
   1f650:	01076733          	or	a4,a4,a6
   1f654:	00351593          	sll	a1,a0,0x3
   1f658:	00361f13          	sll	t5,a2,0x3
   1f65c:	406907b3          	sub	a5,s2,t1
   1f660:	1ed40463          	beq	s0,a3,1f848 <__adddf3+0x24c>
   1f664:	16f05263          	blez	a5,1f7c8 <__adddf3+0x1cc>
   1f668:	28030663          	beqz	t1,1f8f4 <__adddf3+0x2f8>
   1f66c:	7ff00693          	li	a3,2047
   1f670:	42d90663          	beq	s2,a3,1fa9c <__adddf3+0x4a0>
   1f674:	03800693          	li	a3,56
   1f678:	00100613          	li	a2,1
   1f67c:	02f6ce63          	blt	a3,a5,1f6b8 <__adddf3+0xbc>
   1f680:	008006b7          	lui	a3,0x800
   1f684:	00d8e8b3          	or	a7,a7,a3
   1f688:	01f00693          	li	a3,31
   1f68c:	52f6ce63          	blt	a3,a5,1fbc8 <__adddf3+0x5cc>
   1f690:	02000693          	li	a3,32
   1f694:	40f686b3          	sub	a3,a3,a5
   1f698:	00d89633          	sll	a2,a7,a3
   1f69c:	00ff5533          	srl	a0,t5,a5
   1f6a0:	00df16b3          	sll	a3,t5,a3
   1f6a4:	00a66633          	or	a2,a2,a0
   1f6a8:	00d036b3          	snez	a3,a3
   1f6ac:	00f8d8b3          	srl	a7,a7,a5
   1f6b0:	00d66633          	or	a2,a2,a3
   1f6b4:	41170733          	sub	a4,a4,a7
   1f6b8:	40c58633          	sub	a2,a1,a2
   1f6bc:	00c5b5b3          	sltu	a1,a1,a2
   1f6c0:	00060493          	mv	s1,a2
   1f6c4:	40b709b3          	sub	s3,a4,a1
   1f6c8:	00899793          	sll	a5,s3,0x8
   1f6cc:	3207da63          	bgez	a5,1fa00 <__adddf3+0x404>
   1f6d0:	008007b7          	lui	a5,0x800
   1f6d4:	fff78793          	add	a5,a5,-1 # 7fffff <__BSS_END__+0x7db0ef>
   1f6d8:	00f9f9b3          	and	s3,s3,a5
   1f6dc:	2c098863          	beqz	s3,1f9ac <__adddf3+0x3b0>
   1f6e0:	00098513          	mv	a0,s3
   1f6e4:	2c1020ef          	jal	221a4 <__clzsi2>
   1f6e8:	ff850793          	add	a5,a0,-8
   1f6ec:	02000693          	li	a3,32
   1f6f0:	40f68733          	sub	a4,a3,a5
   1f6f4:	00e4d733          	srl	a4,s1,a4
   1f6f8:	00f999b3          	sll	s3,s3,a5
   1f6fc:	01376733          	or	a4,a4,s3
   1f700:	00f494b3          	sll	s1,s1,a5
   1f704:	4b27c863          	blt	a5,s2,1fbb4 <__adddf3+0x5b8>
   1f708:	412787b3          	sub	a5,a5,s2
   1f70c:	00178793          	add	a5,a5,1
   1f710:	40f686b3          	sub	a3,a3,a5
   1f714:	00d49633          	sll	a2,s1,a3
   1f718:	00f4d9b3          	srl	s3,s1,a5
   1f71c:	00c03633          	snez	a2,a2
   1f720:	01366633          	or	a2,a2,s3
   1f724:	00d716b3          	sll	a3,a4,a3
   1f728:	00c6e4b3          	or	s1,a3,a2
   1f72c:	00f759b3          	srl	s3,a4,a5
   1f730:	00000913          	li	s2,0
   1f734:	0074f793          	and	a5,s1,7
   1f738:	02078063          	beqz	a5,1f758 <__adddf3+0x15c>
   1f73c:	00f4f793          	and	a5,s1,15
   1f740:	00400713          	li	a4,4
   1f744:	00e78a63          	beq	a5,a4,1f758 <__adddf3+0x15c>
   1f748:	00448793          	add	a5,s1,4
   1f74c:	0097b633          	sltu	a2,a5,s1
   1f750:	00c989b3          	add	s3,s3,a2
   1f754:	00078493          	mv	s1,a5
   1f758:	00899793          	sll	a5,s3,0x8
   1f75c:	6e07da63          	bgez	a5,1fe50 <__adddf3+0x854>
   1f760:	00190793          	add	a5,s2,1
   1f764:	7ff00713          	li	a4,2047
   1f768:	00040e13          	mv	t3,s0
   1f76c:	2ae78663          	beq	a5,a4,1fa18 <__adddf3+0x41c>
   1f770:	ff800737          	lui	a4,0xff800
   1f774:	fff70713          	add	a4,a4,-1 # ff7fffff <__BSS_END__+0xff7db0ef>
   1f778:	00e9f733          	and	a4,s3,a4
   1f77c:	7ff7f793          	and	a5,a5,2047
   1f780:	01d71813          	sll	a6,a4,0x1d
   1f784:	0034d613          	srl	a2,s1,0x3
   1f788:	00971713          	sll	a4,a4,0x9
   1f78c:	00c86833          	or	a6,a6,a2
   1f790:	00c75713          	srl	a4,a4,0xc
   1f794:	01c12083          	lw	ra,28(sp)
   1f798:	01812403          	lw	s0,24(sp)
   1f79c:	01479793          	sll	a5,a5,0x14
   1f7a0:	00e7e7b3          	or	a5,a5,a4
   1f7a4:	01fe1713          	sll	a4,t3,0x1f
   1f7a8:	00e7e7b3          	or	a5,a5,a4
   1f7ac:	01412483          	lw	s1,20(sp)
   1f7b0:	01012903          	lw	s2,16(sp)
   1f7b4:	00c12983          	lw	s3,12(sp)
   1f7b8:	00080513          	mv	a0,a6
   1f7bc:	00078593          	mv	a1,a5
   1f7c0:	02010113          	add	sp,sp,32
   1f7c4:	00008067          	ret
   1f7c8:	14078c63          	beqz	a5,1f920 <__adddf3+0x324>
   1f7cc:	412307b3          	sub	a5,t1,s2
   1f7d0:	3c091263          	bnez	s2,1fb94 <__adddf3+0x598>
   1f7d4:	00b76533          	or	a0,a4,a1
   1f7d8:	4c050463          	beqz	a0,1fca0 <__adddf3+0x6a4>
   1f7dc:	fff78513          	add	a0,a5,-1
   1f7e0:	60050263          	beqz	a0,1fde4 <__adddf3+0x7e8>
   1f7e4:	7ff00813          	li	a6,2047
   1f7e8:	57078663          	beq	a5,a6,1fd54 <__adddf3+0x758>
   1f7ec:	03800793          	li	a5,56
   1f7f0:	00100613          	li	a2,1
   1f7f4:	02a7cc63          	blt	a5,a0,1f82c <__adddf3+0x230>
   1f7f8:	00050793          	mv	a5,a0
   1f7fc:	01f00613          	li	a2,31
   1f800:	56f64c63          	blt	a2,a5,1fd78 <__adddf3+0x77c>
   1f804:	02000513          	li	a0,32
   1f808:	40f50533          	sub	a0,a0,a5
   1f80c:	00a71633          	sll	a2,a4,a0
   1f810:	00f5d833          	srl	a6,a1,a5
   1f814:	00a59533          	sll	a0,a1,a0
   1f818:	01066633          	or	a2,a2,a6
   1f81c:	00a03533          	snez	a0,a0
   1f820:	00f75733          	srl	a4,a4,a5
   1f824:	00a66633          	or	a2,a2,a0
   1f828:	40e888b3          	sub	a7,a7,a4
   1f82c:	40cf0633          	sub	a2,t5,a2
   1f830:	00cf3733          	sltu	a4,t5,a2
   1f834:	00060493          	mv	s1,a2
   1f838:	40e889b3          	sub	s3,a7,a4
   1f83c:	00030913          	mv	s2,t1
   1f840:	00068413          	mv	s0,a3
   1f844:	e85ff06f          	j	1f6c8 <__adddf3+0xcc>
   1f848:	1ef05063          	blez	a5,1fa28 <__adddf3+0x42c>
   1f84c:	14031063          	bnez	t1,1f98c <__adddf3+0x390>
   1f850:	01e8e6b3          	or	a3,a7,t5
   1f854:	26068c63          	beqz	a3,1facc <__adddf3+0x4d0>
   1f858:	fff78693          	add	a3,a5,-1
   1f85c:	48068063          	beqz	a3,1fcdc <__adddf3+0x6e0>
   1f860:	7ff00613          	li	a2,2047
   1f864:	22c78c63          	beq	a5,a2,1fa9c <__adddf3+0x4a0>
   1f868:	03800793          	li	a5,56
   1f86c:	00100993          	li	s3,1
   1f870:	02d7cc63          	blt	a5,a3,1f8a8 <__adddf3+0x2ac>
   1f874:	00068793          	mv	a5,a3
   1f878:	01f00693          	li	a3,31
   1f87c:	4af6c063          	blt	a3,a5,1fd1c <__adddf3+0x720>
   1f880:	02000693          	li	a3,32
   1f884:	40f686b3          	sub	a3,a3,a5
   1f888:	00d899b3          	sll	s3,a7,a3
   1f88c:	00ff5633          	srl	a2,t5,a5
   1f890:	00df16b3          	sll	a3,t5,a3
   1f894:	00c9e9b3          	or	s3,s3,a2
   1f898:	00d036b3          	snez	a3,a3
   1f89c:	00f8d8b3          	srl	a7,a7,a5
   1f8a0:	00d9e9b3          	or	s3,s3,a3
   1f8a4:	01170733          	add	a4,a4,a7
   1f8a8:	00b985b3          	add	a1,s3,a1
   1f8ac:	0135b9b3          	sltu	s3,a1,s3
   1f8b0:	00058493          	mv	s1,a1
   1f8b4:	00e989b3          	add	s3,s3,a4
   1f8b8:	00899793          	sll	a5,s3,0x8
   1f8bc:	1407d263          	bgez	a5,1fa00 <__adddf3+0x404>
   1f8c0:	00190913          	add	s2,s2,1
   1f8c4:	7ff00793          	li	a5,2047
   1f8c8:	36f90c63          	beq	s2,a5,1fc40 <__adddf3+0x644>
   1f8cc:	ff8007b7          	lui	a5,0xff800
   1f8d0:	fff78793          	add	a5,a5,-1 # ff7fffff <__BSS_END__+0xff7db0ef>
   1f8d4:	0014f613          	and	a2,s1,1
   1f8d8:	00f9f7b3          	and	a5,s3,a5
   1f8dc:	0014d713          	srl	a4,s1,0x1
   1f8e0:	00c76733          	or	a4,a4,a2
   1f8e4:	01f79613          	sll	a2,a5,0x1f
   1f8e8:	00e664b3          	or	s1,a2,a4
   1f8ec:	0017d993          	srl	s3,a5,0x1
   1f8f0:	e45ff06f          	j	1f734 <__adddf3+0x138>
   1f8f4:	01e8e6b3          	or	a3,a7,t5
   1f8f8:	1c068a63          	beqz	a3,1facc <__adddf3+0x4d0>
   1f8fc:	fff78693          	add	a3,a5,-1
   1f900:	40068063          	beqz	a3,1fd00 <__adddf3+0x704>
   1f904:	7ff00613          	li	a2,2047
   1f908:	18c78a63          	beq	a5,a2,1fa9c <__adddf3+0x4a0>
   1f90c:	03800793          	li	a5,56
   1f910:	00100613          	li	a2,1
   1f914:	dad7c2e3          	blt	a5,a3,1f6b8 <__adddf3+0xbc>
   1f918:	00068793          	mv	a5,a3
   1f91c:	d6dff06f          	j	1f688 <__adddf3+0x8c>
   1f920:	00190813          	add	a6,s2,1
   1f924:	7fe87813          	and	a6,a6,2046
   1f928:	22081c63          	bnez	a6,1fb60 <__adddf3+0x564>
   1f92c:	00b76333          	or	t1,a4,a1
   1f930:	01e8e833          	or	a6,a7,t5
   1f934:	38091063          	bnez	s2,1fcb4 <__adddf3+0x6b8>
   1f938:	46030e63          	beqz	t1,1fdb4 <__adddf3+0x7b8>
   1f93c:	40080663          	beqz	a6,1fd48 <__adddf3+0x74c>
   1f940:	41e589b3          	sub	s3,a1,t5
   1f944:	0135b533          	sltu	a0,a1,s3
   1f948:	41170633          	sub	a2,a4,a7
   1f94c:	40a60633          	sub	a2,a2,a0
   1f950:	00861513          	sll	a0,a2,0x8
   1f954:	50055e63          	bgez	a0,1fe70 <__adddf3+0x874>
   1f958:	40bf05b3          	sub	a1,t5,a1
   1f95c:	40e88733          	sub	a4,a7,a4
   1f960:	00bf3f33          	sltu	t5,t5,a1
   1f964:	41e70733          	sub	a4,a4,t5
   1f968:	00871613          	sll	a2,a4,0x8
   1f96c:	00058493          	mv	s1,a1
   1f970:	52065e63          	bgez	a2,1feac <__adddf3+0x8b0>
   1f974:	ff8007b7          	lui	a5,0xff800
   1f978:	fff78793          	add	a5,a5,-1 # ff7fffff <__BSS_END__+0xff7db0ef>
   1f97c:	00f77733          	and	a4,a4,a5
   1f980:	00068e13          	mv	t3,a3
   1f984:	00100793          	li	a5,1
   1f988:	df9ff06f          	j	1f780 <__adddf3+0x184>
   1f98c:	7ff00693          	li	a3,2047
   1f990:	10d90663          	beq	s2,a3,1fa9c <__adddf3+0x4a0>
   1f994:	03800693          	li	a3,56
   1f998:	00100993          	li	s3,1
   1f99c:	f0f6c6e3          	blt	a3,a5,1f8a8 <__adddf3+0x2ac>
   1f9a0:	008006b7          	lui	a3,0x800
   1f9a4:	00d8e8b3          	or	a7,a7,a3
   1f9a8:	ed1ff06f          	j	1f878 <__adddf3+0x27c>
   1f9ac:	00048513          	mv	a0,s1
   1f9b0:	7f4020ef          	jal	221a4 <__clzsi2>
   1f9b4:	01850793          	add	a5,a0,24
   1f9b8:	01f00693          	li	a3,31
   1f9bc:	d2f6d8e3          	bge	a3,a5,1f6ec <__adddf3+0xf0>
   1f9c0:	ff850713          	add	a4,a0,-8
   1f9c4:	00e49733          	sll	a4,s1,a4
   1f9c8:	2327c663          	blt	a5,s2,1fbf4 <__adddf3+0x5f8>
   1f9cc:	41278933          	sub	s2,a5,s2
   1f9d0:	00190793          	add	a5,s2,1
   1f9d4:	48f6d663          	bge	a3,a5,1fe60 <__adddf3+0x864>
   1f9d8:	fe190913          	add	s2,s2,-31
   1f9dc:	02000693          	li	a3,32
   1f9e0:	012754b3          	srl	s1,a4,s2
   1f9e4:	00d78c63          	beq	a5,a3,1f9fc <__adddf3+0x400>
   1f9e8:	04000693          	li	a3,64
   1f9ec:	40f687b3          	sub	a5,a3,a5
   1f9f0:	00f71733          	sll	a4,a4,a5
   1f9f4:	00e03733          	snez	a4,a4
   1f9f8:	00e4e4b3          	or	s1,s1,a4
   1f9fc:	00000913          	li	s2,0
   1fa00:	0074f793          	and	a5,s1,7
   1fa04:	d2079ce3          	bnez	a5,1f73c <__adddf3+0x140>
   1fa08:	00090793          	mv	a5,s2
   1fa0c:	0034d613          	srl	a2,s1,0x3
   1fa10:	00098713          	mv	a4,s3
   1fa14:	0c00006f          	j	1fad4 <__adddf3+0x4d8>
   1fa18:	7ff00793          	li	a5,2047
   1fa1c:	00000713          	li	a4,0
   1fa20:	00000813          	li	a6,0
   1fa24:	d71ff06f          	j	1f794 <__adddf3+0x198>
   1fa28:	0c078a63          	beqz	a5,1fafc <__adddf3+0x500>
   1fa2c:	412307b3          	sub	a5,t1,s2
   1fa30:	1e090263          	beqz	s2,1fc14 <__adddf3+0x618>
   1fa34:	7ff00693          	li	a3,2047
   1fa38:	32d30863          	beq	t1,a3,1fd68 <__adddf3+0x76c>
   1fa3c:	03800693          	li	a3,56
   1fa40:	00100993          	li	s3,1
   1fa44:	02f6ce63          	blt	a3,a5,1fa80 <__adddf3+0x484>
   1fa48:	008006b7          	lui	a3,0x800
   1fa4c:	00d76733          	or	a4,a4,a3
   1fa50:	01f00693          	li	a3,31
   1fa54:	3cf6c863          	blt	a3,a5,1fe24 <__adddf3+0x828>
   1fa58:	02000693          	li	a3,32
   1fa5c:	40f686b3          	sub	a3,a3,a5
   1fa60:	00d719b3          	sll	s3,a4,a3
   1fa64:	00f5d633          	srl	a2,a1,a5
   1fa68:	00d596b3          	sll	a3,a1,a3
   1fa6c:	00c9e9b3          	or	s3,s3,a2
   1fa70:	00d036b3          	snez	a3,a3
   1fa74:	00f75733          	srl	a4,a4,a5
   1fa78:	00d9e9b3          	or	s3,s3,a3
   1fa7c:	00e888b3          	add	a7,a7,a4
   1fa80:	01e98733          	add	a4,s3,t5
   1fa84:	013739b3          	sltu	s3,a4,s3
   1fa88:	00070493          	mv	s1,a4
   1fa8c:	011989b3          	add	s3,s3,a7
   1fa90:	00030913          	mv	s2,t1
   1fa94:	e25ff06f          	j	1f8b8 <__adddf3+0x2bc>
   1fa98:	02081063          	bnez	a6,1fab8 <__adddf3+0x4bc>
   1fa9c:	00351613          	sll	a2,a0,0x3
   1faa0:	00365613          	srl	a2,a2,0x3
   1faa4:	01d71813          	sll	a6,a4,0x1d
   1faa8:	00c86833          	or	a6,a6,a2
   1faac:	00375713          	srl	a4,a4,0x3
   1fab0:	01076733          	or	a4,a4,a6
   1fab4:	18070663          	beqz	a4,1fc40 <__adddf3+0x644>
   1fab8:	00000e13          	li	t3,0
   1fabc:	7ff00793          	li	a5,2047
   1fac0:	00080737          	lui	a4,0x80
   1fac4:	00000813          	li	a6,0
   1fac8:	ccdff06f          	j	1f794 <__adddf3+0x198>
   1facc:	00351613          	sll	a2,a0,0x3
   1fad0:	00365613          	srl	a2,a2,0x3
   1fad4:	01d71813          	sll	a6,a4,0x1d
   1fad8:	7ff00693          	li	a3,2047
   1fadc:	00c86833          	or	a6,a6,a2
   1fae0:	00375713          	srl	a4,a4,0x3
   1fae4:	fcd786e3          	beq	a5,a3,1fab0 <__adddf3+0x4b4>
   1fae8:	00c71713          	sll	a4,a4,0xc
   1faec:	00c75713          	srl	a4,a4,0xc
   1faf0:	7ff7f793          	and	a5,a5,2047
   1faf4:	00040e13          	mv	t3,s0
   1faf8:	c9dff06f          	j	1f794 <__adddf3+0x198>
   1fafc:	00190693          	add	a3,s2,1
   1fb00:	7fe6f813          	and	a6,a3,2046
   1fb04:	14081863          	bnez	a6,1fc54 <__adddf3+0x658>
   1fb08:	00b766b3          	or	a3,a4,a1
   1fb0c:	28091c63          	bnez	s2,1fda4 <__adddf3+0x7a8>
   1fb10:	30068263          	beqz	a3,1fe14 <__adddf3+0x818>
   1fb14:	01e8e6b3          	or	a3,a7,t5
   1fb18:	22068863          	beqz	a3,1fd48 <__adddf3+0x74c>
   1fb1c:	01e587b3          	add	a5,a1,t5
   1fb20:	00b7b5b3          	sltu	a1,a5,a1
   1fb24:	01170733          	add	a4,a4,a7
   1fb28:	00b70733          	add	a4,a4,a1
   1fb2c:	0037d813          	srl	a6,a5,0x3
   1fb30:	00871793          	sll	a5,a4,0x8
   1fb34:	00040e13          	mv	t3,s0
   1fb38:	3407de63          	bgez	a5,1fe94 <__adddf3+0x898>
   1fb3c:	ff8007b7          	lui	a5,0xff800
   1fb40:	fff78793          	add	a5,a5,-1 # ff7fffff <__BSS_END__+0xff7db0ef>
   1fb44:	00f77733          	and	a4,a4,a5
   1fb48:	01d71793          	sll	a5,a4,0x1d
   1fb4c:	00375713          	srl	a4,a4,0x3
   1fb50:	0107e833          	or	a6,a5,a6
   1fb54:	01d77733          	and	a4,a4,t4
   1fb58:	00100793          	li	a5,1
   1fb5c:	c39ff06f          	j	1f794 <__adddf3+0x198>
   1fb60:	41e58833          	sub	a6,a1,t5
   1fb64:	0105b7b3          	sltu	a5,a1,a6
   1fb68:	411709b3          	sub	s3,a4,a7
   1fb6c:	40f989b3          	sub	s3,s3,a5
   1fb70:	00899793          	sll	a5,s3,0x8
   1fb74:	00080493          	mv	s1,a6
   1fb78:	1007c663          	bltz	a5,1fc84 <__adddf3+0x688>
   1fb7c:	01386833          	or	a6,a6,s3
   1fb80:	b4081ee3          	bnez	a6,1f6dc <__adddf3+0xe0>
   1fb84:	00000e13          	li	t3,0
   1fb88:	00000793          	li	a5,0
   1fb8c:	00000713          	li	a4,0
   1fb90:	c05ff06f          	j	1f794 <__adddf3+0x198>
   1fb94:	7ff00513          	li	a0,2047
   1fb98:	1aa30e63          	beq	t1,a0,1fd54 <__adddf3+0x758>
   1fb9c:	03800513          	li	a0,56
   1fba0:	00100613          	li	a2,1
   1fba4:	c8f544e3          	blt	a0,a5,1f82c <__adddf3+0x230>
   1fba8:	00800637          	lui	a2,0x800
   1fbac:	00c76733          	or	a4,a4,a2
   1fbb0:	c4dff06f          	j	1f7fc <__adddf3+0x200>
   1fbb4:	ff8009b7          	lui	s3,0xff800
   1fbb8:	fff98993          	add	s3,s3,-1 # ff7fffff <__BSS_END__+0xff7db0ef>
   1fbbc:	40f90933          	sub	s2,s2,a5
   1fbc0:	013779b3          	and	s3,a4,s3
   1fbc4:	b71ff06f          	j	1f734 <__adddf3+0x138>
   1fbc8:	fe078693          	add	a3,a5,-32
   1fbcc:	02000613          	li	a2,32
   1fbd0:	00d8d6b3          	srl	a3,a7,a3
   1fbd4:	00c78a63          	beq	a5,a2,1fbe8 <__adddf3+0x5ec>
   1fbd8:	04000613          	li	a2,64
   1fbdc:	40f607b3          	sub	a5,a2,a5
   1fbe0:	00f897b3          	sll	a5,a7,a5
   1fbe4:	00ff6f33          	or	t5,t5,a5
   1fbe8:	01e03633          	snez	a2,t5
   1fbec:	00d66633          	or	a2,a2,a3
   1fbf0:	ac9ff06f          	j	1f6b8 <__adddf3+0xbc>
   1fbf4:	ff8006b7          	lui	a3,0xff800
   1fbf8:	fff68693          	add	a3,a3,-1 # ff7fffff <__BSS_END__+0xff7db0ef>
   1fbfc:	40f907b3          	sub	a5,s2,a5
   1fc00:	00d77733          	and	a4,a4,a3
   1fc04:	01d71813          	sll	a6,a4,0x1d
   1fc08:	01386833          	or	a6,a6,s3
   1fc0c:	00375713          	srl	a4,a4,0x3
   1fc10:	ed9ff06f          	j	1fae8 <__adddf3+0x4ec>
   1fc14:	00b766b3          	or	a3,a4,a1
   1fc18:	1e068663          	beqz	a3,1fe04 <__adddf3+0x808>
   1fc1c:	fff78693          	add	a3,a5,-1
   1fc20:	0a068e63          	beqz	a3,1fcdc <__adddf3+0x6e0>
   1fc24:	7ff00513          	li	a0,2047
   1fc28:	14a78063          	beq	a5,a0,1fd68 <__adddf3+0x76c>
   1fc2c:	03800793          	li	a5,56
   1fc30:	00100993          	li	s3,1
   1fc34:	e4d7c6e3          	blt	a5,a3,1fa80 <__adddf3+0x484>
   1fc38:	00068793          	mv	a5,a3
   1fc3c:	e15ff06f          	j	1fa50 <__adddf3+0x454>
   1fc40:	00040e13          	mv	t3,s0
   1fc44:	7ff00793          	li	a5,2047
   1fc48:	00000713          	li	a4,0
   1fc4c:	00000813          	li	a6,0
   1fc50:	b45ff06f          	j	1f794 <__adddf3+0x198>
   1fc54:	7ff00793          	li	a5,2047
   1fc58:	fef684e3          	beq	a3,a5,1fc40 <__adddf3+0x644>
   1fc5c:	01e58f33          	add	t5,a1,t5
   1fc60:	00bf35b3          	sltu	a1,t5,a1
   1fc64:	011707b3          	add	a5,a4,a7
   1fc68:	00b787b3          	add	a5,a5,a1
   1fc6c:	01f79613          	sll	a2,a5,0x1f
   1fc70:	001f5f13          	srl	t5,t5,0x1
   1fc74:	01e664b3          	or	s1,a2,t5
   1fc78:	0017d993          	srl	s3,a5,0x1
   1fc7c:	00068913          	mv	s2,a3
   1fc80:	ab5ff06f          	j	1f734 <__adddf3+0x138>
   1fc84:	40bf0633          	sub	a2,t5,a1
   1fc88:	40e887b3          	sub	a5,a7,a4
   1fc8c:	00cf3733          	sltu	a4,t5,a2
   1fc90:	00060493          	mv	s1,a2
   1fc94:	40e789b3          	sub	s3,a5,a4
   1fc98:	00068413          	mv	s0,a3
   1fc9c:	a41ff06f          	j	1f6dc <__adddf3+0xe0>
   1fca0:	00361613          	sll	a2,a2,0x3
   1fca4:	00365613          	srl	a2,a2,0x3
   1fca8:	00068413          	mv	s0,a3
   1fcac:	00088713          	mv	a4,a7
   1fcb0:	e25ff06f          	j	1fad4 <__adddf3+0x4d8>
   1fcb4:	de0312e3          	bnez	t1,1fa98 <__adddf3+0x49c>
   1fcb8:	1c080663          	beqz	a6,1fe84 <__adddf3+0x888>
   1fcbc:	0038d713          	srl	a4,a7,0x3
   1fcc0:	00361613          	sll	a2,a2,0x3
   1fcc4:	01d89893          	sll	a7,a7,0x1d
   1fcc8:	01176733          	or	a4,a4,a7
   1fccc:	00365613          	srl	a2,a2,0x3
   1fcd0:	00c76733          	or	a4,a4,a2
   1fcd4:	00068413          	mv	s0,a3
   1fcd8:	dddff06f          	j	1fab4 <__adddf3+0x4b8>
   1fcdc:	01e58f33          	add	t5,a1,t5
   1fce0:	011708b3          	add	a7,a4,a7
   1fce4:	00bf35b3          	sltu	a1,t5,a1
   1fce8:	00b889b3          	add	s3,a7,a1
   1fcec:	00899793          	sll	a5,s3,0x8
   1fcf0:	000f0493          	mv	s1,t5
   1fcf4:	0e07d463          	bgez	a5,1fddc <__adddf3+0x7e0>
   1fcf8:	00200913          	li	s2,2
   1fcfc:	bd1ff06f          	j	1f8cc <__adddf3+0x2d0>
   1fd00:	41e58f33          	sub	t5,a1,t5
   1fd04:	411708b3          	sub	a7,a4,a7
   1fd08:	01e5b5b3          	sltu	a1,a1,t5
   1fd0c:	000f0493          	mv	s1,t5
   1fd10:	40b889b3          	sub	s3,a7,a1
   1fd14:	00100913          	li	s2,1
   1fd18:	9b1ff06f          	j	1f6c8 <__adddf3+0xcc>
   1fd1c:	fe078693          	add	a3,a5,-32
   1fd20:	02000613          	li	a2,32
   1fd24:	00d8d6b3          	srl	a3,a7,a3
   1fd28:	00c78a63          	beq	a5,a2,1fd3c <__adddf3+0x740>
   1fd2c:	04000613          	li	a2,64
   1fd30:	40f607b3          	sub	a5,a2,a5
   1fd34:	00f897b3          	sll	a5,a7,a5
   1fd38:	00ff6f33          	or	t5,t5,a5
   1fd3c:	01e039b3          	snez	s3,t5
   1fd40:	00d9e9b3          	or	s3,s3,a3
   1fd44:	b65ff06f          	j	1f8a8 <__adddf3+0x2ac>
   1fd48:	00351613          	sll	a2,a0,0x3
   1fd4c:	00365993          	srl	s3,a2,0x3
   1fd50:	eb5ff06f          	j	1fc04 <__adddf3+0x608>
   1fd54:	00361613          	sll	a2,a2,0x3
   1fd58:	00365613          	srl	a2,a2,0x3
   1fd5c:	00068413          	mv	s0,a3
   1fd60:	00088713          	mv	a4,a7
   1fd64:	d41ff06f          	j	1faa4 <__adddf3+0x4a8>
   1fd68:	00361613          	sll	a2,a2,0x3
   1fd6c:	00365613          	srl	a2,a2,0x3
   1fd70:	00088713          	mv	a4,a7
   1fd74:	d31ff06f          	j	1faa4 <__adddf3+0x4a8>
   1fd78:	fe078513          	add	a0,a5,-32
   1fd7c:	02000613          	li	a2,32
   1fd80:	00a75533          	srl	a0,a4,a0
   1fd84:	00c78a63          	beq	a5,a2,1fd98 <__adddf3+0x79c>
   1fd88:	04000613          	li	a2,64
   1fd8c:	40f607b3          	sub	a5,a2,a5
   1fd90:	00f717b3          	sll	a5,a4,a5
   1fd94:	00f5e5b3          	or	a1,a1,a5
   1fd98:	00b03633          	snez	a2,a1
   1fd9c:	00a66633          	or	a2,a2,a0
   1fda0:	a8dff06f          	j	1f82c <__adddf3+0x230>
   1fda4:	fc0682e3          	beqz	a3,1fd68 <__adddf3+0x76c>
   1fda8:	01e8ef33          	or	t5,a7,t5
   1fdac:	d00f16e3          	bnez	t5,1fab8 <__adddf3+0x4bc>
   1fdb0:	cedff06f          	j	1fa9c <__adddf3+0x4a0>
   1fdb4:	dc0808e3          	beqz	a6,1fb84 <__adddf3+0x588>
   1fdb8:	00361813          	sll	a6,a2,0x3
   1fdbc:	01d89793          	sll	a5,a7,0x1d
   1fdc0:	00385813          	srl	a6,a6,0x3
   1fdc4:	0038d713          	srl	a4,a7,0x3
   1fdc8:	00f86833          	or	a6,a6,a5
   1fdcc:	01d77733          	and	a4,a4,t4
   1fdd0:	00068e13          	mv	t3,a3
   1fdd4:	00000793          	li	a5,0
   1fdd8:	9bdff06f          	j	1f794 <__adddf3+0x198>
   1fddc:	00100793          	li	a5,1
   1fde0:	c2dff06f          	j	1fa0c <__adddf3+0x410>
   1fde4:	40bf05b3          	sub	a1,t5,a1
   1fde8:	40e888b3          	sub	a7,a7,a4
   1fdec:	00bf3733          	sltu	a4,t5,a1
   1fdf0:	00058493          	mv	s1,a1
   1fdf4:	40e889b3          	sub	s3,a7,a4
   1fdf8:	00068413          	mv	s0,a3
   1fdfc:	00100913          	li	s2,1
   1fe00:	8c9ff06f          	j	1f6c8 <__adddf3+0xcc>
   1fe04:	00361613          	sll	a2,a2,0x3
   1fe08:	00365613          	srl	a2,a2,0x3
   1fe0c:	00088713          	mv	a4,a7
   1fe10:	cc5ff06f          	j	1fad4 <__adddf3+0x4d8>
   1fe14:	00361613          	sll	a2,a2,0x3
   1fe18:	00365993          	srl	s3,a2,0x3
   1fe1c:	00088713          	mv	a4,a7
   1fe20:	de5ff06f          	j	1fc04 <__adddf3+0x608>
   1fe24:	fe078693          	add	a3,a5,-32
   1fe28:	02000613          	li	a2,32
   1fe2c:	00d756b3          	srl	a3,a4,a3
   1fe30:	00c78a63          	beq	a5,a2,1fe44 <__adddf3+0x848>
   1fe34:	04000613          	li	a2,64
   1fe38:	40f607b3          	sub	a5,a2,a5
   1fe3c:	00f717b3          	sll	a5,a4,a5
   1fe40:	00f5e5b3          	or	a1,a1,a5
   1fe44:	00b039b3          	snez	s3,a1
   1fe48:	00d9e9b3          	or	s3,s3,a3
   1fe4c:	c35ff06f          	j	1fa80 <__adddf3+0x484>
   1fe50:	0034d613          	srl	a2,s1,0x3
   1fe54:	00090793          	mv	a5,s2
   1fe58:	00098713          	mv	a4,s3
   1fe5c:	c79ff06f          	j	1fad4 <__adddf3+0x4d8>
   1fe60:	02000693          	li	a3,32
   1fe64:	40f686b3          	sub	a3,a3,a5
   1fe68:	00000613          	li	a2,0
   1fe6c:	8b5ff06f          	j	1f720 <__adddf3+0x124>
   1fe70:	00c9e833          	or	a6,s3,a2
   1fe74:	d00808e3          	beqz	a6,1fb84 <__adddf3+0x588>
   1fe78:	0039d993          	srl	s3,s3,0x3
   1fe7c:	00060713          	mv	a4,a2
   1fe80:	d85ff06f          	j	1fc04 <__adddf3+0x608>
   1fe84:	00000e13          	li	t3,0
   1fe88:	7ff00793          	li	a5,2047
   1fe8c:	00080737          	lui	a4,0x80
   1fe90:	905ff06f          	j	1f794 <__adddf3+0x198>
   1fe94:	01d71793          	sll	a5,a4,0x1d
   1fe98:	00375713          	srl	a4,a4,0x3
   1fe9c:	0107e833          	or	a6,a5,a6
   1fea0:	01d77733          	and	a4,a4,t4
   1fea4:	00000793          	li	a5,0
   1fea8:	8edff06f          	j	1f794 <__adddf3+0x198>
   1feac:	01d71813          	sll	a6,a4,0x1d
   1feb0:	0035d593          	srl	a1,a1,0x3
   1feb4:	00b86833          	or	a6,a6,a1
   1feb8:	00375713          	srl	a4,a4,0x3
   1febc:	00068413          	mv	s0,a3
   1fec0:	c29ff06f          	j	1fae8 <__adddf3+0x4ec>

0001fec4 <__divdf3>:
   1fec4:	fb010113          	add	sp,sp,-80
   1fec8:	0145d793          	srl	a5,a1,0x14
   1fecc:	04812423          	sw	s0,72(sp)
   1fed0:	04912223          	sw	s1,68(sp)
   1fed4:	05212023          	sw	s2,64(sp)
   1fed8:	03412c23          	sw	s4,56(sp)
   1fedc:	03512a23          	sw	s5,52(sp)
   1fee0:	00c59493          	sll	s1,a1,0xc
   1fee4:	04112623          	sw	ra,76(sp)
   1fee8:	03312e23          	sw	s3,60(sp)
   1feec:	03612823          	sw	s6,48(sp)
   1fef0:	03712623          	sw	s7,44(sp)
   1fef4:	03812423          	sw	s8,40(sp)
   1fef8:	7ff7f793          	and	a5,a5,2047
   1fefc:	00050413          	mv	s0,a0
   1ff00:	00060a13          	mv	s4,a2
   1ff04:	00068913          	mv	s2,a3
   1ff08:	00c4d493          	srl	s1,s1,0xc
   1ff0c:	01f5da93          	srl	s5,a1,0x1f
   1ff10:	18078c63          	beqz	a5,200a8 <__divdf3+0x1e4>
   1ff14:	7ff00713          	li	a4,2047
   1ff18:	08e78a63          	beq	a5,a4,1ffac <__divdf3+0xe8>
   1ff1c:	01d55b13          	srl	s6,a0,0x1d
   1ff20:	00349493          	sll	s1,s1,0x3
   1ff24:	009b64b3          	or	s1,s6,s1
   1ff28:	00800737          	lui	a4,0x800
   1ff2c:	00e4eb33          	or	s6,s1,a4
   1ff30:	00351b93          	sll	s7,a0,0x3
   1ff34:	c0178993          	add	s3,a5,-1023
   1ff38:	00000493          	li	s1,0
   1ff3c:	00000c13          	li	s8,0
   1ff40:	01495793          	srl	a5,s2,0x14
   1ff44:	00c91413          	sll	s0,s2,0xc
   1ff48:	7ff7f793          	and	a5,a5,2047
   1ff4c:	00c45413          	srl	s0,s0,0xc
   1ff50:	01f95913          	srl	s2,s2,0x1f
   1ff54:	08078463          	beqz	a5,1ffdc <__divdf3+0x118>
   1ff58:	7ff00713          	li	a4,2047
   1ff5c:	18e78c63          	beq	a5,a4,200f4 <__divdf3+0x230>
   1ff60:	00341413          	sll	s0,s0,0x3
   1ff64:	01da5713          	srl	a4,s4,0x1d
   1ff68:	00876733          	or	a4,a4,s0
   1ff6c:	c0178793          	add	a5,a5,-1023
   1ff70:	00800437          	lui	s0,0x800
   1ff74:	40f989b3          	sub	s3,s3,a5
   1ff78:	00876433          	or	s0,a4,s0
   1ff7c:	003a1813          	sll	a6,s4,0x3
   1ff80:	00000793          	li	a5,0
   1ff84:	00f00713          	li	a4,15
   1ff88:	012aca33          	xor	s4,s5,s2
   1ff8c:	24976663          	bltu	a4,s1,201d8 <__divdf3+0x314>
   1ff90:	00003697          	auipc	a3,0x3
   1ff94:	f3468693          	add	a3,a3,-204 # 22ec4 <_ctype_+0x104>
   1ff98:	00249493          	sll	s1,s1,0x2
   1ff9c:	00d484b3          	add	s1,s1,a3
   1ffa0:	0004a703          	lw	a4,0(s1)
   1ffa4:	00d70733          	add	a4,a4,a3
   1ffa8:	00070067          	jr	a4 # 800000 <__BSS_END__+0x7db0f0>
   1ffac:	00a4eb33          	or	s6,s1,a0
   1ffb0:	1c0b1e63          	bnez	s6,2018c <__divdf3+0x2c8>
   1ffb4:	01495793          	srl	a5,s2,0x14
   1ffb8:	00c91413          	sll	s0,s2,0xc
   1ffbc:	7ff7f793          	and	a5,a5,2047
   1ffc0:	00000b93          	li	s7,0
   1ffc4:	00800493          	li	s1,8
   1ffc8:	7ff00993          	li	s3,2047
   1ffcc:	00200c13          	li	s8,2
   1ffd0:	00c45413          	srl	s0,s0,0xc
   1ffd4:	01f95913          	srl	s2,s2,0x1f
   1ffd8:	f80790e3          	bnez	a5,1ff58 <__divdf3+0x94>
   1ffdc:	01446833          	or	a6,s0,s4
   1ffe0:	1c080263          	beqz	a6,201a4 <__divdf3+0x2e0>
   1ffe4:	5c040663          	beqz	s0,205b0 <__divdf3+0x6ec>
   1ffe8:	00040513          	mv	a0,s0
   1ffec:	1b8020ef          	jal	221a4 <__clzsi2>
   1fff0:	00050793          	mv	a5,a0
   1fff4:	ff550693          	add	a3,a0,-11
   1fff8:	01d00713          	li	a4,29
   1fffc:	ff878813          	add	a6,a5,-8
   20000:	40d70733          	sub	a4,a4,a3
   20004:	01041433          	sll	s0,s0,a6
   20008:	00ea5733          	srl	a4,s4,a4
   2000c:	00876433          	or	s0,a4,s0
   20010:	010a1833          	sll	a6,s4,a6
   20014:	013787b3          	add	a5,a5,s3
   20018:	3f378993          	add	s3,a5,1011
   2001c:	00000793          	li	a5,0
   20020:	f65ff06f          	j	1ff84 <__divdf3+0xc0>
   20024:	40f70733          	sub	a4,a4,a5
   20028:	03800693          	li	a3,56
   2002c:	60e6d063          	bge	a3,a4,2062c <__divdf3+0x768>
   20030:	00000793          	li	a5,0
   20034:	00000693          	li	a3,0
   20038:	00000713          	li	a4,0
   2003c:	04c12083          	lw	ra,76(sp)
   20040:	04812403          	lw	s0,72(sp)
   20044:	01479793          	sll	a5,a5,0x14
   20048:	00d7e7b3          	or	a5,a5,a3
   2004c:	01fa1693          	sll	a3,s4,0x1f
   20050:	00d7e7b3          	or	a5,a5,a3
   20054:	04412483          	lw	s1,68(sp)
   20058:	04012903          	lw	s2,64(sp)
   2005c:	03c12983          	lw	s3,60(sp)
   20060:	03812a03          	lw	s4,56(sp)
   20064:	03412a83          	lw	s5,52(sp)
   20068:	03012b03          	lw	s6,48(sp)
   2006c:	02c12b83          	lw	s7,44(sp)
   20070:	02812c03          	lw	s8,40(sp)
   20074:	00070513          	mv	a0,a4
   20078:	00078593          	mv	a1,a5
   2007c:	05010113          	add	sp,sp,80
   20080:	00008067          	ret
   20084:	7ff00793          	li	a5,2047
   20088:	00000693          	li	a3,0
   2008c:	00000713          	li	a4,0
   20090:	fadff06f          	j	2003c <__divdf3+0x178>
   20094:	00000a13          	li	s4,0
   20098:	7ff00793          	li	a5,2047
   2009c:	000806b7          	lui	a3,0x80
   200a0:	00000713          	li	a4,0
   200a4:	f99ff06f          	j	2003c <__divdf3+0x178>
   200a8:	00a4eb33          	or	s6,s1,a0
   200ac:	100b0c63          	beqz	s6,201c4 <__divdf3+0x300>
   200b0:	52048463          	beqz	s1,205d8 <__divdf3+0x714>
   200b4:	00048513          	mv	a0,s1
   200b8:	0ec020ef          	jal	221a4 <__clzsi2>
   200bc:	00050713          	mv	a4,a0
   200c0:	ff550793          	add	a5,a0,-11
   200c4:	01d00b13          	li	s6,29
   200c8:	ff870b93          	add	s7,a4,-8
   200cc:	40fb0b33          	sub	s6,s6,a5
   200d0:	017494b3          	sll	s1,s1,s7
   200d4:	01645b33          	srl	s6,s0,s6
   200d8:	009b6b33          	or	s6,s6,s1
   200dc:	01741bb3          	sll	s7,s0,s7
   200e0:	c0d00793          	li	a5,-1011
   200e4:	40e789b3          	sub	s3,a5,a4
   200e8:	00000493          	li	s1,0
   200ec:	00000c13          	li	s8,0
   200f0:	e51ff06f          	j	1ff40 <__divdf3+0x7c>
   200f4:	01446833          	or	a6,s0,s4
   200f8:	80198993          	add	s3,s3,-2047
   200fc:	0a081c63          	bnez	a6,201b4 <__divdf3+0x2f0>
   20100:	0024e493          	or	s1,s1,2
   20104:	00000413          	li	s0,0
   20108:	00200793          	li	a5,2
   2010c:	e79ff06f          	j	1ff84 <__divdf3+0xc0>
   20110:	000a8913          	mv	s2,s5
   20114:	000b0413          	mv	s0,s6
   20118:	000b8813          	mv	a6,s7
   2011c:	00200793          	li	a5,2
   20120:	60fc0863          	beq	s8,a5,20730 <__divdf3+0x86c>
   20124:	00300793          	li	a5,3
   20128:	f6fc06e3          	beq	s8,a5,20094 <__divdf3+0x1d0>
   2012c:	00100793          	li	a5,1
   20130:	00090a13          	mv	s4,s2
   20134:	eefc0ee3          	beq	s8,a5,20030 <__divdf3+0x16c>
   20138:	3ff98793          	add	a5,s3,1023
   2013c:	3cf05263          	blez	a5,20500 <__divdf3+0x63c>
   20140:	00787713          	and	a4,a6,7
   20144:	5c071663          	bnez	a4,20710 <__divdf3+0x84c>
   20148:	00741713          	sll	a4,s0,0x7
   2014c:	00075a63          	bgez	a4,20160 <__divdf3+0x29c>
   20150:	ff0007b7          	lui	a5,0xff000
   20154:	fff78793          	add	a5,a5,-1 # feffffff <__BSS_END__+0xfefdb0ef>
   20158:	00f47433          	and	s0,s0,a5
   2015c:	40098793          	add	a5,s3,1024
   20160:	7fe00713          	li	a4,2046
   20164:	f2f740e3          	blt	a4,a5,20084 <__divdf3+0x1c0>
   20168:	00385813          	srl	a6,a6,0x3
   2016c:	01d41713          	sll	a4,s0,0x1d
   20170:	00941693          	sll	a3,s0,0x9
   20174:	01076733          	or	a4,a4,a6
   20178:	00c6d693          	srl	a3,a3,0xc
   2017c:	7ff7f793          	and	a5,a5,2047
   20180:	ebdff06f          	j	2003c <__divdf3+0x178>
   20184:	00078c13          	mv	s8,a5
   20188:	f95ff06f          	j	2011c <__divdf3+0x258>
   2018c:	00048b13          	mv	s6,s1
   20190:	00050b93          	mv	s7,a0
   20194:	00c00493          	li	s1,12
   20198:	7ff00993          	li	s3,2047
   2019c:	00300c13          	li	s8,3
   201a0:	da1ff06f          	j	1ff40 <__divdf3+0x7c>
   201a4:	0014e493          	or	s1,s1,1
   201a8:	00000413          	li	s0,0
   201ac:	00100793          	li	a5,1
   201b0:	dd5ff06f          	j	1ff84 <__divdf3+0xc0>
   201b4:	0034e493          	or	s1,s1,3
   201b8:	000a0813          	mv	a6,s4
   201bc:	00300793          	li	a5,3
   201c0:	dc5ff06f          	j	1ff84 <__divdf3+0xc0>
   201c4:	00000b93          	li	s7,0
   201c8:	00400493          	li	s1,4
   201cc:	00000993          	li	s3,0
   201d0:	00100c13          	li	s8,1
   201d4:	d6dff06f          	j	1ff40 <__divdf3+0x7c>
   201d8:	03912223          	sw	s9,36(sp)
   201dc:	03a12023          	sw	s10,32(sp)
   201e0:	01b12e23          	sw	s11,28(sp)
   201e4:	3b646a63          	bltu	s0,s6,20598 <__divdf3+0x6d4>
   201e8:	3a8b0663          	beq	s6,s0,20594 <__divdf3+0x6d0>
   201ec:	fff98993          	add	s3,s3,-1
   201f0:	000b8c13          	mv	s8,s7
   201f4:	000b0493          	mv	s1,s6
   201f8:	00000d13          	li	s10,0
   201fc:	01885c93          	srl	s9,a6,0x18
   20200:	00841413          	sll	s0,s0,0x8
   20204:	01045913          	srl	s2,s0,0x10
   20208:	008cecb3          	or	s9,s9,s0
   2020c:	00090593          	mv	a1,s2
   20210:	00048513          	mv	a0,s1
   20214:	010c9b13          	sll	s6,s9,0x10
   20218:	00881a93          	sll	s5,a6,0x8
   2021c:	010b5b13          	srl	s6,s6,0x10
   20220:	6d9010ef          	jal	220f8 <__hidden___udivsi3>
   20224:	00050593          	mv	a1,a0
   20228:	00050413          	mv	s0,a0
   2022c:	000b0513          	mv	a0,s6
   20230:	69d010ef          	jal	220cc <__mulsi3>
   20234:	00050793          	mv	a5,a0
   20238:	00090593          	mv	a1,s2
   2023c:	00048513          	mv	a0,s1
   20240:	00078493          	mv	s1,a5
   20244:	6fd010ef          	jal	22140 <__umodsi3>
   20248:	01051513          	sll	a0,a0,0x10
   2024c:	010c5793          	srl	a5,s8,0x10
   20250:	00a7e7b3          	or	a5,a5,a0
   20254:	0097fa63          	bgeu	a5,s1,20268 <__divdf3+0x3a4>
   20258:	00fc87b3          	add	a5,s9,a5
   2025c:	fff40713          	add	a4,s0,-1 # 7fffff <__BSS_END__+0x7db0ef>
   20260:	3b97fe63          	bgeu	a5,s9,2061c <__divdf3+0x758>
   20264:	00070413          	mv	s0,a4
   20268:	409784b3          	sub	s1,a5,s1
   2026c:	00090593          	mv	a1,s2
   20270:	00048513          	mv	a0,s1
   20274:	685010ef          	jal	220f8 <__hidden___udivsi3>
   20278:	00050593          	mv	a1,a0
   2027c:	00050b93          	mv	s7,a0
   20280:	000b0513          	mv	a0,s6
   20284:	649010ef          	jal	220cc <__mulsi3>
   20288:	00050793          	mv	a5,a0
   2028c:	00090593          	mv	a1,s2
   20290:	00048513          	mv	a0,s1
   20294:	00078493          	mv	s1,a5
   20298:	6a9010ef          	jal	22140 <__umodsi3>
   2029c:	010c1793          	sll	a5,s8,0x10
   202a0:	01051513          	sll	a0,a0,0x10
   202a4:	0107d793          	srl	a5,a5,0x10
   202a8:	00a7e7b3          	or	a5,a5,a0
   202ac:	0097fa63          	bgeu	a5,s1,202c0 <__divdf3+0x3fc>
   202b0:	00fc87b3          	add	a5,s9,a5
   202b4:	fffb8713          	add	a4,s7,-1
   202b8:	3597fa63          	bgeu	a5,s9,2060c <__divdf3+0x748>
   202bc:	00070b93          	mv	s7,a4
   202c0:	00010337          	lui	t1,0x10
   202c4:	01041413          	sll	s0,s0,0x10
   202c8:	01746433          	or	s0,s0,s7
   202cc:	fff30d93          	add	s11,t1,-1 # ffff <exit-0x95>
   202d0:	01b478b3          	and	a7,s0,s11
   202d4:	01bafdb3          	and	s11,s5,s11
   202d8:	40978bb3          	sub	s7,a5,s1
   202dc:	010adc13          	srl	s8,s5,0x10
   202e0:	01045793          	srl	a5,s0,0x10
   202e4:	00088513          	mv	a0,a7
   202e8:	000d8593          	mv	a1,s11
   202ec:	5e1010ef          	jal	220cc <__mulsi3>
   202f0:	00050813          	mv	a6,a0
   202f4:	000c0593          	mv	a1,s8
   202f8:	00088513          	mv	a0,a7
   202fc:	5d1010ef          	jal	220cc <__mulsi3>
   20300:	00050893          	mv	a7,a0
   20304:	000d8593          	mv	a1,s11
   20308:	00078513          	mv	a0,a5
   2030c:	5c1010ef          	jal	220cc <__mulsi3>
   20310:	00050e13          	mv	t3,a0
   20314:	000c0593          	mv	a1,s8
   20318:	00078513          	mv	a0,a5
   2031c:	5b1010ef          	jal	220cc <__mulsi3>
   20320:	01085793          	srl	a5,a6,0x10
   20324:	01c888b3          	add	a7,a7,t3
   20328:	011787b3          	add	a5,a5,a7
   2032c:	01c7f463          	bgeu	a5,t3,20334 <__divdf3+0x470>
   20330:	00650533          	add	a0,a0,t1
   20334:	00010637          	lui	a2,0x10
   20338:	fff60613          	add	a2,a2,-1 # ffff <exit-0x95>
   2033c:	00c7f4b3          	and	s1,a5,a2
   20340:	0107d693          	srl	a3,a5,0x10
   20344:	01049493          	sll	s1,s1,0x10
   20348:	00c87833          	and	a6,a6,a2
   2034c:	00a687b3          	add	a5,a3,a0
   20350:	010484b3          	add	s1,s1,a6
   20354:	20fbea63          	bltu	s7,a5,20568 <__divdf3+0x6a4>
   20358:	20fb8663          	beq	s7,a5,20564 <__divdf3+0x6a0>
   2035c:	409d04b3          	sub	s1,s10,s1
   20360:	40fb8bb3          	sub	s7,s7,a5
   20364:	009d3d33          	sltu	s10,s10,s1
   20368:	41ab8bb3          	sub	s7,s7,s10
   2036c:	377c8a63          	beq	s9,s7,206e0 <__divdf3+0x81c>
   20370:	00090593          	mv	a1,s2
   20374:	000b8513          	mv	a0,s7
   20378:	581010ef          	jal	220f8 <__hidden___udivsi3>
   2037c:	00050593          	mv	a1,a0
   20380:	00a12623          	sw	a0,12(sp)
   20384:	00050d13          	mv	s10,a0
   20388:	000b0513          	mv	a0,s6
   2038c:	541010ef          	jal	220cc <__mulsi3>
   20390:	00050793          	mv	a5,a0
   20394:	00090593          	mv	a1,s2
   20398:	000b8513          	mv	a0,s7
   2039c:	00078b93          	mv	s7,a5
   203a0:	5a1010ef          	jal	22140 <__umodsi3>
   203a4:	01051513          	sll	a0,a0,0x10
   203a8:	0104d793          	srl	a5,s1,0x10
   203ac:	00a7e7b3          	or	a5,a5,a0
   203b0:	0377f063          	bgeu	a5,s7,203d0 <__divdf3+0x50c>
   203b4:	00fc87b3          	add	a5,s9,a5
   203b8:	fffd0693          	add	a3,s10,-1
   203bc:	3797e263          	bltu	a5,s9,20720 <__divdf3+0x85c>
   203c0:	3777f063          	bgeu	a5,s7,20720 <__divdf3+0x85c>
   203c4:	ffed0713          	add	a4,s10,-2
   203c8:	00e12623          	sw	a4,12(sp)
   203cc:	019787b3          	add	a5,a5,s9
   203d0:	41778bb3          	sub	s7,a5,s7
   203d4:	00090593          	mv	a1,s2
   203d8:	000b8513          	mv	a0,s7
   203dc:	51d010ef          	jal	220f8 <__hidden___udivsi3>
   203e0:	00050593          	mv	a1,a0
   203e4:	00050d13          	mv	s10,a0
   203e8:	000b0513          	mv	a0,s6
   203ec:	4e1010ef          	jal	220cc <__mulsi3>
   203f0:	00050793          	mv	a5,a0
   203f4:	00090593          	mv	a1,s2
   203f8:	000b8513          	mv	a0,s7
   203fc:	00078913          	mv	s2,a5
   20400:	01049493          	sll	s1,s1,0x10
   20404:	53d010ef          	jal	22140 <__umodsi3>
   20408:	01051513          	sll	a0,a0,0x10
   2040c:	0104d493          	srl	s1,s1,0x10
   20410:	00a4e4b3          	or	s1,s1,a0
   20414:	0124fe63          	bgeu	s1,s2,20430 <__divdf3+0x56c>
   20418:	009c84b3          	add	s1,s9,s1
   2041c:	fffd0793          	add	a5,s10,-1
   20420:	3194e463          	bltu	s1,s9,20728 <__divdf3+0x864>
   20424:	3124f263          	bgeu	s1,s2,20728 <__divdf3+0x864>
   20428:	ffed0d13          	add	s10,s10,-2
   2042c:	019484b3          	add	s1,s1,s9
   20430:	00c12783          	lw	a5,12(sp)
   20434:	412484b3          	sub	s1,s1,s2
   20438:	000d8593          	mv	a1,s11
   2043c:	01079813          	sll	a6,a5,0x10
   20440:	01a86833          	or	a6,a6,s10
   20444:	01081313          	sll	t1,a6,0x10
   20448:	01035313          	srl	t1,t1,0x10
   2044c:	01085793          	srl	a5,a6,0x10
   20450:	00030513          	mv	a0,t1
   20454:	479010ef          	jal	220cc <__mulsi3>
   20458:	00050893          	mv	a7,a0
   2045c:	000c0593          	mv	a1,s8
   20460:	00030513          	mv	a0,t1
   20464:	469010ef          	jal	220cc <__mulsi3>
   20468:	00050313          	mv	t1,a0
   2046c:	000d8593          	mv	a1,s11
   20470:	00078513          	mv	a0,a5
   20474:	459010ef          	jal	220cc <__mulsi3>
   20478:	00050e13          	mv	t3,a0
   2047c:	000c0593          	mv	a1,s8
   20480:	00078513          	mv	a0,a5
   20484:	449010ef          	jal	220cc <__mulsi3>
   20488:	0108d793          	srl	a5,a7,0x10
   2048c:	01c30333          	add	t1,t1,t3
   20490:	006787b3          	add	a5,a5,t1
   20494:	01c7f663          	bgeu	a5,t3,204a0 <__divdf3+0x5dc>
   20498:	00010737          	lui	a4,0x10
   2049c:	00e50533          	add	a0,a0,a4
   204a0:	000106b7          	lui	a3,0x10
   204a4:	fff68693          	add	a3,a3,-1 # ffff <exit-0x95>
   204a8:	0107d713          	srl	a4,a5,0x10
   204ac:	00d7f7b3          	and	a5,a5,a3
   204b0:	01079793          	sll	a5,a5,0x10
   204b4:	00d8f8b3          	and	a7,a7,a3
   204b8:	00a70733          	add	a4,a4,a0
   204bc:	011787b3          	add	a5,a5,a7
   204c0:	02e4e063          	bltu	s1,a4,204e0 <__divdf3+0x61c>
   204c4:	00e48c63          	beq	s1,a4,204dc <__divdf3+0x618>
   204c8:	02412c83          	lw	s9,36(sp)
   204cc:	02012d03          	lw	s10,32(sp)
   204d0:	01c12d83          	lw	s11,28(sp)
   204d4:	00186813          	or	a6,a6,1
   204d8:	c61ff06f          	j	20138 <__divdf3+0x274>
   204dc:	1c078a63          	beqz	a5,206b0 <__divdf3+0x7ec>
   204e0:	009c84b3          	add	s1,s9,s1
   204e4:	fff80613          	add	a2,a6,-1
   204e8:	00048693          	mv	a3,s1
   204ec:	1b94ec63          	bltu	s1,s9,206a4 <__divdf3+0x7e0>
   204f0:	24e4ea63          	bltu	s1,a4,20744 <__divdf3+0x880>
   204f4:	26e48863          	beq	s1,a4,20764 <__divdf3+0x8a0>
   204f8:	00060813          	mv	a6,a2
   204fc:	fcdff06f          	j	204c8 <__divdf3+0x604>
   20500:	00100713          	li	a4,1
   20504:	b20790e3          	bnez	a5,20024 <__divdf3+0x160>
   20508:	41e98793          	add	a5,s3,1054
   2050c:	00f816b3          	sll	a3,a6,a5
   20510:	00d036b3          	snez	a3,a3
   20514:	00f417b3          	sll	a5,s0,a5
   20518:	00f6e7b3          	or	a5,a3,a5
   2051c:	00e85833          	srl	a6,a6,a4
   20520:	00f86833          	or	a6,a6,a5
   20524:	00787793          	and	a5,a6,7
   20528:	00e45433          	srl	s0,s0,a4
   2052c:	02078063          	beqz	a5,2054c <__divdf3+0x688>
   20530:	00f87793          	and	a5,a6,15
   20534:	00400713          	li	a4,4
   20538:	00e78a63          	beq	a5,a4,2054c <__divdf3+0x688>
   2053c:	00480793          	add	a5,a6,4
   20540:	0107b833          	sltu	a6,a5,a6
   20544:	01040433          	add	s0,s0,a6
   20548:	00078813          	mv	a6,a5
   2054c:	00841613          	sll	a2,s0,0x8
   20550:	00100793          	li	a5,1
   20554:	00000693          	li	a3,0
   20558:	00000713          	li	a4,0
   2055c:	ae0640e3          	bltz	a2,2003c <__divdf3+0x178>
   20560:	1280006f          	j	20688 <__divdf3+0x7c4>
   20564:	de9d7ce3          	bgeu	s10,s1,2035c <__divdf3+0x498>
   20568:	015d06b3          	add	a3,s10,s5
   2056c:	01a6b633          	sltu	a2,a3,s10
   20570:	019605b3          	add	a1,a2,s9
   20574:	00bb8bb3          	add	s7,s7,a1
   20578:	00068d13          	mv	s10,a3
   2057c:	fff40593          	add	a1,s0,-1
   20580:	077cfe63          	bgeu	s9,s7,205fc <__divdf3+0x738>
   20584:	14fbe063          	bltu	s7,a5,206c4 <__divdf3+0x800>
   20588:	13778c63          	beq	a5,s7,206c0 <__divdf3+0x7fc>
   2058c:	00058413          	mv	s0,a1
   20590:	dcdff06f          	j	2035c <__divdf3+0x498>
   20594:	c50bece3          	bltu	s7,a6,201ec <__divdf3+0x328>
   20598:	01fb1c13          	sll	s8,s6,0x1f
   2059c:	001bd713          	srl	a4,s7,0x1
   205a0:	001b5493          	srl	s1,s6,0x1
   205a4:	00ec6c33          	or	s8,s8,a4
   205a8:	01fb9d13          	sll	s10,s7,0x1f
   205ac:	c51ff06f          	j	201fc <__divdf3+0x338>
   205b0:	000a0513          	mv	a0,s4
   205b4:	3f1010ef          	jal	221a4 <__clzsi2>
   205b8:	01550693          	add	a3,a0,21
   205bc:	01c00713          	li	a4,28
   205c0:	02050793          	add	a5,a0,32
   205c4:	a2d75ae3          	bge	a4,a3,1fff8 <__divdf3+0x134>
   205c8:	ff850513          	add	a0,a0,-8
   205cc:	00000813          	li	a6,0
   205d0:	00aa1433          	sll	s0,s4,a0
   205d4:	a41ff06f          	j	20014 <__divdf3+0x150>
   205d8:	3cd010ef          	jal	221a4 <__clzsi2>
   205dc:	01550793          	add	a5,a0,21
   205e0:	01c00693          	li	a3,28
   205e4:	02050713          	add	a4,a0,32
   205e8:	acf6dee3          	bge	a3,a5,200c4 <__divdf3+0x200>
   205ec:	ff850493          	add	s1,a0,-8
   205f0:	00941b33          	sll	s6,s0,s1
   205f4:	00000b93          	li	s7,0
   205f8:	ae9ff06f          	j	200e0 <__divdf3+0x21c>
   205fc:	f97c98e3          	bne	s9,s7,2058c <__divdf3+0x6c8>
   20600:	f80602e3          	beqz	a2,20584 <__divdf3+0x6c0>
   20604:	00058413          	mv	s0,a1
   20608:	d55ff06f          	j	2035c <__divdf3+0x498>
   2060c:	ca97f8e3          	bgeu	a5,s1,202bc <__divdf3+0x3f8>
   20610:	ffeb8b93          	add	s7,s7,-2
   20614:	019787b3          	add	a5,a5,s9
   20618:	ca9ff06f          	j	202c0 <__divdf3+0x3fc>
   2061c:	c497f4e3          	bgeu	a5,s1,20264 <__divdf3+0x3a0>
   20620:	ffe40413          	add	s0,s0,-2
   20624:	019787b3          	add	a5,a5,s9
   20628:	c41ff06f          	j	20268 <__divdf3+0x3a4>
   2062c:	01f00693          	li	a3,31
   20630:	ece6dce3          	bge	a3,a4,20508 <__divdf3+0x644>
   20634:	fe100693          	li	a3,-31
   20638:	40f686b3          	sub	a3,a3,a5
   2063c:	02000793          	li	a5,32
   20640:	00d456b3          	srl	a3,s0,a3
   20644:	00f70863          	beq	a4,a5,20654 <__divdf3+0x790>
   20648:	43e98793          	add	a5,s3,1086
   2064c:	00f417b3          	sll	a5,s0,a5
   20650:	00f86833          	or	a6,a6,a5
   20654:	01003833          	snez	a6,a6
   20658:	00d86833          	or	a6,a6,a3
   2065c:	00787713          	and	a4,a6,7
   20660:	00000693          	li	a3,0
   20664:	02070863          	beqz	a4,20694 <__divdf3+0x7d0>
   20668:	00f87793          	and	a5,a6,15
   2066c:	00400713          	li	a4,4
   20670:	00000413          	li	s0,0
   20674:	00e78a63          	beq	a5,a4,20688 <__divdf3+0x7c4>
   20678:	00480793          	add	a5,a6,4
   2067c:	0107b833          	sltu	a6,a5,a6
   20680:	01003433          	snez	s0,a6
   20684:	00078813          	mv	a6,a5
   20688:	00941693          	sll	a3,s0,0x9
   2068c:	01d41713          	sll	a4,s0,0x1d
   20690:	00c6d693          	srl	a3,a3,0xc
   20694:	00385813          	srl	a6,a6,0x3
   20698:	00e86733          	or	a4,a6,a4
   2069c:	00000793          	li	a5,0
   206a0:	99dff06f          	j	2003c <__divdf3+0x178>
   206a4:	00060813          	mv	a6,a2
   206a8:	e2e690e3          	bne	a3,a4,204c8 <__divdf3+0x604>
   206ac:	e1579ee3          	bne	a5,s5,204c8 <__divdf3+0x604>
   206b0:	02412c83          	lw	s9,36(sp)
   206b4:	02012d03          	lw	s10,32(sp)
   206b8:	01c12d83          	lw	s11,28(sp)
   206bc:	a7dff06f          	j	20138 <__divdf3+0x274>
   206c0:	ec96f6e3          	bgeu	a3,s1,2058c <__divdf3+0x6c8>
   206c4:	00da86b3          	add	a3,s5,a3
   206c8:	0156b633          	sltu	a2,a3,s5
   206cc:	01960633          	add	a2,a2,s9
   206d0:	ffe40413          	add	s0,s0,-2
   206d4:	00068d13          	mv	s10,a3
   206d8:	00cb8bb3          	add	s7,s7,a2
   206dc:	c81ff06f          	j	2035c <__divdf3+0x498>
   206e0:	c0200713          	li	a4,-1022
   206e4:	02412c83          	lw	s9,36(sp)
   206e8:	02012d03          	lw	s10,32(sp)
   206ec:	01c12d83          	lw	s11,28(sp)
   206f0:	3ff98793          	add	a5,s3,1023
   206f4:	fff00813          	li	a6,-1
   206f8:	e0e9c4e3          	blt	s3,a4,20500 <__divdf3+0x63c>
   206fc:	00480713          	add	a4,a6,4
   20700:	01073833          	sltu	a6,a4,a6
   20704:	01040433          	add	s0,s0,a6
   20708:	00070813          	mv	a6,a4
   2070c:	a3dff06f          	j	20148 <__divdf3+0x284>
   20710:	00f87713          	and	a4,a6,15
   20714:	00400693          	li	a3,4
   20718:	a2d708e3          	beq	a4,a3,20148 <__divdf3+0x284>
   2071c:	fe1ff06f          	j	206fc <__divdf3+0x838>
   20720:	00d12623          	sw	a3,12(sp)
   20724:	cadff06f          	j	203d0 <__divdf3+0x50c>
   20728:	00078d13          	mv	s10,a5
   2072c:	d05ff06f          	j	20430 <__divdf3+0x56c>
   20730:	00090a13          	mv	s4,s2
   20734:	7ff00793          	li	a5,2047
   20738:	00000693          	li	a3,0
   2073c:	00000713          	li	a4,0
   20740:	8fdff06f          	j	2003c <__divdf3+0x178>
   20744:	001a9613          	sll	a2,s5,0x1
   20748:	015636b3          	sltu	a3,a2,s5
   2074c:	019686b3          	add	a3,a3,s9
   20750:	00d486b3          	add	a3,s1,a3
   20754:	ffe80813          	add	a6,a6,-2
   20758:	00060a93          	mv	s5,a2
   2075c:	f4e688e3          	beq	a3,a4,206ac <__divdf3+0x7e8>
   20760:	d69ff06f          	j	204c8 <__divdf3+0x604>
   20764:	fefae0e3          	bltu	s5,a5,20744 <__divdf3+0x880>
   20768:	00060813          	mv	a6,a2
   2076c:	f41ff06f          	j	206ac <__divdf3+0x7e8>

00020770 <__eqdf2>:
   20770:	0145d713          	srl	a4,a1,0x14
   20774:	001007b7          	lui	a5,0x100
   20778:	fff78793          	add	a5,a5,-1 # fffff <__BSS_END__+0xdb0ef>
   2077c:	0146d813          	srl	a6,a3,0x14
   20780:	7ff77713          	and	a4,a4,2047
   20784:	7ff00313          	li	t1,2047
   20788:	00b7fe33          	and	t3,a5,a1
   2078c:	00050893          	mv	a7,a0
   20790:	00d7f7b3          	and	a5,a5,a3
   20794:	01f5d593          	srl	a1,a1,0x1f
   20798:	7ff87813          	and	a6,a6,2047
   2079c:	01f6d693          	srl	a3,a3,0x1f
   207a0:	00100513          	li	a0,1
   207a4:	00670c63          	beq	a4,t1,207bc <__eqdf2+0x4c>
   207a8:	00680863          	beq	a6,t1,207b8 <__eqdf2+0x48>
   207ac:	01071463          	bne	a4,a6,207b4 <__eqdf2+0x44>
   207b0:	02fe0663          	beq	t3,a5,207dc <__eqdf2+0x6c>
   207b4:	00008067          	ret
   207b8:	00008067          	ret
   207bc:	fee81ce3          	bne	a6,a4,207b4 <__eqdf2+0x44>
   207c0:	00fe67b3          	or	a5,t3,a5
   207c4:	00c7e7b3          	or	a5,a5,a2
   207c8:	0117e7b3          	or	a5,a5,a7
   207cc:	fe0794e3          	bnez	a5,207b4 <__eqdf2+0x44>
   207d0:	40d585b3          	sub	a1,a1,a3
   207d4:	00b03533          	snez	a0,a1
   207d8:	00008067          	ret
   207dc:	fcc89ce3          	bne	a7,a2,207b4 <__eqdf2+0x44>
   207e0:	00d58a63          	beq	a1,a3,207f4 <__eqdf2+0x84>
   207e4:	fc0718e3          	bnez	a4,207b4 <__eqdf2+0x44>
   207e8:	011e6e33          	or	t3,t3,a7
   207ec:	01c03533          	snez	a0,t3
   207f0:	00008067          	ret
   207f4:	00000513          	li	a0,0
   207f8:	00008067          	ret

000207fc <__gedf2>:
   207fc:	0145d893          	srl	a7,a1,0x14
   20800:	001007b7          	lui	a5,0x100
   20804:	fff78793          	add	a5,a5,-1 # fffff <__BSS_END__+0xdb0ef>
   20808:	0146d713          	srl	a4,a3,0x14
   2080c:	7ff8f893          	and	a7,a7,2047
   20810:	7ff00e13          	li	t3,2047
   20814:	00b7f333          	and	t1,a5,a1
   20818:	00050813          	mv	a6,a0
   2081c:	00050e93          	mv	t4,a0
   20820:	00d7f7b3          	and	a5,a5,a3
   20824:	01f5d593          	srl	a1,a1,0x1f
   20828:	00060f13          	mv	t5,a2
   2082c:	7ff77513          	and	a0,a4,2047
   20830:	01f6d693          	srl	a3,a3,0x1f
   20834:	05c88863          	beq	a7,t3,20884 <__gedf2+0x88>
   20838:	03c50463          	beq	a0,t3,20860 <__gedf2+0x64>
   2083c:	06089a63          	bnez	a7,208b0 <__gedf2+0xb4>
   20840:	01036833          	or	a6,t1,a6
   20844:	06051063          	bnez	a0,208a4 <__gedf2+0xa8>
   20848:	00c7e633          	or	a2,a5,a2
   2084c:	08060c63          	beqz	a2,208e4 <__gedf2+0xe8>
   20850:	0a081263          	bnez	a6,208f4 <__gedf2+0xf8>
   20854:	00100513          	li	a0,1
   20858:	08068263          	beqz	a3,208dc <__gedf2+0xe0>
   2085c:	00008067          	ret
   20860:	00c7e633          	or	a2,a5,a2
   20864:	08061463          	bnez	a2,208ec <__gedf2+0xf0>
   20868:	00089663          	bnez	a7,20874 <__gedf2+0x78>
   2086c:	01036333          	or	t1,t1,a6
   20870:	fe0302e3          	beqz	t1,20854 <__gedf2+0x58>
   20874:	06d58063          	beq	a1,a3,208d4 <__gedf2+0xd8>
   20878:	06059263          	bnez	a1,208dc <__gedf2+0xe0>
   2087c:	00100513          	li	a0,1
   20880:	00008067          	ret
   20884:	01036333          	or	t1,t1,a6
   20888:	06031263          	bnez	t1,208ec <__gedf2+0xf0>
   2088c:	ff1516e3          	bne	a0,a7,20878 <__gedf2+0x7c>
   20890:	00c7e7b3          	or	a5,a5,a2
   20894:	04079c63          	bnez	a5,208ec <__gedf2+0xf0>
   20898:	fed590e3          	bne	a1,a3,20878 <__gedf2+0x7c>
   2089c:	00000513          	li	a0,0
   208a0:	00008067          	ret
   208a4:	fa0808e3          	beqz	a6,20854 <__gedf2+0x58>
   208a8:	fcd598e3          	bne	a1,a3,20878 <__gedf2+0x7c>
   208ac:	0280006f          	j	208d4 <__gedf2+0xd8>
   208b0:	fc0504e3          	beqz	a0,20878 <__gedf2+0x7c>
   208b4:	fcd592e3          	bne	a1,a3,20878 <__gedf2+0x7c>
   208b8:	fd1540e3          	blt	a0,a7,20878 <__gedf2+0x7c>
   208bc:	00a8cc63          	blt	a7,a0,208d4 <__gedf2+0xd8>
   208c0:	fa67ece3          	bltu	a5,t1,20878 <__gedf2+0x7c>
   208c4:	00f31863          	bne	t1,a5,208d4 <__gedf2+0xd8>
   208c8:	fbdf68e3          	bltu	t5,t4,20878 <__gedf2+0x7c>
   208cc:	00000513          	li	a0,0
   208d0:	f9eef6e3          	bgeu	t4,t5,2085c <__gedf2+0x60>
   208d4:	00100513          	li	a0,1
   208d8:	f80592e3          	bnez	a1,2085c <__gedf2+0x60>
   208dc:	fff00513          	li	a0,-1
   208e0:	00008067          	ret
   208e4:	f8081ae3          	bnez	a6,20878 <__gedf2+0x7c>
   208e8:	00008067          	ret
   208ec:	ffe00513          	li	a0,-2
   208f0:	00008067          	ret
   208f4:	fcd586e3          	beq	a1,a3,208c0 <__gedf2+0xc4>
   208f8:	f81ff06f          	j	20878 <__gedf2+0x7c>

000208fc <__ledf2>:
   208fc:	0145d893          	srl	a7,a1,0x14
   20900:	001007b7          	lui	a5,0x100
   20904:	fff78793          	add	a5,a5,-1 # fffff <__BSS_END__+0xdb0ef>
   20908:	0146d713          	srl	a4,a3,0x14
   2090c:	7ff8f893          	and	a7,a7,2047
   20910:	7ff00313          	li	t1,2047
   20914:	00b7fe33          	and	t3,a5,a1
   20918:	00050813          	mv	a6,a0
   2091c:	00050e93          	mv	t4,a0
   20920:	00d7f7b3          	and	a5,a5,a3
   20924:	01f5d593          	srl	a1,a1,0x1f
   20928:	00060f13          	mv	t5,a2
   2092c:	7ff77513          	and	a0,a4,2047
   20930:	01f6d693          	srl	a3,a3,0x1f
   20934:	04688a63          	beq	a7,t1,20988 <__ledf2+0x8c>
   20938:	02650463          	beq	a0,t1,20960 <__ledf2+0x64>
   2093c:	06089863          	bnez	a7,209ac <__ledf2+0xb0>
   20940:	010e6833          	or	a6,t3,a6
   20944:	08051e63          	bnez	a0,209e0 <__ledf2+0xe4>
   20948:	00c7e633          	or	a2,a5,a2
   2094c:	0a060463          	beqz	a2,209f4 <__ledf2+0xf8>
   20950:	0a081663          	bnez	a6,209fc <__ledf2+0x100>
   20954:	00100513          	li	a0,1
   20958:	08068063          	beqz	a3,209d8 <__ledf2+0xdc>
   2095c:	00008067          	ret
   20960:	00c7e633          	or	a2,a5,a2
   20964:	00200513          	li	a0,2
   20968:	fe061ae3          	bnez	a2,2095c <__ledf2+0x60>
   2096c:	00089663          	bnez	a7,20978 <__ledf2+0x7c>
   20970:	010e6e33          	or	t3,t3,a6
   20974:	fe0e00e3          	beqz	t3,20954 <__ledf2+0x58>
   20978:	04d58c63          	beq	a1,a3,209d0 <__ledf2+0xd4>
   2097c:	04059e63          	bnez	a1,209d8 <__ledf2+0xdc>
   20980:	00100513          	li	a0,1
   20984:	00008067          	ret
   20988:	010e6e33          	or	t3,t3,a6
   2098c:	060e1063          	bnez	t3,209ec <__ledf2+0xf0>
   20990:	ff1516e3          	bne	a0,a7,2097c <__ledf2+0x80>
   20994:	00c7e7b3          	or	a5,a5,a2
   20998:	00200513          	li	a0,2
   2099c:	fc0790e3          	bnez	a5,2095c <__ledf2+0x60>
   209a0:	fcd59ee3          	bne	a1,a3,2097c <__ledf2+0x80>
   209a4:	00000513          	li	a0,0
   209a8:	00008067          	ret
   209ac:	fc0508e3          	beqz	a0,2097c <__ledf2+0x80>
   209b0:	fcd596e3          	bne	a1,a3,2097c <__ledf2+0x80>
   209b4:	fd1544e3          	blt	a0,a7,2097c <__ledf2+0x80>
   209b8:	00a8cc63          	blt	a7,a0,209d0 <__ledf2+0xd4>
   209bc:	fdc7e0e3          	bltu	a5,t3,2097c <__ledf2+0x80>
   209c0:	00fe1863          	bne	t3,a5,209d0 <__ledf2+0xd4>
   209c4:	fbdf6ce3          	bltu	t5,t4,2097c <__ledf2+0x80>
   209c8:	00000513          	li	a0,0
   209cc:	f9eef8e3          	bgeu	t4,t5,2095c <__ledf2+0x60>
   209d0:	00100513          	li	a0,1
   209d4:	f80594e3          	bnez	a1,2095c <__ledf2+0x60>
   209d8:	fff00513          	li	a0,-1
   209dc:	00008067          	ret
   209e0:	f6080ae3          	beqz	a6,20954 <__ledf2+0x58>
   209e4:	f8d59ce3          	bne	a1,a3,2097c <__ledf2+0x80>
   209e8:	fe9ff06f          	j	209d0 <__ledf2+0xd4>
   209ec:	00200513          	li	a0,2
   209f0:	00008067          	ret
   209f4:	f80814e3          	bnez	a6,2097c <__ledf2+0x80>
   209f8:	00008067          	ret
   209fc:	fcd580e3          	beq	a1,a3,209bc <__ledf2+0xc0>
   20a00:	f7dff06f          	j	2097c <__ledf2+0x80>

00020a04 <__muldf3>:
   20a04:	fd010113          	add	sp,sp,-48
   20a08:	0145d793          	srl	a5,a1,0x14
   20a0c:	02812423          	sw	s0,40(sp)
   20a10:	02912223          	sw	s1,36(sp)
   20a14:	03212023          	sw	s2,32(sp)
   20a18:	01312e23          	sw	s3,28(sp)
   20a1c:	01512a23          	sw	s5,20(sp)
   20a20:	00c59493          	sll	s1,a1,0xc
   20a24:	02112623          	sw	ra,44(sp)
   20a28:	01412c23          	sw	s4,24(sp)
   20a2c:	01612823          	sw	s6,16(sp)
   20a30:	01712623          	sw	s7,12(sp)
   20a34:	01812423          	sw	s8,8(sp)
   20a38:	7ff7f793          	and	a5,a5,2047
   20a3c:	00050413          	mv	s0,a0
   20a40:	00060a93          	mv	s5,a2
   20a44:	00068993          	mv	s3,a3
   20a48:	00c4d493          	srl	s1,s1,0xc
   20a4c:	01f5d913          	srl	s2,a1,0x1f
   20a50:	4e078063          	beqz	a5,20f30 <__muldf3+0x52c>
   20a54:	7ff00713          	li	a4,2047
   20a58:	0ae78663          	beq	a5,a4,20b04 <__muldf3+0x100>
   20a5c:	00349693          	sll	a3,s1,0x3
   20a60:	01d55713          	srl	a4,a0,0x1d
   20a64:	00d76733          	or	a4,a4,a3
   20a68:	008006b7          	lui	a3,0x800
   20a6c:	00d764b3          	or	s1,a4,a3
   20a70:	00351a13          	sll	s4,a0,0x3
   20a74:	c0178c13          	add	s8,a5,-1023
   20a78:	00000b13          	li	s6,0
   20a7c:	00000b93          	li	s7,0
   20a80:	0149d793          	srl	a5,s3,0x14
   20a84:	00c99713          	sll	a4,s3,0xc
   20a88:	7ff7f793          	and	a5,a5,2047
   20a8c:	000a8e13          	mv	t3,s5
   20a90:	00c75413          	srl	s0,a4,0xc
   20a94:	01f9d993          	srl	s3,s3,0x1f
   20a98:	0a078063          	beqz	a5,20b38 <__muldf3+0x134>
   20a9c:	7ff00713          	li	a4,2047
   20aa0:	14e78e63          	beq	a5,a4,20bfc <__muldf3+0x1f8>
   20aa4:	00341713          	sll	a4,s0,0x3
   20aa8:	01dad693          	srl	a3,s5,0x1d
   20aac:	00e6e6b3          	or	a3,a3,a4
   20ab0:	c0178793          	add	a5,a5,-1023
   20ab4:	00800737          	lui	a4,0x800
   20ab8:	00e6e433          	or	s0,a3,a4
   20abc:	003a9e13          	sll	t3,s5,0x3
   20ac0:	01878333          	add	t1,a5,s8
   20ac4:	00000693          	li	a3,0
   20ac8:	00a00793          	li	a5,10
   20acc:	00130893          	add	a7,t1,1
   20ad0:	0b67cc63          	blt	a5,s6,20b88 <__muldf3+0x184>
   20ad4:	013945b3          	xor	a1,s2,s3
   20ad8:	00200793          	li	a5,2
   20adc:	00058813          	mv	a6,a1
   20ae0:	1567c663          	blt	a5,s6,20c2c <__muldf3+0x228>
   20ae4:	fffb0b13          	add	s6,s6,-1
   20ae8:	00100713          	li	a4,1
   20aec:	17676063          	bltu	a4,s6,20c4c <__muldf3+0x248>
   20af0:	48f68663          	beq	a3,a5,20f7c <__muldf3+0x578>
   20af4:	00040493          	mv	s1,s0
   20af8:	000e0a13          	mv	s4,t3
   20afc:	00068b93          	mv	s7,a3
   20b00:	09c0006f          	j	20b9c <__muldf3+0x198>
   20b04:	00a4ea33          	or	s4,s1,a0
   20b08:	480a1463          	bnez	s4,20f90 <__muldf3+0x58c>
   20b0c:	0149d793          	srl	a5,s3,0x14
   20b10:	00c99713          	sll	a4,s3,0xc
   20b14:	7ff7f793          	and	a5,a5,2047
   20b18:	00000493          	li	s1,0
   20b1c:	00800b13          	li	s6,8
   20b20:	7ff00c13          	li	s8,2047
   20b24:	00200b93          	li	s7,2
   20b28:	000a8e13          	mv	t3,s5
   20b2c:	00c75413          	srl	s0,a4,0xc
   20b30:	01f9d993          	srl	s3,s3,0x1f
   20b34:	f60794e3          	bnez	a5,20a9c <__muldf3+0x98>
   20b38:	015467b3          	or	a5,s0,s5
   20b3c:	46078e63          	beqz	a5,20fb8 <__muldf3+0x5b4>
   20b40:	54040c63          	beqz	s0,21098 <__muldf3+0x694>
   20b44:	00040513          	mv	a0,s0
   20b48:	65c010ef          	jal	221a4 <__clzsi2>
   20b4c:	00050313          	mv	t1,a0
   20b50:	ff550713          	add	a4,a0,-11
   20b54:	01d00793          	li	a5,29
   20b58:	ff830e13          	add	t3,t1,-8
   20b5c:	40e787b3          	sub	a5,a5,a4
   20b60:	00fad7b3          	srl	a5,s5,a5
   20b64:	01c41733          	sll	a4,s0,t3
   20b68:	00e7e433          	or	s0,a5,a4
   20b6c:	01ca9e33          	sll	t3,s5,t3
   20b70:	406c0333          	sub	t1,s8,t1
   20b74:	c0d30313          	add	t1,t1,-1011
   20b78:	00a00793          	li	a5,10
   20b7c:	00000693          	li	a3,0
   20b80:	00130893          	add	a7,t1,1
   20b84:	f567d8e3          	bge	a5,s6,20ad4 <__muldf3+0xd0>
   20b88:	00090593          	mv	a1,s2
   20b8c:	00200793          	li	a5,2
   20b90:	3efb8663          	beq	s7,a5,20f7c <__muldf3+0x578>
   20b94:	00300793          	li	a5,3
   20b98:	54fb8863          	beq	s7,a5,210e8 <__muldf3+0x6e4>
   20b9c:	00100793          	li	a5,1
   20ba0:	00058813          	mv	a6,a1
   20ba4:	52fb9663          	bne	s7,a5,210d0 <__muldf3+0x6cc>
   20ba8:	00000793          	li	a5,0
   20bac:	00000693          	li	a3,0
   20bb0:	00000713          	li	a4,0
   20bb4:	02c12083          	lw	ra,44(sp)
   20bb8:	02812403          	lw	s0,40(sp)
   20bbc:	01479793          	sll	a5,a5,0x14
   20bc0:	00d7e7b3          	or	a5,a5,a3
   20bc4:	01f81813          	sll	a6,a6,0x1f
   20bc8:	0107e7b3          	or	a5,a5,a6
   20bcc:	02412483          	lw	s1,36(sp)
   20bd0:	02012903          	lw	s2,32(sp)
   20bd4:	01c12983          	lw	s3,28(sp)
   20bd8:	01812a03          	lw	s4,24(sp)
   20bdc:	01412a83          	lw	s5,20(sp)
   20be0:	01012b03          	lw	s6,16(sp)
   20be4:	00c12b83          	lw	s7,12(sp)
   20be8:	00812c03          	lw	s8,8(sp)
   20bec:	00070513          	mv	a0,a4
   20bf0:	00078593          	mv	a1,a5
   20bf4:	03010113          	add	sp,sp,48
   20bf8:	00008067          	ret
   20bfc:	01546733          	or	a4,s0,s5
   20c00:	7ffc0313          	add	t1,s8,2047
   20c04:	3c070663          	beqz	a4,20fd0 <__muldf3+0x5cc>
   20c08:	00001737          	lui	a4,0x1
   20c0c:	01394833          	xor	a6,s2,s3
   20c10:	80070713          	add	a4,a4,-2048 # 800 <exit-0xf894>
   20c14:	003b6b13          	or	s6,s6,3
   20c18:	00a00693          	li	a3,10
   20c1c:	00080593          	mv	a1,a6
   20c20:	00ec08b3          	add	a7,s8,a4
   20c24:	4366cc63          	blt	a3,s6,2105c <__muldf3+0x658>
   20c28:	00300693          	li	a3,3
   20c2c:	00100613          	li	a2,1
   20c30:	01661633          	sll	a2,a2,s6
   20c34:	53067713          	and	a4,a2,1328
   20c38:	f4071ae3          	bnez	a4,20b8c <__muldf3+0x188>
   20c3c:	24067793          	and	a5,a2,576
   20c40:	48079063          	bnez	a5,210c0 <__muldf3+0x6bc>
   20c44:	08867613          	and	a2,a2,136
   20c48:	38061e63          	bnez	a2,20fe4 <__muldf3+0x5e0>
   20c4c:	00010fb7          	lui	t6,0x10
   20c50:	ffff8293          	add	t0,t6,-1 # ffff <exit-0x95>
   20c54:	005a7f33          	and	t5,s4,t0
   20c58:	005e72b3          	and	t0,t3,t0
   20c5c:	010a5a13          	srl	s4,s4,0x10
   20c60:	010e5e13          	srl	t3,t3,0x10
   20c64:	000f0513          	mv	a0,t5
   20c68:	00028593          	mv	a1,t0
   20c6c:	460010ef          	jal	220cc <__mulsi3>
   20c70:	00050713          	mv	a4,a0
   20c74:	000e0593          	mv	a1,t3
   20c78:	000f0513          	mv	a0,t5
   20c7c:	450010ef          	jal	220cc <__mulsi3>
   20c80:	00050793          	mv	a5,a0
   20c84:	00028593          	mv	a1,t0
   20c88:	000a0513          	mv	a0,s4
   20c8c:	440010ef          	jal	220cc <__mulsi3>
   20c90:	00050e93          	mv	t4,a0
   20c94:	000e0593          	mv	a1,t3
   20c98:	000a0513          	mv	a0,s4
   20c9c:	430010ef          	jal	220cc <__mulsi3>
   20ca0:	01d786b3          	add	a3,a5,t4
   20ca4:	01075393          	srl	t2,a4,0x10
   20ca8:	00d383b3          	add	t2,t2,a3
   20cac:	00050793          	mv	a5,a0
   20cb0:	01d3f463          	bgeu	t2,t4,20cb8 <__muldf3+0x2b4>
   20cb4:	01f507b3          	add	a5,a0,t6
   20cb8:	000109b7          	lui	s3,0x10
   20cbc:	fff98913          	add	s2,s3,-1 # ffff <exit-0x95>
   20cc0:	0123feb3          	and	t4,t2,s2
   20cc4:	01277733          	and	a4,a4,s2
   20cc8:	010e9e93          	sll	t4,t4,0x10
   20ccc:	01247933          	and	s2,s0,s2
   20cd0:	0103d393          	srl	t2,t2,0x10
   20cd4:	00ee8eb3          	add	t4,t4,a4
   20cd8:	01045413          	srl	s0,s0,0x10
   20cdc:	000f0513          	mv	a0,t5
   20ce0:	00090593          	mv	a1,s2
   20ce4:	3e8010ef          	jal	220cc <__mulsi3>
   20ce8:	00050f93          	mv	t6,a0
   20cec:	00040593          	mv	a1,s0
   20cf0:	000f0513          	mv	a0,t5
   20cf4:	3d8010ef          	jal	220cc <__mulsi3>
   20cf8:	00050713          	mv	a4,a0
   20cfc:	00090593          	mv	a1,s2
   20d00:	000a0513          	mv	a0,s4
   20d04:	3c8010ef          	jal	220cc <__mulsi3>
   20d08:	00050f13          	mv	t5,a0
   20d0c:	00040593          	mv	a1,s0
   20d10:	000a0513          	mv	a0,s4
   20d14:	3b8010ef          	jal	220cc <__mulsi3>
   20d18:	010fd693          	srl	a3,t6,0x10
   20d1c:	01e70733          	add	a4,a4,t5
   20d20:	00e686b3          	add	a3,a3,a4
   20d24:	01e6f463          	bgeu	a3,t5,20d2c <__muldf3+0x328>
   20d28:	01350533          	add	a0,a0,s3
   20d2c:	00010a37          	lui	s4,0x10
   20d30:	fffa0f13          	add	t5,s4,-1 # ffff <exit-0x95>
   20d34:	01e6f733          	and	a4,a3,t5
   20d38:	01efffb3          	and	t6,t6,t5
   20d3c:	01071713          	sll	a4,a4,0x10
   20d40:	01f70733          	add	a4,a4,t6
   20d44:	01e4ff33          	and	t5,s1,t5
   20d48:	0106d693          	srl	a3,a3,0x10
   20d4c:	00a68fb3          	add	t6,a3,a0
   20d50:	00e383b3          	add	t2,t2,a4
   20d54:	0104d493          	srl	s1,s1,0x10
   20d58:	000f0513          	mv	a0,t5
   20d5c:	00028593          	mv	a1,t0
   20d60:	36c010ef          	jal	220cc <__mulsi3>
   20d64:	00050a93          	mv	s5,a0
   20d68:	000e0593          	mv	a1,t3
   20d6c:	000f0513          	mv	a0,t5
   20d70:	35c010ef          	jal	220cc <__mulsi3>
   20d74:	00050993          	mv	s3,a0
   20d78:	00028593          	mv	a1,t0
   20d7c:	00048513          	mv	a0,s1
   20d80:	34c010ef          	jal	220cc <__mulsi3>
   20d84:	00050293          	mv	t0,a0
   20d88:	000e0593          	mv	a1,t3
   20d8c:	00048513          	mv	a0,s1
   20d90:	33c010ef          	jal	220cc <__mulsi3>
   20d94:	010ad613          	srl	a2,s5,0x10
   20d98:	005989b3          	add	s3,s3,t0
   20d9c:	01360633          	add	a2,a2,s3
   20da0:	00567463          	bgeu	a2,t0,20da8 <__muldf3+0x3a4>
   20da4:	01450533          	add	a0,a0,s4
   20da8:	00010a37          	lui	s4,0x10
   20dac:	fffa0693          	add	a3,s4,-1 # ffff <exit-0x95>
   20db0:	00d672b3          	and	t0,a2,a3
   20db4:	00dafab3          	and	s5,s5,a3
   20db8:	01065613          	srl	a2,a2,0x10
   20dbc:	01029293          	sll	t0,t0,0x10
   20dc0:	00a60e33          	add	t3,a2,a0
   20dc4:	015282b3          	add	t0,t0,s5
   20dc8:	000f0513          	mv	a0,t5
   20dcc:	00090593          	mv	a1,s2
   20dd0:	2fc010ef          	jal	220cc <__mulsi3>
   20dd4:	00050993          	mv	s3,a0
   20dd8:	00040593          	mv	a1,s0
   20ddc:	000f0513          	mv	a0,t5
   20de0:	2ec010ef          	jal	220cc <__mulsi3>
   20de4:	00050f13          	mv	t5,a0
   20de8:	00090593          	mv	a1,s2
   20dec:	00048513          	mv	a0,s1
   20df0:	2dc010ef          	jal	220cc <__mulsi3>
   20df4:	00050913          	mv	s2,a0
   20df8:	00040593          	mv	a1,s0
   20dfc:	00048513          	mv	a0,s1
   20e00:	2cc010ef          	jal	220cc <__mulsi3>
   20e04:	012f06b3          	add	a3,t5,s2
   20e08:	0109d593          	srl	a1,s3,0x10
   20e0c:	00d58433          	add	s0,a1,a3
   20e10:	00050f13          	mv	t5,a0
   20e14:	01247463          	bgeu	s0,s2,20e1c <__muldf3+0x418>
   20e18:	01450f33          	add	t5,a0,s4
   20e1c:	00010637          	lui	a2,0x10
   20e20:	fff60613          	add	a2,a2,-1 # ffff <exit-0x95>
   20e24:	00c476b3          	and	a3,s0,a2
   20e28:	00c9f9b3          	and	s3,s3,a2
   20e2c:	01069693          	sll	a3,a3,0x10
   20e30:	007787b3          	add	a5,a5,t2
   20e34:	013686b3          	add	a3,a3,s3
   20e38:	01f685b3          	add	a1,a3,t6
   20e3c:	00e7b733          	sltu	a4,a5,a4
   20e40:	00e58733          	add	a4,a1,a4
   20e44:	005782b3          	add	t0,a5,t0
   20e48:	01c70633          	add	a2,a4,t3
   20e4c:	00f2b7b3          	sltu	a5,t0,a5
   20e50:	00f607b3          	add	a5,a2,a5
   20e54:	00d5b6b3          	sltu	a3,a1,a3
   20e58:	00b735b3          	sltu	a1,a4,a1
   20e5c:	00b6e6b3          	or	a3,a3,a1
   20e60:	00e63733          	sltu	a4,a2,a4
   20e64:	01045593          	srl	a1,s0,0x10
   20e68:	00c7b633          	sltu	a2,a5,a2
   20e6c:	00b686b3          	add	a3,a3,a1
   20e70:	00929a13          	sll	s4,t0,0x9
   20e74:	00c76733          	or	a4,a4,a2
   20e78:	00d70733          	add	a4,a4,a3
   20e7c:	01da6a33          	or	s4,s4,t4
   20e80:	01e70733          	add	a4,a4,t5
   20e84:	01403a33          	snez	s4,s4
   20e88:	0172d293          	srl	t0,t0,0x17
   20e8c:	00971713          	sll	a4,a4,0x9
   20e90:	0177d693          	srl	a3,a5,0x17
   20e94:	005a6a33          	or	s4,s4,t0
   20e98:	00979793          	sll	a5,a5,0x9
   20e9c:	00fa6a33          	or	s4,s4,a5
   20ea0:	00771793          	sll	a5,a4,0x7
   20ea4:	00d764b3          	or	s1,a4,a3
   20ea8:	0207d063          	bgez	a5,20ec8 <__muldf3+0x4c4>
   20eac:	001a5793          	srl	a5,s4,0x1
   20eb0:	001a7a13          	and	s4,s4,1
   20eb4:	01f49713          	sll	a4,s1,0x1f
   20eb8:	0147e7b3          	or	a5,a5,s4
   20ebc:	00e7ea33          	or	s4,a5,a4
   20ec0:	0014d493          	srl	s1,s1,0x1
   20ec4:	00088313          	mv	t1,a7
   20ec8:	3ff30793          	add	a5,t1,1023
   20ecc:	12f05663          	blez	a5,20ff8 <__muldf3+0x5f4>
   20ed0:	007a7713          	and	a4,s4,7
   20ed4:	02070063          	beqz	a4,20ef4 <__muldf3+0x4f0>
   20ed8:	00fa7713          	and	a4,s4,15
   20edc:	00400693          	li	a3,4
   20ee0:	00d70a63          	beq	a4,a3,20ef4 <__muldf3+0x4f0>
   20ee4:	004a0713          	add	a4,s4,4
   20ee8:	01473a33          	sltu	s4,a4,s4
   20eec:	014484b3          	add	s1,s1,s4
   20ef0:	00070a13          	mv	s4,a4
   20ef4:	00749713          	sll	a4,s1,0x7
   20ef8:	00075a63          	bgez	a4,20f0c <__muldf3+0x508>
   20efc:	ff0007b7          	lui	a5,0xff000
   20f00:	fff78793          	add	a5,a5,-1 # feffffff <__BSS_END__+0xfefdb0ef>
   20f04:	00f4f4b3          	and	s1,s1,a5
   20f08:	40030793          	add	a5,t1,1024
   20f0c:	7fe00713          	li	a4,2046
   20f10:	1cf74463          	blt	a4,a5,210d8 <__muldf3+0x6d4>
   20f14:	003a5a13          	srl	s4,s4,0x3
   20f18:	01d49713          	sll	a4,s1,0x1d
   20f1c:	00949693          	sll	a3,s1,0x9
   20f20:	01476733          	or	a4,a4,s4
   20f24:	00c6d693          	srl	a3,a3,0xc
   20f28:	7ff7f793          	and	a5,a5,2047
   20f2c:	c89ff06f          	j	20bb4 <__muldf3+0x1b0>
   20f30:	00a4ea33          	or	s4,s1,a0
   20f34:	060a0863          	beqz	s4,20fa4 <__muldf3+0x5a0>
   20f38:	12048e63          	beqz	s1,21074 <__muldf3+0x670>
   20f3c:	00048513          	mv	a0,s1
   20f40:	264010ef          	jal	221a4 <__clzsi2>
   20f44:	00050713          	mv	a4,a0
   20f48:	ff550693          	add	a3,a0,-11
   20f4c:	01d00793          	li	a5,29
   20f50:	ff870a13          	add	s4,a4,-8
   20f54:	40d787b3          	sub	a5,a5,a3
   20f58:	00f457b3          	srl	a5,s0,a5
   20f5c:	014496b3          	sll	a3,s1,s4
   20f60:	00d7e4b3          	or	s1,a5,a3
   20f64:	01441a33          	sll	s4,s0,s4
   20f68:	c0d00793          	li	a5,-1011
   20f6c:	40e78c33          	sub	s8,a5,a4
   20f70:	00000b13          	li	s6,0
   20f74:	00000b93          	li	s7,0
   20f78:	b09ff06f          	j	20a80 <__muldf3+0x7c>
   20f7c:	00058813          	mv	a6,a1
   20f80:	7ff00793          	li	a5,2047
   20f84:	00000693          	li	a3,0
   20f88:	00000713          	li	a4,0
   20f8c:	c29ff06f          	j	20bb4 <__muldf3+0x1b0>
   20f90:	00050a13          	mv	s4,a0
   20f94:	00c00b13          	li	s6,12
   20f98:	7ff00c13          	li	s8,2047
   20f9c:	00300b93          	li	s7,3
   20fa0:	ae1ff06f          	j	20a80 <__muldf3+0x7c>
   20fa4:	00000493          	li	s1,0
   20fa8:	00400b13          	li	s6,4
   20fac:	00000c13          	li	s8,0
   20fb0:	00100b93          	li	s7,1
   20fb4:	acdff06f          	j	20a80 <__muldf3+0x7c>
   20fb8:	001b6b13          	or	s6,s6,1
   20fbc:	000c0313          	mv	t1,s8
   20fc0:	00000413          	li	s0,0
   20fc4:	00000e13          	li	t3,0
   20fc8:	00100693          	li	a3,1
   20fcc:	afdff06f          	j	20ac8 <__muldf3+0xc4>
   20fd0:	002b6b13          	or	s6,s6,2
   20fd4:	00000413          	li	s0,0
   20fd8:	00000e13          	li	t3,0
   20fdc:	00200693          	li	a3,2
   20fe0:	ae9ff06f          	j	20ac8 <__muldf3+0xc4>
   20fe4:	00040493          	mv	s1,s0
   20fe8:	000e0a13          	mv	s4,t3
   20fec:	00068b93          	mv	s7,a3
   20ff0:	00098593          	mv	a1,s3
   20ff4:	b99ff06f          	j	20b8c <__muldf3+0x188>
   20ff8:	00100713          	li	a4,1
   20ffc:	10079063          	bnez	a5,210fc <__muldf3+0x6f8>
   21000:	41e30313          	add	t1,t1,1054
   21004:	006a1633          	sll	a2,s4,t1
   21008:	00c03633          	snez	a2,a2
   2100c:	00649333          	sll	t1,s1,t1
   21010:	00ea5a33          	srl	s4,s4,a4
   21014:	00666633          	or	a2,a2,t1
   21018:	01466633          	or	a2,a2,s4
   2101c:	00767793          	and	a5,a2,7
   21020:	00e4d5b3          	srl	a1,s1,a4
   21024:	02078063          	beqz	a5,21044 <__muldf3+0x640>
   21028:	00f67793          	and	a5,a2,15
   2102c:	00400713          	li	a4,4
   21030:	00e78a63          	beq	a5,a4,21044 <__muldf3+0x640>
   21034:	00460793          	add	a5,a2,4
   21038:	00c7b633          	sltu	a2,a5,a2
   2103c:	00c585b3          	add	a1,a1,a2
   21040:	00078613          	mv	a2,a5
   21044:	00859513          	sll	a0,a1,0x8
   21048:	00100793          	li	a5,1
   2104c:	00000693          	li	a3,0
   21050:	00000713          	li	a4,0
   21054:	b60540e3          	bltz	a0,20bb4 <__muldf3+0x1b0>
   21058:	10c0006f          	j	21164 <__muldf3+0x760>
   2105c:	00f00713          	li	a4,15
   21060:	12eb1063          	bne	s6,a4,21180 <__muldf3+0x77c>
   21064:	00000813          	li	a6,0
   21068:	000806b7          	lui	a3,0x80
   2106c:	00000713          	li	a4,0
   21070:	b45ff06f          	j	20bb4 <__muldf3+0x1b0>
   21074:	130010ef          	jal	221a4 <__clzsi2>
   21078:	01550693          	add	a3,a0,21
   2107c:	01c00793          	li	a5,28
   21080:	02050713          	add	a4,a0,32
   21084:	ecd7d4e3          	bge	a5,a3,20f4c <__muldf3+0x548>
   21088:	ff850513          	add	a0,a0,-8
   2108c:	00000a13          	li	s4,0
   21090:	00a414b3          	sll	s1,s0,a0
   21094:	ed5ff06f          	j	20f68 <__muldf3+0x564>
   21098:	000a8513          	mv	a0,s5
   2109c:	108010ef          	jal	221a4 <__clzsi2>
   210a0:	01550713          	add	a4,a0,21
   210a4:	01c00793          	li	a5,28
   210a8:	02050313          	add	t1,a0,32
   210ac:	aae7d4e3          	bge	a5,a4,20b54 <__muldf3+0x150>
   210b0:	ff850513          	add	a0,a0,-8
   210b4:	00000e13          	li	t3,0
   210b8:	00aa9433          	sll	s0,s5,a0
   210bc:	ab5ff06f          	j	20b70 <__muldf3+0x16c>
   210c0:	00000813          	li	a6,0
   210c4:	7ff00793          	li	a5,2047
   210c8:	000806b7          	lui	a3,0x80
   210cc:	ae9ff06f          	j	20bb4 <__muldf3+0x1b0>
   210d0:	00088313          	mv	t1,a7
   210d4:	df5ff06f          	j	20ec8 <__muldf3+0x4c4>
   210d8:	7ff00793          	li	a5,2047
   210dc:	00000693          	li	a3,0
   210e0:	00000713          	li	a4,0
   210e4:	ad1ff06f          	j	20bb4 <__muldf3+0x1b0>
   210e8:	00000813          	li	a6,0
   210ec:	7ff00793          	li	a5,2047
   210f0:	000806b7          	lui	a3,0x80
   210f4:	00000713          	li	a4,0
   210f8:	abdff06f          	j	20bb4 <__muldf3+0x1b0>
   210fc:	40f70733          	sub	a4,a4,a5
   21100:	03800693          	li	a3,56
   21104:	aae6c2e3          	blt	a3,a4,20ba8 <__muldf3+0x1a4>
   21108:	01f00693          	li	a3,31
   2110c:	eee6dae3          	bge	a3,a4,21000 <__muldf3+0x5fc>
   21110:	fe100693          	li	a3,-31
   21114:	40f687b3          	sub	a5,a3,a5
   21118:	02000693          	li	a3,32
   2111c:	00f4d7b3          	srl	a5,s1,a5
   21120:	00d70863          	beq	a4,a3,21130 <__muldf3+0x72c>
   21124:	43e30313          	add	t1,t1,1086
   21128:	00649333          	sll	t1,s1,t1
   2112c:	006a6a33          	or	s4,s4,t1
   21130:	01403633          	snez	a2,s4
   21134:	00f66633          	or	a2,a2,a5
   21138:	00767713          	and	a4,a2,7
   2113c:	00000693          	li	a3,0
   21140:	02070863          	beqz	a4,21170 <__muldf3+0x76c>
   21144:	00f67793          	and	a5,a2,15
   21148:	00400713          	li	a4,4
   2114c:	00000593          	li	a1,0
   21150:	00e78a63          	beq	a5,a4,21164 <__muldf3+0x760>
   21154:	00460793          	add	a5,a2,4
   21158:	00c7b633          	sltu	a2,a5,a2
   2115c:	00c035b3          	snez	a1,a2
   21160:	00078613          	mv	a2,a5
   21164:	00959693          	sll	a3,a1,0x9
   21168:	01d59713          	sll	a4,a1,0x1d
   2116c:	00c6d693          	srl	a3,a3,0xc
   21170:	00365613          	srl	a2,a2,0x3
   21174:	00e66733          	or	a4,a2,a4
   21178:	00000793          	li	a5,0
   2117c:	a39ff06f          	j	20bb4 <__muldf3+0x1b0>
   21180:	00040493          	mv	s1,s0
   21184:	000a8a13          	mv	s4,s5
   21188:	00300b93          	li	s7,3
   2118c:	00098593          	mv	a1,s3
   21190:	9fdff06f          	j	20b8c <__muldf3+0x188>

00021194 <__subdf3>:
   21194:	001007b7          	lui	a5,0x100
   21198:	fff78793          	add	a5,a5,-1 # fffff <__BSS_END__+0xdb0ef>
   2119c:	fe010113          	add	sp,sp,-32
   211a0:	00b7f8b3          	and	a7,a5,a1
   211a4:	00d7f833          	and	a6,a5,a3
   211a8:	0146d793          	srl	a5,a3,0x14
   211ac:	00389893          	sll	a7,a7,0x3
   211b0:	00812c23          	sw	s0,24(sp)
   211b4:	01312623          	sw	s3,12(sp)
   211b8:	01f5d413          	srl	s0,a1,0x1f
   211bc:	0145d993          	srl	s3,a1,0x14
   211c0:	01d55713          	srl	a4,a0,0x1d
   211c4:	00381813          	sll	a6,a6,0x3
   211c8:	01d65593          	srl	a1,a2,0x1d
   211cc:	00112e23          	sw	ra,28(sp)
   211d0:	00912a23          	sw	s1,20(sp)
   211d4:	01212823          	sw	s2,16(sp)
   211d8:	7ff7ff13          	and	t5,a5,2047
   211dc:	7ff00313          	li	t1,2047
   211e0:	01176733          	or	a4,a4,a7
   211e4:	7ff9f993          	and	s3,s3,2047
   211e8:	00040e13          	mv	t3,s0
   211ec:	00351893          	sll	a7,a0,0x3
   211f0:	01f6d693          	srl	a3,a3,0x1f
   211f4:	0105e5b3          	or	a1,a1,a6
   211f8:	00361e93          	sll	t4,a2,0x3
   211fc:	206f0c63          	beq	t5,t1,21414 <__subdf3+0x280>
   21200:	0016c693          	xor	a3,a3,1
   21204:	41e987b3          	sub	a5,s3,t5
   21208:	16d40263          	beq	s0,a3,2136c <__subdf3+0x1d8>
   2120c:	00f05ae3          	blez	a5,21a20 <__subdf3+0x88c>
   21210:	240f0a63          	beqz	t5,21464 <__subdf3+0x2d0>
   21214:	3c698463          	beq	s3,t1,215dc <__subdf3+0x448>
   21218:	03800693          	li	a3,56
   2121c:	00100513          	li	a0,1
   21220:	02f6ce63          	blt	a3,a5,2125c <__subdf3+0xc8>
   21224:	008006b7          	lui	a3,0x800
   21228:	00d5e5b3          	or	a1,a1,a3
   2122c:	01f00693          	li	a3,31
   21230:	4ef6c463          	blt	a3,a5,21718 <__subdf3+0x584>
   21234:	02000693          	li	a3,32
   21238:	40f686b3          	sub	a3,a3,a5
   2123c:	00d59533          	sll	a0,a1,a3
   21240:	00fed633          	srl	a2,t4,a5
   21244:	00de96b3          	sll	a3,t4,a3
   21248:	00c56533          	or	a0,a0,a2
   2124c:	00d036b3          	snez	a3,a3
   21250:	00f5d7b3          	srl	a5,a1,a5
   21254:	00d56533          	or	a0,a0,a3
   21258:	40f70733          	sub	a4,a4,a5
   2125c:	40a88533          	sub	a0,a7,a0
   21260:	00a8b633          	sltu	a2,a7,a0
   21264:	00050493          	mv	s1,a0
   21268:	40c70933          	sub	s2,a4,a2
   2126c:	00891793          	sll	a5,s2,0x8
   21270:	3407d863          	bgez	a5,215c0 <__subdf3+0x42c>
   21274:	008007b7          	lui	a5,0x800
   21278:	fff78793          	add	a5,a5,-1 # 7fffff <__BSS_END__+0x7db0ef>
   2127c:	00f97933          	and	s2,s2,a5
   21280:	2e090663          	beqz	s2,2156c <__subdf3+0x3d8>
   21284:	00090513          	mv	a0,s2
   21288:	71d000ef          	jal	221a4 <__clzsi2>
   2128c:	ff850793          	add	a5,a0,-8
   21290:	02000693          	li	a3,32
   21294:	40f68733          	sub	a4,a3,a5
   21298:	00e4d733          	srl	a4,s1,a4
   2129c:	00f91933          	sll	s2,s2,a5
   212a0:	01276733          	or	a4,a4,s2
   212a4:	00f494b3          	sll	s1,s1,a5
   212a8:	3f37c463          	blt	a5,s3,21690 <__subdf3+0x4fc>
   212ac:	413787b3          	sub	a5,a5,s3
   212b0:	00178793          	add	a5,a5,1
   212b4:	40f686b3          	sub	a3,a3,a5
   212b8:	00d49633          	sll	a2,s1,a3
   212bc:	00f4d933          	srl	s2,s1,a5
   212c0:	00c03633          	snez	a2,a2
   212c4:	00c96633          	or	a2,s2,a2
   212c8:	00d716b3          	sll	a3,a4,a3
   212cc:	00c6e4b3          	or	s1,a3,a2
   212d0:	00f75933          	srl	s2,a4,a5
   212d4:	00000993          	li	s3,0
   212d8:	0074f793          	and	a5,s1,7
   212dc:	02078063          	beqz	a5,212fc <__subdf3+0x168>
   212e0:	00f4f793          	and	a5,s1,15
   212e4:	00400713          	li	a4,4
   212e8:	00e78a63          	beq	a5,a4,212fc <__subdf3+0x168>
   212ec:	00448793          	add	a5,s1,4
   212f0:	0097b533          	sltu	a0,a5,s1
   212f4:	00a90933          	add	s2,s2,a0
   212f8:	00078493          	mv	s1,a5
   212fc:	00891793          	sll	a5,s2,0x8
   21300:	6c07d063          	bgez	a5,219c0 <__subdf3+0x82c>
   21304:	00198793          	add	a5,s3,1
   21308:	7ff00713          	li	a4,2047
   2130c:	24e78663          	beq	a5,a4,21558 <__subdf3+0x3c4>
   21310:	ff800737          	lui	a4,0xff800
   21314:	fff70713          	add	a4,a4,-1 # ff7fffff <__BSS_END__+0xff7db0ef>
   21318:	00e97733          	and	a4,s2,a4
   2131c:	7ff7f793          	and	a5,a5,2047
   21320:	01d71813          	sll	a6,a4,0x1d
   21324:	0034d513          	srl	a0,s1,0x3
   21328:	00971713          	sll	a4,a4,0x9
   2132c:	00a86833          	or	a6,a6,a0
   21330:	00c75713          	srl	a4,a4,0xc
   21334:	00147e13          	and	t3,s0,1
   21338:	01c12083          	lw	ra,28(sp)
   2133c:	01812403          	lw	s0,24(sp)
   21340:	01479793          	sll	a5,a5,0x14
   21344:	00e7e7b3          	or	a5,a5,a4
   21348:	01fe1713          	sll	a4,t3,0x1f
   2134c:	00e7e7b3          	or	a5,a5,a4
   21350:	01412483          	lw	s1,20(sp)
   21354:	01012903          	lw	s2,16(sp)
   21358:	00c12983          	lw	s3,12(sp)
   2135c:	00080513          	mv	a0,a6
   21360:	00078593          	mv	a1,a5
   21364:	02010113          	add	sp,sp,32
   21368:	00008067          	ret
   2136c:	70f05263          	blez	a5,21a70 <__subdf3+0x8dc>
   21370:	1c0f1663          	bnez	t5,2153c <__subdf3+0x3a8>
   21374:	01d5e6b3          	or	a3,a1,t4
   21378:	26068e63          	beqz	a3,215f4 <__subdf3+0x460>
   2137c:	fff78693          	add	a3,a5,-1
   21380:	46068863          	beqz	a3,217f0 <__subdf3+0x65c>
   21384:	24678c63          	beq	a5,t1,215dc <__subdf3+0x448>
   21388:	03800793          	li	a5,56
   2138c:	00100913          	li	s2,1
   21390:	02d7cc63          	blt	a5,a3,213c8 <__subdf3+0x234>
   21394:	00068793          	mv	a5,a3
   21398:	01f00693          	li	a3,31
   2139c:	48f6ca63          	blt	a3,a5,21830 <__subdf3+0x69c>
   213a0:	02000693          	li	a3,32
   213a4:	40f686b3          	sub	a3,a3,a5
   213a8:	00d59933          	sll	s2,a1,a3
   213ac:	00fed633          	srl	a2,t4,a5
   213b0:	00de96b3          	sll	a3,t4,a3
   213b4:	00c96933          	or	s2,s2,a2
   213b8:	00d036b3          	snez	a3,a3
   213bc:	00f5d7b3          	srl	a5,a1,a5
   213c0:	00d96933          	or	s2,s2,a3
   213c4:	00f70733          	add	a4,a4,a5
   213c8:	01190633          	add	a2,s2,a7
   213cc:	01263933          	sltu	s2,a2,s2
   213d0:	00060493          	mv	s1,a2
   213d4:	00e90933          	add	s2,s2,a4
   213d8:	00891793          	sll	a5,s2,0x8
   213dc:	1e07d263          	bgez	a5,215c0 <__subdf3+0x42c>
   213e0:	00198993          	add	s3,s3,1
   213e4:	7ff00793          	li	a5,2047
   213e8:	16f98863          	beq	s3,a5,21558 <__subdf3+0x3c4>
   213ec:	ff8007b7          	lui	a5,0xff800
   213f0:	fff78793          	add	a5,a5,-1 # ff7fffff <__BSS_END__+0xff7db0ef>
   213f4:	0014f513          	and	a0,s1,1
   213f8:	00f977b3          	and	a5,s2,a5
   213fc:	0014d713          	srl	a4,s1,0x1
   21400:	00a76733          	or	a4,a4,a0
   21404:	01f79513          	sll	a0,a5,0x1f
   21408:	00e564b3          	or	s1,a0,a4
   2140c:	0017d913          	srl	s2,a5,0x1
   21410:	ec9ff06f          	j	212d8 <__subdf3+0x144>
   21414:	01d5e833          	or	a6,a1,t4
   21418:	80198313          	add	t1,s3,-2047
   2141c:	06080863          	beqz	a6,2148c <__subdf3+0x2f8>
   21420:	06d40a63          	beq	s0,a3,21494 <__subdf3+0x300>
   21424:	0e030463          	beqz	t1,2150c <__subdf3+0x378>
   21428:	26098e63          	beqz	s3,216a4 <__subdf3+0x510>
   2142c:	00361513          	sll	a0,a2,0x3
   21430:	00355513          	srl	a0,a0,0x3
   21434:	00068413          	mv	s0,a3
   21438:	00058713          	mv	a4,a1
   2143c:	01d71813          	sll	a6,a4,0x1d
   21440:	00a86833          	or	a6,a6,a0
   21444:	00375713          	srl	a4,a4,0x3
   21448:	01076733          	or	a4,a4,a6
   2144c:	10070663          	beqz	a4,21558 <__subdf3+0x3c4>
   21450:	00000e13          	li	t3,0
   21454:	7ff00793          	li	a5,2047
   21458:	00080737          	lui	a4,0x80
   2145c:	00000813          	li	a6,0
   21460:	ed9ff06f          	j	21338 <__subdf3+0x1a4>
   21464:	01d5e6b3          	or	a3,a1,t4
   21468:	18068663          	beqz	a3,215f4 <__subdf3+0x460>
   2146c:	fff78693          	add	a3,a5,-1
   21470:	3a068263          	beqz	a3,21814 <__subdf3+0x680>
   21474:	16678463          	beq	a5,t1,215dc <__subdf3+0x448>
   21478:	03800793          	li	a5,56
   2147c:	00100513          	li	a0,1
   21480:	dcd7cee3          	blt	a5,a3,2125c <__subdf3+0xc8>
   21484:	00068793          	mv	a5,a3
   21488:	da5ff06f          	j	2122c <__subdf3+0x98>
   2148c:	0016c693          	xor	a3,a3,1
   21490:	f8d41ae3          	bne	s0,a3,21424 <__subdf3+0x290>
   21494:	18030863          	beqz	t1,21624 <__subdf3+0x490>
   21498:	2c099063          	bnez	s3,21758 <__subdf3+0x5c4>
   2149c:	7ff00793          	li	a5,2047
   214a0:	011766b3          	or	a3,a4,a7
   214a4:	48068863          	beqz	a3,21934 <__subdf3+0x7a0>
   214a8:	fff78693          	add	a3,a5,-1
   214ac:	34068263          	beqz	a3,217f0 <__subdf3+0x65c>
   214b0:	7ff00513          	li	a0,2047
   214b4:	2aa78263          	beq	a5,a0,21758 <__subdf3+0x5c4>
   214b8:	03800793          	li	a5,56
   214bc:	00100913          	li	s2,1
   214c0:	02d7ca63          	blt	a5,a3,214f4 <__subdf3+0x360>
   214c4:	01f00793          	li	a5,31
   214c8:	4cd7c663          	blt	a5,a3,21994 <__subdf3+0x800>
   214cc:	02000793          	li	a5,32
   214d0:	40d787b3          	sub	a5,a5,a3
   214d4:	00f71933          	sll	s2,a4,a5
   214d8:	00d8d633          	srl	a2,a7,a3
   214dc:	00f897b3          	sll	a5,a7,a5
   214e0:	00c96933          	or	s2,s2,a2
   214e4:	00f037b3          	snez	a5,a5
   214e8:	00d756b3          	srl	a3,a4,a3
   214ec:	00f96933          	or	s2,s2,a5
   214f0:	00d585b3          	add	a1,a1,a3
   214f4:	01d90733          	add	a4,s2,t4
   214f8:	01273933          	sltu	s2,a4,s2
   214fc:	00070493          	mv	s1,a4
   21500:	00b90933          	add	s2,s2,a1
   21504:	000f0993          	mv	s3,t5
   21508:	ed1ff06f          	j	213d8 <__subdf3+0x244>
   2150c:	00198793          	add	a5,s3,1
   21510:	7fe7f793          	and	a5,a5,2046
   21514:	14079463          	bnez	a5,2165c <__subdf3+0x4c8>
   21518:	01d5e833          	or	a6,a1,t4
   2151c:	011767b3          	or	a5,a4,a7
   21520:	2a099463          	bnez	s3,217c8 <__subdf3+0x634>
   21524:	38078e63          	beqz	a5,218c0 <__subdf3+0x72c>
   21528:	3c081063          	bnez	a6,218e8 <__subdf3+0x754>
   2152c:	00351513          	sll	a0,a0,0x3
   21530:	00355913          	srl	s2,a0,0x3
   21534:	00000793          	li	a5,0
   21538:	1140006f          	j	2164c <__subdf3+0x4b8>
   2153c:	0a698063          	beq	s3,t1,215dc <__subdf3+0x448>
   21540:	03800693          	li	a3,56
   21544:	00100913          	li	s2,1
   21548:	e8f6c0e3          	blt	a3,a5,213c8 <__subdf3+0x234>
   2154c:	008006b7          	lui	a3,0x800
   21550:	00d5e5b3          	or	a1,a1,a3
   21554:	e45ff06f          	j	21398 <__subdf3+0x204>
   21558:	00147e13          	and	t3,s0,1
   2155c:	7ff00793          	li	a5,2047
   21560:	00000713          	li	a4,0
   21564:	00000813          	li	a6,0
   21568:	dd1ff06f          	j	21338 <__subdf3+0x1a4>
   2156c:	00048513          	mv	a0,s1
   21570:	435000ef          	jal	221a4 <__clzsi2>
   21574:	01850793          	add	a5,a0,24
   21578:	01f00693          	li	a3,31
   2157c:	d0f6dae3          	bge	a3,a5,21290 <__subdf3+0xfc>
   21580:	ff850713          	add	a4,a0,-8
   21584:	00e49733          	sll	a4,s1,a4
   21588:	1b37ce63          	blt	a5,s3,21744 <__subdf3+0x5b0>
   2158c:	413789b3          	sub	s3,a5,s3
   21590:	00198793          	add	a5,s3,1
   21594:	42f6de63          	bge	a3,a5,219d0 <__subdf3+0x83c>
   21598:	fe198993          	add	s3,s3,-31
   2159c:	02000693          	li	a3,32
   215a0:	013754b3          	srl	s1,a4,s3
   215a4:	00d78c63          	beq	a5,a3,215bc <__subdf3+0x428>
   215a8:	04000693          	li	a3,64
   215ac:	40f687b3          	sub	a5,a3,a5
   215b0:	00f71733          	sll	a4,a4,a5
   215b4:	00e03733          	snez	a4,a4
   215b8:	00e4e4b3          	or	s1,s1,a4
   215bc:	00000993          	li	s3,0
   215c0:	0074f793          	and	a5,s1,7
   215c4:	d0079ee3          	bnez	a5,212e0 <__subdf3+0x14c>
   215c8:	00098793          	mv	a5,s3
   215cc:	0034d513          	srl	a0,s1,0x3
   215d0:	00090713          	mv	a4,s2
   215d4:	0280006f          	j	215fc <__subdf3+0x468>
   215d8:	e6081ce3          	bnez	a6,21450 <__subdf3+0x2bc>
   215dc:	00351513          	sll	a0,a0,0x3
   215e0:	01d71813          	sll	a6,a4,0x1d
   215e4:	00355513          	srl	a0,a0,0x3
   215e8:	00a86833          	or	a6,a6,a0
   215ec:	00375713          	srl	a4,a4,0x3
   215f0:	e59ff06f          	j	21448 <__subdf3+0x2b4>
   215f4:	00351513          	sll	a0,a0,0x3
   215f8:	00355513          	srl	a0,a0,0x3
   215fc:	01d71813          	sll	a6,a4,0x1d
   21600:	7ff00693          	li	a3,2047
   21604:	00a86833          	or	a6,a6,a0
   21608:	00375713          	srl	a4,a4,0x3
   2160c:	e2d78ee3          	beq	a5,a3,21448 <__subdf3+0x2b4>
   21610:	00c71713          	sll	a4,a4,0xc
   21614:	00c75713          	srl	a4,a4,0xc
   21618:	7ff7f793          	and	a5,a5,2047
   2161c:	00147e13          	and	t3,s0,1
   21620:	d19ff06f          	j	21338 <__subdf3+0x1a4>
   21624:	00198693          	add	a3,s3,1
   21628:	7fe6f793          	and	a5,a3,2046
   2162c:	12079e63          	bnez	a5,21768 <__subdf3+0x5d4>
   21630:	011767b3          	or	a5,a4,a7
   21634:	24099a63          	bnez	s3,21888 <__subdf3+0x6f4>
   21638:	30078663          	beqz	a5,21944 <__subdf3+0x7b0>
   2163c:	01d5e7b3          	or	a5,a1,t4
   21640:	30079a63          	bnez	a5,21954 <__subdf3+0x7c0>
   21644:	00351513          	sll	a0,a0,0x3
   21648:	00355913          	srl	s2,a0,0x3
   2164c:	01d71813          	sll	a6,a4,0x1d
   21650:	01286833          	or	a6,a6,s2
   21654:	00375713          	srl	a4,a4,0x3
   21658:	fb9ff06f          	j	21610 <__subdf3+0x47c>
   2165c:	41d88833          	sub	a6,a7,t4
   21660:	0108b7b3          	sltu	a5,a7,a6
   21664:	40b70933          	sub	s2,a4,a1
   21668:	40f90933          	sub	s2,s2,a5
   2166c:	00891793          	sll	a5,s2,0x8
   21670:	00080493          	mv	s1,a6
   21674:	1207c263          	bltz	a5,21798 <__subdf3+0x604>
   21678:	01286833          	or	a6,a6,s2
   2167c:	c00812e3          	bnez	a6,21280 <__subdf3+0xec>
   21680:	00000e13          	li	t3,0
   21684:	00000793          	li	a5,0
   21688:	00000713          	li	a4,0
   2168c:	cadff06f          	j	21338 <__subdf3+0x1a4>
   21690:	ff800937          	lui	s2,0xff800
   21694:	fff90913          	add	s2,s2,-1 # ff7fffff <__BSS_END__+0xff7db0ef>
   21698:	40f989b3          	sub	s3,s3,a5
   2169c:	01277933          	and	s2,a4,s2
   216a0:	c39ff06f          	j	212d8 <__subdf3+0x144>
   216a4:	7ff00793          	li	a5,2047
   216a8:	01176533          	or	a0,a4,a7
   216ac:	10050463          	beqz	a0,217b4 <__subdf3+0x620>
   216b0:	fff78813          	add	a6,a5,-1
   216b4:	1e080263          	beqz	a6,21898 <__subdf3+0x704>
   216b8:	7ff00513          	li	a0,2047
   216bc:	d6a788e3          	beq	a5,a0,2142c <__subdf3+0x298>
   216c0:	03800793          	li	a5,56
   216c4:	00068413          	mv	s0,a3
   216c8:	00100513          	li	a0,1
   216cc:	0307ca63          	blt	a5,a6,21700 <__subdf3+0x56c>
   216d0:	01f00793          	li	a5,31
   216d4:	1907c463          	blt	a5,a6,2185c <__subdf3+0x6c8>
   216d8:	02000793          	li	a5,32
   216dc:	410787b3          	sub	a5,a5,a6
   216e0:	00f71533          	sll	a0,a4,a5
   216e4:	0108d6b3          	srl	a3,a7,a6
   216e8:	00f897b3          	sll	a5,a7,a5
   216ec:	00d56533          	or	a0,a0,a3
   216f0:	00f037b3          	snez	a5,a5
   216f4:	01075833          	srl	a6,a4,a6
   216f8:	00f56533          	or	a0,a0,a5
   216fc:	410585b3          	sub	a1,a1,a6
   21700:	40ae8533          	sub	a0,t4,a0
   21704:	00aeb733          	sltu	a4,t4,a0
   21708:	00050493          	mv	s1,a0
   2170c:	40e58933          	sub	s2,a1,a4
   21710:	000f0993          	mv	s3,t5
   21714:	b59ff06f          	j	2126c <__subdf3+0xd8>
   21718:	fe078693          	add	a3,a5,-32
   2171c:	02000613          	li	a2,32
   21720:	00d5d6b3          	srl	a3,a1,a3
   21724:	00c78a63          	beq	a5,a2,21738 <__subdf3+0x5a4>
   21728:	04000613          	li	a2,64
   2172c:	40f607b3          	sub	a5,a2,a5
   21730:	00f597b3          	sll	a5,a1,a5
   21734:	00feeeb3          	or	t4,t4,a5
   21738:	01d03533          	snez	a0,t4
   2173c:	00d56533          	or	a0,a0,a3
   21740:	b1dff06f          	j	2125c <__subdf3+0xc8>
   21744:	ff8006b7          	lui	a3,0xff800
   21748:	fff68693          	add	a3,a3,-1 # ff7fffff <__BSS_END__+0xff7db0ef>
   2174c:	40f987b3          	sub	a5,s3,a5
   21750:	00d77733          	and	a4,a4,a3
   21754:	ef9ff06f          	j	2164c <__subdf3+0x4b8>
   21758:	00361513          	sll	a0,a2,0x3
   2175c:	00355513          	srl	a0,a0,0x3
   21760:	00058713          	mv	a4,a1
   21764:	cd9ff06f          	j	2143c <__subdf3+0x2a8>
   21768:	7ff00793          	li	a5,2047
   2176c:	def686e3          	beq	a3,a5,21558 <__subdf3+0x3c4>
   21770:	01d88eb3          	add	t4,a7,t4
   21774:	011eb633          	sltu	a2,t4,a7
   21778:	00b707b3          	add	a5,a4,a1
   2177c:	00c787b3          	add	a5,a5,a2
   21780:	01f79513          	sll	a0,a5,0x1f
   21784:	001ede93          	srl	t4,t4,0x1
   21788:	01d564b3          	or	s1,a0,t4
   2178c:	0017d913          	srl	s2,a5,0x1
   21790:	00068993          	mv	s3,a3
   21794:	b45ff06f          	j	212d8 <__subdf3+0x144>
   21798:	411e8633          	sub	a2,t4,a7
   2179c:	40e587b3          	sub	a5,a1,a4
   217a0:	00ceb733          	sltu	a4,t4,a2
   217a4:	00060493          	mv	s1,a2
   217a8:	40e78933          	sub	s2,a5,a4
   217ac:	00068413          	mv	s0,a3
   217b0:	ad1ff06f          	j	21280 <__subdf3+0xec>
   217b4:	00361613          	sll	a2,a2,0x3
   217b8:	00365513          	srl	a0,a2,0x3
   217bc:	00068413          	mv	s0,a3
   217c0:	00058713          	mv	a4,a1
   217c4:	e39ff06f          	j	215fc <__subdf3+0x468>
   217c8:	e00798e3          	bnez	a5,215d8 <__subdf3+0x444>
   217cc:	22080663          	beqz	a6,219f8 <__subdf3+0x864>
   217d0:	0035d713          	srl	a4,a1,0x3
   217d4:	00361613          	sll	a2,a2,0x3
   217d8:	01d59593          	sll	a1,a1,0x1d
   217dc:	00b76733          	or	a4,a4,a1
   217e0:	00365613          	srl	a2,a2,0x3
   217e4:	00c76733          	or	a4,a4,a2
   217e8:	00068413          	mv	s0,a3
   217ec:	c61ff06f          	j	2144c <__subdf3+0x2b8>
   217f0:	01d88eb3          	add	t4,a7,t4
   217f4:	00b705b3          	add	a1,a4,a1
   217f8:	011eb633          	sltu	a2,t4,a7
   217fc:	00c58933          	add	s2,a1,a2
   21800:	00891793          	sll	a5,s2,0x8
   21804:	000e8493          	mv	s1,t4
   21808:	0a07d863          	bgez	a5,218b8 <__subdf3+0x724>
   2180c:	00200993          	li	s3,2
   21810:	bddff06f          	j	213ec <__subdf3+0x258>
   21814:	41d88eb3          	sub	t4,a7,t4
   21818:	40b705b3          	sub	a1,a4,a1
   2181c:	01d8b633          	sltu	a2,a7,t4
   21820:	000e8493          	mv	s1,t4
   21824:	40c58933          	sub	s2,a1,a2
   21828:	00100993          	li	s3,1
   2182c:	a41ff06f          	j	2126c <__subdf3+0xd8>
   21830:	fe078693          	add	a3,a5,-32
   21834:	02000613          	li	a2,32
   21838:	00d5d6b3          	srl	a3,a1,a3
   2183c:	00c78a63          	beq	a5,a2,21850 <__subdf3+0x6bc>
   21840:	04000613          	li	a2,64
   21844:	40f607b3          	sub	a5,a2,a5
   21848:	00f597b3          	sll	a5,a1,a5
   2184c:	00feeeb3          	or	t4,t4,a5
   21850:	01d03933          	snez	s2,t4
   21854:	00d96933          	or	s2,s2,a3
   21858:	b71ff06f          	j	213c8 <__subdf3+0x234>
   2185c:	fe080793          	add	a5,a6,-32
   21860:	02000693          	li	a3,32
   21864:	00f757b3          	srl	a5,a4,a5
   21868:	00d80a63          	beq	a6,a3,2187c <__subdf3+0x6e8>
   2186c:	04000693          	li	a3,64
   21870:	410686b3          	sub	a3,a3,a6
   21874:	00d71733          	sll	a4,a4,a3
   21878:	00e8e8b3          	or	a7,a7,a4
   2187c:	01103533          	snez	a0,a7
   21880:	00f56533          	or	a0,a0,a5
   21884:	e7dff06f          	j	21700 <__subdf3+0x56c>
   21888:	ec0788e3          	beqz	a5,21758 <__subdf3+0x5c4>
   2188c:	01d5eeb3          	or	t4,a1,t4
   21890:	bc0e90e3          	bnez	t4,21450 <__subdf3+0x2bc>
   21894:	d49ff06f          	j	215dc <__subdf3+0x448>
   21898:	411e8633          	sub	a2,t4,a7
   2189c:	40e585b3          	sub	a1,a1,a4
   218a0:	00ceb733          	sltu	a4,t4,a2
   218a4:	00060493          	mv	s1,a2
   218a8:	40e58933          	sub	s2,a1,a4
   218ac:	00068413          	mv	s0,a3
   218b0:	00100993          	li	s3,1
   218b4:	9b9ff06f          	j	2126c <__subdf3+0xd8>
   218b8:	00100793          	li	a5,1
   218bc:	d11ff06f          	j	215cc <__subdf3+0x438>
   218c0:	dc0800e3          	beqz	a6,21680 <__subdf3+0x4ec>
   218c4:	00361613          	sll	a2,a2,0x3
   218c8:	00365793          	srl	a5,a2,0x3
   218cc:	01d59813          	sll	a6,a1,0x1d
   218d0:	00959713          	sll	a4,a1,0x9
   218d4:	00f86833          	or	a6,a6,a5
   218d8:	00c75713          	srl	a4,a4,0xc
   218dc:	00068e13          	mv	t3,a3
   218e0:	00000793          	li	a5,0
   218e4:	a55ff06f          	j	21338 <__subdf3+0x1a4>
   218e8:	41d88933          	sub	s2,a7,t4
   218ec:	0128b7b3          	sltu	a5,a7,s2
   218f0:	40b70633          	sub	a2,a4,a1
   218f4:	40f60633          	sub	a2,a2,a5
   218f8:	00861793          	sll	a5,a2,0x8
   218fc:	0e07d263          	bgez	a5,219e0 <__subdf3+0x84c>
   21900:	411e8633          	sub	a2,t4,a7
   21904:	40e58733          	sub	a4,a1,a4
   21908:	00cebeb3          	sltu	t4,t4,a2
   2190c:	41d70733          	sub	a4,a4,t4
   21910:	00871793          	sll	a5,a4,0x8
   21914:	00060493          	mv	s1,a2
   21918:	1207de63          	bgez	a5,21a54 <__subdf3+0x8c0>
   2191c:	ff8007b7          	lui	a5,0xff800
   21920:	fff78793          	add	a5,a5,-1 # ff7fffff <__BSS_END__+0xff7db0ef>
   21924:	00f77733          	and	a4,a4,a5
   21928:	00068413          	mv	s0,a3
   2192c:	00100793          	li	a5,1
   21930:	9f1ff06f          	j	21320 <__subdf3+0x18c>
   21934:	00361613          	sll	a2,a2,0x3
   21938:	00365513          	srl	a0,a2,0x3
   2193c:	00058713          	mv	a4,a1
   21940:	cbdff06f          	j	215fc <__subdf3+0x468>
   21944:	00361613          	sll	a2,a2,0x3
   21948:	00365913          	srl	s2,a2,0x3
   2194c:	00058713          	mv	a4,a1
   21950:	cfdff06f          	j	2164c <__subdf3+0x4b8>
   21954:	01d886b3          	add	a3,a7,t4
   21958:	00b707b3          	add	a5,a4,a1
   2195c:	0116b633          	sltu	a2,a3,a7
   21960:	00c787b3          	add	a5,a5,a2
   21964:	00879713          	sll	a4,a5,0x8
   21968:	0036d813          	srl	a6,a3,0x3
   2196c:	08075e63          	bgez	a4,21a08 <__subdf3+0x874>
   21970:	ff800737          	lui	a4,0xff800
   21974:	fff70713          	add	a4,a4,-1 # ff7fffff <__BSS_END__+0xff7db0ef>
   21978:	00e7f7b3          	and	a5,a5,a4
   2197c:	01d79713          	sll	a4,a5,0x1d
   21980:	00979793          	sll	a5,a5,0x9
   21984:	01076833          	or	a6,a4,a6
   21988:	00c7d713          	srl	a4,a5,0xc
   2198c:	00100793          	li	a5,1
   21990:	9a9ff06f          	j	21338 <__subdf3+0x1a4>
   21994:	fe068793          	add	a5,a3,-32
   21998:	02000613          	li	a2,32
   2199c:	00f757b3          	srl	a5,a4,a5
   219a0:	00c68a63          	beq	a3,a2,219b4 <__subdf3+0x820>
   219a4:	04000613          	li	a2,64
   219a8:	40d606b3          	sub	a3,a2,a3
   219ac:	00d71733          	sll	a4,a4,a3
   219b0:	00e8e8b3          	or	a7,a7,a4
   219b4:	01103933          	snez	s2,a7
   219b8:	00f96933          	or	s2,s2,a5
   219bc:	b39ff06f          	j	214f4 <__subdf3+0x360>
   219c0:	0034d513          	srl	a0,s1,0x3
   219c4:	00098793          	mv	a5,s3
   219c8:	00090713          	mv	a4,s2
   219cc:	c31ff06f          	j	215fc <__subdf3+0x468>
   219d0:	02000693          	li	a3,32
   219d4:	40f686b3          	sub	a3,a3,a5
   219d8:	00000613          	li	a2,0
   219dc:	8e9ff06f          	j	212c4 <__subdf3+0x130>
   219e0:	00c96833          	or	a6,s2,a2
   219e4:	c8080ee3          	beqz	a6,21680 <__subdf3+0x4ec>
   219e8:	00395913          	srl	s2,s2,0x3
   219ec:	00000793          	li	a5,0
   219f0:	00060713          	mv	a4,a2
   219f4:	c59ff06f          	j	2164c <__subdf3+0x4b8>
   219f8:	00000e13          	li	t3,0
   219fc:	7ff00793          	li	a5,2047
   21a00:	00080737          	lui	a4,0x80
   21a04:	935ff06f          	j	21338 <__subdf3+0x1a4>
   21a08:	01d79713          	sll	a4,a5,0x1d
   21a0c:	00979793          	sll	a5,a5,0x9
   21a10:	01076833          	or	a6,a4,a6
   21a14:	00c7d713          	srl	a4,a5,0xc
   21a18:	00000793          	li	a5,0
   21a1c:	91dff06f          	j	21338 <__subdf3+0x1a4>
   21a20:	ae0786e3          	beqz	a5,2150c <__subdf3+0x378>
   21a24:	413f0833          	sub	a6,t5,s3
   21a28:	00080793          	mv	a5,a6
   21a2c:	c6098ee3          	beqz	s3,216a8 <__subdf3+0x514>
   21a30:	03800793          	li	a5,56
   21a34:	0107ca63          	blt	a5,a6,21a48 <__subdf3+0x8b4>
   21a38:	008007b7          	lui	a5,0x800
   21a3c:	00f76733          	or	a4,a4,a5
   21a40:	00068413          	mv	s0,a3
   21a44:	c8dff06f          	j	216d0 <__subdf3+0x53c>
   21a48:	00068413          	mv	s0,a3
   21a4c:	00100513          	li	a0,1
   21a50:	cb1ff06f          	j	21700 <__subdf3+0x56c>
   21a54:	01d71813          	sll	a6,a4,0x1d
   21a58:	00365613          	srl	a2,a2,0x3
   21a5c:	00c86833          	or	a6,a6,a2
   21a60:	00375713          	srl	a4,a4,0x3
   21a64:	00000793          	li	a5,0
   21a68:	00068413          	mv	s0,a3
   21a6c:	ba5ff06f          	j	21610 <__subdf3+0x47c>
   21a70:	ba078ae3          	beqz	a5,21624 <__subdf3+0x490>
   21a74:	413f06b3          	sub	a3,t5,s3
   21a78:	00099663          	bnez	s3,21a84 <__subdf3+0x8f0>
   21a7c:	00068793          	mv	a5,a3
   21a80:	a21ff06f          	j	214a0 <__subdf3+0x30c>
   21a84:	03800793          	li	a5,56
   21a88:	00100913          	li	s2,1
   21a8c:	a6d7c4e3          	blt	a5,a3,214f4 <__subdf3+0x360>
   21a90:	008007b7          	lui	a5,0x800
   21a94:	00f76733          	or	a4,a4,a5
   21a98:	a2dff06f          	j	214c4 <__subdf3+0x330>

00021a9c <__unorddf2>:
   21a9c:	0145d713          	srl	a4,a1,0x14
   21aa0:	001007b7          	lui	a5,0x100
   21aa4:	fff78793          	add	a5,a5,-1 # fffff <__BSS_END__+0xdb0ef>
   21aa8:	fff74713          	not	a4,a4
   21aac:	0146d813          	srl	a6,a3,0x14
   21ab0:	00b7f5b3          	and	a1,a5,a1
   21ab4:	00d7f7b3          	and	a5,a5,a3
   21ab8:	01571693          	sll	a3,a4,0x15
   21abc:	7ff87813          	and	a6,a6,2047
   21ac0:	02068063          	beqz	a3,21ae0 <__unorddf2+0x44>
   21ac4:	7ff00713          	li	a4,2047
   21ac8:	00000513          	li	a0,0
   21acc:	00e80463          	beq	a6,a4,21ad4 <__unorddf2+0x38>
   21ad0:	00008067          	ret
   21ad4:	00c7e7b3          	or	a5,a5,a2
   21ad8:	00f03533          	snez	a0,a5
   21adc:	00008067          	ret
   21ae0:	00a5e5b3          	or	a1,a1,a0
   21ae4:	00100513          	li	a0,1
   21ae8:	fc058ee3          	beqz	a1,21ac4 <__unorddf2+0x28>
   21aec:	00008067          	ret

00021af0 <__fixdfsi>:
   21af0:	0145d793          	srl	a5,a1,0x14
   21af4:	001006b7          	lui	a3,0x100
   21af8:	fff68713          	add	a4,a3,-1 # fffff <__BSS_END__+0xdb0ef>
   21afc:	7ff7f793          	and	a5,a5,2047
   21b00:	3fe00613          	li	a2,1022
   21b04:	00b77733          	and	a4,a4,a1
   21b08:	01f5d593          	srl	a1,a1,0x1f
   21b0c:	00f65e63          	bge	a2,a5,21b28 <__fixdfsi+0x38>
   21b10:	41d00613          	li	a2,1053
   21b14:	00f65e63          	bge	a2,a5,21b30 <__fixdfsi+0x40>
   21b18:	80000537          	lui	a0,0x80000
   21b1c:	fff50513          	add	a0,a0,-1 # 7fffffff <__BSS_END__+0x7ffdb0ef>
   21b20:	00a58533          	add	a0,a1,a0
   21b24:	00008067          	ret
   21b28:	00000513          	li	a0,0
   21b2c:	00008067          	ret
   21b30:	43300613          	li	a2,1075
   21b34:	40f60633          	sub	a2,a2,a5
   21b38:	01f00813          	li	a6,31
   21b3c:	00d76733          	or	a4,a4,a3
   21b40:	02c85063          	bge	a6,a2,21b60 <__fixdfsi+0x70>
   21b44:	41300693          	li	a3,1043
   21b48:	40f687b3          	sub	a5,a3,a5
   21b4c:	00f75733          	srl	a4,a4,a5
   21b50:	40e00533          	neg	a0,a4
   21b54:	fc059ce3          	bnez	a1,21b2c <__fixdfsi+0x3c>
   21b58:	00070513          	mv	a0,a4
   21b5c:	00008067          	ret
   21b60:	bed78793          	add	a5,a5,-1043
   21b64:	00f71733          	sll	a4,a4,a5
   21b68:	00c55533          	srl	a0,a0,a2
   21b6c:	00a76733          	or	a4,a4,a0
   21b70:	fe1ff06f          	j	21b50 <__fixdfsi+0x60>

00021b74 <__floatsidf>:
   21b74:	ff010113          	add	sp,sp,-16
   21b78:	00112623          	sw	ra,12(sp)
   21b7c:	00812423          	sw	s0,8(sp)
   21b80:	00912223          	sw	s1,4(sp)
   21b84:	04050a63          	beqz	a0,21bd8 <__floatsidf+0x64>
   21b88:	41f55713          	sra	a4,a0,0x1f
   21b8c:	00a744b3          	xor	s1,a4,a0
   21b90:	40e484b3          	sub	s1,s1,a4
   21b94:	00050793          	mv	a5,a0
   21b98:	00048513          	mv	a0,s1
   21b9c:	01f7d413          	srl	s0,a5,0x1f
   21ba0:	604000ef          	jal	221a4 <__clzsi2>
   21ba4:	41e00793          	li	a5,1054
   21ba8:	40a787b3          	sub	a5,a5,a0
   21bac:	00a00713          	li	a4,10
   21bb0:	7ff7f793          	and	a5,a5,2047
   21bb4:	06a74063          	blt	a4,a0,21c14 <__floatsidf+0xa0>
   21bb8:	00b00713          	li	a4,11
   21bbc:	40a70733          	sub	a4,a4,a0
   21bc0:	00e4d733          	srl	a4,s1,a4
   21bc4:	01550513          	add	a0,a0,21
   21bc8:	00c71713          	sll	a4,a4,0xc
   21bcc:	00a494b3          	sll	s1,s1,a0
   21bd0:	00c75713          	srl	a4,a4,0xc
   21bd4:	0140006f          	j	21be8 <__floatsidf+0x74>
   21bd8:	00000413          	li	s0,0
   21bdc:	00000793          	li	a5,0
   21be0:	00000713          	li	a4,0
   21be4:	00000493          	li	s1,0
   21be8:	01479793          	sll	a5,a5,0x14
   21bec:	01f41413          	sll	s0,s0,0x1f
   21bf0:	00e7e7b3          	or	a5,a5,a4
   21bf4:	00c12083          	lw	ra,12(sp)
   21bf8:	0087e7b3          	or	a5,a5,s0
   21bfc:	00812403          	lw	s0,8(sp)
   21c00:	00048513          	mv	a0,s1
   21c04:	00078593          	mv	a1,a5
   21c08:	00412483          	lw	s1,4(sp)
   21c0c:	01010113          	add	sp,sp,16
   21c10:	00008067          	ret
   21c14:	ff550513          	add	a0,a0,-11
   21c18:	00a49733          	sll	a4,s1,a0
   21c1c:	00c71713          	sll	a4,a4,0xc
   21c20:	00c75713          	srl	a4,a4,0xc
   21c24:	00000493          	li	s1,0
   21c28:	fc1ff06f          	j	21be8 <__floatsidf+0x74>

00021c2c <__floatunsidf>:
   21c2c:	ff010113          	add	sp,sp,-16
   21c30:	00812423          	sw	s0,8(sp)
   21c34:	00112623          	sw	ra,12(sp)
   21c38:	00050413          	mv	s0,a0
   21c3c:	04050c63          	beqz	a0,21c94 <__floatunsidf+0x68>
   21c40:	564000ef          	jal	221a4 <__clzsi2>
   21c44:	41e00793          	li	a5,1054
   21c48:	40a787b3          	sub	a5,a5,a0
   21c4c:	00a00713          	li	a4,10
   21c50:	7ff7f793          	and	a5,a5,2047
   21c54:	06a74463          	blt	a4,a0,21cbc <__floatunsidf+0x90>
   21c58:	00b00713          	li	a4,11
   21c5c:	40a70733          	sub	a4,a4,a0
   21c60:	01550513          	add	a0,a0,21
   21c64:	00e45733          	srl	a4,s0,a4
   21c68:	00a41433          	sll	s0,s0,a0
   21c6c:	00c12083          	lw	ra,12(sp)
   21c70:	00040513          	mv	a0,s0
   21c74:	00c71713          	sll	a4,a4,0xc
   21c78:	00812403          	lw	s0,8(sp)
   21c7c:	00c75713          	srl	a4,a4,0xc
   21c80:	01479793          	sll	a5,a5,0x14
   21c84:	00e7e7b3          	or	a5,a5,a4
   21c88:	00078593          	mv	a1,a5
   21c8c:	01010113          	add	sp,sp,16
   21c90:	00008067          	ret
   21c94:	00c12083          	lw	ra,12(sp)
   21c98:	00040513          	mv	a0,s0
   21c9c:	00000793          	li	a5,0
   21ca0:	00812403          	lw	s0,8(sp)
   21ca4:	00000713          	li	a4,0
   21ca8:	01479793          	sll	a5,a5,0x14
   21cac:	00e7e7b3          	or	a5,a5,a4
   21cb0:	00078593          	mv	a1,a5
   21cb4:	01010113          	add	sp,sp,16
   21cb8:	00008067          	ret
   21cbc:	ff550513          	add	a0,a0,-11
   21cc0:	00a41733          	sll	a4,s0,a0
   21cc4:	00000413          	li	s0,0
   21cc8:	00c12083          	lw	ra,12(sp)
   21ccc:	00040513          	mv	a0,s0
   21cd0:	00c71713          	sll	a4,a4,0xc
   21cd4:	00812403          	lw	s0,8(sp)
   21cd8:	00c75713          	srl	a4,a4,0xc
   21cdc:	01479793          	sll	a5,a5,0x14
   21ce0:	00e7e7b3          	or	a5,a5,a4
   21ce4:	00078593          	mv	a1,a5
   21ce8:	01010113          	add	sp,sp,16
   21cec:	00008067          	ret

00021cf0 <__trunctfdf2>:
   21cf0:	00c52583          	lw	a1,12(a0)
   21cf4:	00852783          	lw	a5,8(a0)
   21cf8:	00052803          	lw	a6,0(a0)
   21cfc:	00452683          	lw	a3,4(a0)
   21d00:	01059613          	sll	a2,a1,0x10
   21d04:	fe010113          	add	sp,sp,-32
   21d08:	00159713          	sll	a4,a1,0x1
   21d0c:	01065613          	srl	a2,a2,0x10
   21d10:	00f12423          	sw	a5,8(sp)
   21d14:	00b12623          	sw	a1,12(sp)
   21d18:	00f12c23          	sw	a5,24(sp)
   21d1c:	01012023          	sw	a6,0(sp)
   21d20:	00d12223          	sw	a3,4(sp)
   21d24:	01012823          	sw	a6,16(sp)
   21d28:	00d12a23          	sw	a3,20(sp)
   21d2c:	00c12e23          	sw	a2,28(sp)
   21d30:	01175713          	srl	a4,a4,0x11
   21d34:	01f5d593          	srl	a1,a1,0x1f
   21d38:	01010893          	add	a7,sp,16
   21d3c:	01c10793          	add	a5,sp,28
   21d40:	00361513          	sll	a0,a2,0x3
   21d44:	ffc7a603          	lw	a2,-4(a5)
   21d48:	ffc78793          	add	a5,a5,-4
   21d4c:	01d65693          	srl	a3,a2,0x1d
   21d50:	00a6e6b3          	or	a3,a3,a0
   21d54:	00d7a223          	sw	a3,4(a5)
   21d58:	fef894e3          	bne	a7,a5,21d40 <__trunctfdf2+0x50>
   21d5c:	00170693          	add	a3,a4,1 # 80001 <__BSS_END__+0x5b0f1>
   21d60:	00381813          	sll	a6,a6,0x3
   21d64:	01169613          	sll	a2,a3,0x11
   21d68:	01012823          	sw	a6,16(sp)
   21d6c:	01265613          	srl	a2,a2,0x12
   21d70:	04060263          	beqz	a2,21db4 <__trunctfdf2+0xc4>
   21d74:	ffffc6b7          	lui	a3,0xffffc
   21d78:	40068693          	add	a3,a3,1024 # ffffc400 <__BSS_END__+0xfffd74f0>
   21d7c:	00d70733          	add	a4,a4,a3
   21d80:	7fe00693          	li	a3,2046
   21d84:	10e6d463          	bge	a3,a4,21e8c <__trunctfdf2+0x19c>
   21d88:	7ff00793          	li	a5,2047
   21d8c:	00000613          	li	a2,0
   21d90:	00000693          	li	a3,0
   21d94:	01479793          	sll	a5,a5,0x14
   21d98:	01f59593          	sll	a1,a1,0x1f
   21d9c:	00c7e7b3          	or	a5,a5,a2
   21da0:	00b7e7b3          	or	a5,a5,a1
   21da4:	00068513          	mv	a0,a3
   21da8:	00078593          	mv	a1,a5
   21dac:	02010113          	add	sp,sp,32
   21db0:	00008067          	ret
   21db4:	01412603          	lw	a2,20(sp)
   21db8:	01812883          	lw	a7,24(sp)
   21dbc:	01c12503          	lw	a0,28(sp)
   21dc0:	011666b3          	or	a3,a2,a7
   21dc4:	00a6e6b3          	or	a3,a3,a0
   21dc8:	0106e6b3          	or	a3,a3,a6
   21dcc:	04071463          	bnez	a4,21e14 <__trunctfdf2+0x124>
   21dd0:	14068263          	beqz	a3,21f14 <__trunctfdf2+0x224>
   21dd4:	00500693          	li	a3,5
   21dd8:	00000613          	li	a2,0
   21ddc:	0036d793          	srl	a5,a3,0x3
   21de0:	01d61693          	sll	a3,a2,0x1d
   21de4:	00f6e6b3          	or	a3,a3,a5
   21de8:	00961613          	sll	a2,a2,0x9
   21dec:	7ff77793          	and	a5,a4,2047
   21df0:	00c65613          	srl	a2,a2,0xc
   21df4:	01479793          	sll	a5,a5,0x14
   21df8:	01f59593          	sll	a1,a1,0x1f
   21dfc:	00c7e7b3          	or	a5,a5,a2
   21e00:	00b7e7b3          	or	a5,a5,a1
   21e04:	00068513          	mv	a0,a3
   21e08:	00078593          	mv	a1,a5
   21e0c:	02010113          	add	sp,sp,32
   21e10:	00008067          	ret
   21e14:	12068463          	beqz	a3,21f3c <__trunctfdf2+0x24c>
   21e18:	01c8d793          	srl	a5,a7,0x1c
   21e1c:	00451513          	sll	a0,a0,0x4
   21e20:	00a7e7b3          	or	a5,a5,a0
   21e24:	008006b7          	lui	a3,0x800
   21e28:	00d7f6b3          	and	a3,a5,a3
   21e2c:	1c068263          	beqz	a3,21ff0 <__trunctfdf2+0x300>
   21e30:	ff800737          	lui	a4,0xff800
   21e34:	01c65693          	srl	a3,a2,0x1c
   21e38:	00489893          	sll	a7,a7,0x4
   21e3c:	fff70713          	add	a4,a4,-1 # ff7fffff <__BSS_END__+0xff7db0ef>
   21e40:	00e7f633          	and	a2,a5,a4
   21e44:	0116e6b3          	or	a3,a3,a7
   21e48:	004007b7          	lui	a5,0x400
   21e4c:	00f66633          	or	a2,a2,a5
   21e50:	ff86f693          	and	a3,a3,-8
   21e54:	00000793          	li	a5,0
   21e58:	0036d713          	srl	a4,a3,0x3
   21e5c:	01d61693          	sll	a3,a2,0x1d
   21e60:	00961613          	sll	a2,a2,0x9
   21e64:	00c65613          	srl	a2,a2,0xc
   21e68:	01479793          	sll	a5,a5,0x14
   21e6c:	01f59593          	sll	a1,a1,0x1f
   21e70:	00c7e7b3          	or	a5,a5,a2
   21e74:	00e6e6b3          	or	a3,a3,a4
   21e78:	00b7e7b3          	or	a5,a5,a1
   21e7c:	00068513          	mv	a0,a3
   21e80:	00078593          	mv	a1,a5
   21e84:	02010113          	add	sp,sp,32
   21e88:	00008067          	ret
   21e8c:	0ce05c63          	blez	a4,21f64 <__trunctfdf2+0x274>
   21e90:	01412783          	lw	a5,20(sp)
   21e94:	01812503          	lw	a0,24(sp)
   21e98:	01c12603          	lw	a2,28(sp)
   21e9c:	00479693          	sll	a3,a5,0x4
   21ea0:	0106e6b3          	or	a3,a3,a6
   21ea4:	01c7d793          	srl	a5,a5,0x1c
   21ea8:	00451813          	sll	a6,a0,0x4
   21eac:	00461613          	sll	a2,a2,0x4
   21eb0:	01c55513          	srl	a0,a0,0x1c
   21eb4:	00d036b3          	snez	a3,a3
   21eb8:	0107e7b3          	or	a5,a5,a6
   21ebc:	00a66633          	or	a2,a2,a0
   21ec0:	00f6e6b3          	or	a3,a3,a5
   21ec4:	0076f793          	and	a5,a3,7
   21ec8:	02078063          	beqz	a5,21ee8 <__trunctfdf2+0x1f8>
   21ecc:	00f6f793          	and	a5,a3,15
   21ed0:	00400513          	li	a0,4
   21ed4:	00a78a63          	beq	a5,a0,21ee8 <__trunctfdf2+0x1f8>
   21ed8:	00468793          	add	a5,a3,4 # 800004 <__BSS_END__+0x7db0f4>
   21edc:	00d7b6b3          	sltu	a3,a5,a3
   21ee0:	00d60633          	add	a2,a2,a3
   21ee4:	00078693          	mv	a3,a5
   21ee8:	008007b7          	lui	a5,0x800
   21eec:	00f677b3          	and	a5,a2,a5
   21ef0:	ee0786e3          	beqz	a5,21ddc <__trunctfdf2+0xec>
   21ef4:	00170713          	add	a4,a4,1
   21ef8:	7ff00793          	li	a5,2047
   21efc:	e8f706e3          	beq	a4,a5,21d88 <__trunctfdf2+0x98>
   21f00:	ff8007b7          	lui	a5,0xff800
   21f04:	fff78793          	add	a5,a5,-1 # ff7fffff <__BSS_END__+0xff7db0ef>
   21f08:	00f67633          	and	a2,a2,a5
   21f0c:	7ff77793          	and	a5,a4,2047
   21f10:	f49ff06f          	j	21e58 <__trunctfdf2+0x168>
   21f14:	00000793          	li	a5,0
   21f18:	00000613          	li	a2,0
   21f1c:	01479793          	sll	a5,a5,0x14
   21f20:	01f59593          	sll	a1,a1,0x1f
   21f24:	00c7e7b3          	or	a5,a5,a2
   21f28:	00b7e7b3          	or	a5,a5,a1
   21f2c:	00068513          	mv	a0,a3
   21f30:	00078593          	mv	a1,a5
   21f34:	02010113          	add	sp,sp,32
   21f38:	00008067          	ret
   21f3c:	7ff00793          	li	a5,2047
   21f40:	00000613          	li	a2,0
   21f44:	01479793          	sll	a5,a5,0x14
   21f48:	01f59593          	sll	a1,a1,0x1f
   21f4c:	00c7e7b3          	or	a5,a5,a2
   21f50:	00b7e7b3          	or	a5,a5,a1
   21f54:	00068513          	mv	a0,a3
   21f58:	00078593          	mv	a1,a5
   21f5c:	02010113          	add	sp,sp,32
   21f60:	00008067          	ret
   21f64:	fcc00693          	li	a3,-52
   21f68:	08d74c63          	blt	a4,a3,22000 <__trunctfdf2+0x310>
   21f6c:	03d00693          	li	a3,61
   21f70:	40e686b3          	sub	a3,a3,a4
   21f74:	01c12703          	lw	a4,28(sp)
   21f78:	4056de13          	sra	t3,a3,0x5
   21f7c:	00080eb7          	lui	t4,0x80
   21f80:	00eeeeb3          	or	t4,t4,a4
   21f84:	002e1513          	sll	a0,t3,0x2
   21f88:	01d12e23          	sw	t4,28(sp)
   21f8c:	01f6f693          	and	a3,a3,31
   21f90:	00a88833          	add	a6,a7,a0
   21f94:	00088613          	mv	a2,a7
   21f98:	00000713          	li	a4,0
   21f9c:	00062303          	lw	t1,0(a2)
   21fa0:	00460613          	add	a2,a2,4
   21fa4:	00676733          	or	a4,a4,t1
   21fa8:	fec81ae3          	bne	a6,a2,21f9c <__trunctfdf2+0x2ac>
   21fac:	00300613          	li	a2,3
   21fb0:	41c60633          	sub	a2,a2,t3
   21fb4:	04069a63          	bnez	a3,22008 <__trunctfdf2+0x318>
   21fb8:	00082803          	lw	a6,0(a6)
   21fbc:	00168693          	add	a3,a3,1
   21fc0:	00478793          	add	a5,a5,4
   21fc4:	ff07ae23          	sw	a6,-4(a5)
   21fc8:	00d64e63          	blt	a2,a3,21fe4 <__trunctfdf2+0x2f4>
   21fcc:	00a78833          	add	a6,a5,a0
   21fd0:	00082803          	lw	a6,0(a6)
   21fd4:	00168693          	add	a3,a3,1
   21fd8:	00478793          	add	a5,a5,4
   21fdc:	ff07ae23          	sw	a6,-4(a5)
   21fe0:	fed656e3          	bge	a2,a3,21fcc <__trunctfdf2+0x2dc>
   21fe4:	00400793          	li	a5,4
   21fe8:	41c787b3          	sub	a5,a5,t3
   21fec:	0840006f          	j	22070 <__trunctfdf2+0x380>
   21ff0:	00000593          	li	a1,0
   21ff4:	7ff00793          	li	a5,2047
   21ff8:	00080637          	lui	a2,0x80
   21ffc:	d99ff06f          	j	21d94 <__trunctfdf2+0xa4>
   22000:	00000713          	li	a4,0
   22004:	dd1ff06f          	j	21dd4 <__trunctfdf2+0xe4>
   22008:	02050813          	add	a6,a0,32
   2200c:	00280833          	add	a6,a6,sp
   22010:	ff082803          	lw	a6,-16(a6)
   22014:	02000f13          	li	t5,32
   22018:	40df0f33          	sub	t5,t5,a3
   2201c:	01e81833          	sll	a6,a6,t5
   22020:	01076733          	or	a4,a4,a6
   22024:	08060e63          	beqz	a2,220c0 <__trunctfdf2+0x3d0>
   22028:	00261813          	sll	a6,a2,0x2
   2202c:	00f80fb3          	add	t6,a6,a5
   22030:	00a88633          	add	a2,a7,a0
   22034:	00062503          	lw	a0,0(a2) # 80000 <__BSS_END__+0x5b0f0>
   22038:	00462303          	lw	t1,4(a2)
   2203c:	00478793          	add	a5,a5,4
   22040:	00d55533          	srl	a0,a0,a3
   22044:	01e31333          	sll	t1,t1,t5
   22048:	00656533          	or	a0,a0,t1
   2204c:	fea7ae23          	sw	a0,-4(a5)
   22050:	00460613          	add	a2,a2,4
   22054:	feff90e3          	bne	t6,a5,22034 <__trunctfdf2+0x344>
   22058:	00400793          	li	a5,4
   2205c:	41c787b3          	sub	a5,a5,t3
   22060:	02080613          	add	a2,a6,32
   22064:	00260633          	add	a2,a2,sp
   22068:	00dedeb3          	srl	t4,t4,a3
   2206c:	ffd62823          	sw	t4,-16(a2)
   22070:	00400693          	li	a3,4
   22074:	40f686b3          	sub	a3,a3,a5
   22078:	00269693          	sll	a3,a3,0x2
   2207c:	00279793          	sll	a5,a5,0x2
   22080:	00800613          	li	a2,8
   22084:	00f888b3          	add	a7,a7,a5
   22088:	00c6ea63          	bltu	a3,a2,2209c <__trunctfdf2+0x3ac>
   2208c:	0008a023          	sw	zero,0(a7)
   22090:	0008a223          	sw	zero,4(a7)
   22094:	ff868693          	add	a3,a3,-8
   22098:	00888893          	add	a7,a7,8
   2209c:	00400793          	li	a5,4
   220a0:	00f6e463          	bltu	a3,a5,220a8 <__trunctfdf2+0x3b8>
   220a4:	0008a023          	sw	zero,0(a7)
   220a8:	01012783          	lw	a5,16(sp)
   220ac:	00e03733          	snez	a4,a4
   220b0:	01412603          	lw	a2,20(sp)
   220b4:	00f766b3          	or	a3,a4,a5
   220b8:	00000713          	li	a4,0
   220bc:	e09ff06f          	j	21ec4 <__trunctfdf2+0x1d4>
   220c0:	00100793          	li	a5,1
   220c4:	00000813          	li	a6,0
   220c8:	f99ff06f          	j	22060 <__trunctfdf2+0x370>

000220cc <__mulsi3>:
   220cc:	00050613          	mv	a2,a0
   220d0:	00000513          	li	a0,0
   220d4:	0015f693          	and	a3,a1,1
   220d8:	00068463          	beqz	a3,220e0 <__mulsi3+0x14>
   220dc:	00c50533          	add	a0,a0,a2
   220e0:	0015d593          	srl	a1,a1,0x1
   220e4:	00161613          	sll	a2,a2,0x1
   220e8:	fe0596e3          	bnez	a1,220d4 <__mulsi3+0x8>
   220ec:	00008067          	ret

000220f0 <__divsi3>:
   220f0:	06054063          	bltz	a0,22150 <__umodsi3+0x10>
   220f4:	0605c663          	bltz	a1,22160 <__umodsi3+0x20>

000220f8 <__hidden___udivsi3>:
   220f8:	00058613          	mv	a2,a1
   220fc:	00050593          	mv	a1,a0
   22100:	fff00513          	li	a0,-1
   22104:	02060c63          	beqz	a2,2213c <__hidden___udivsi3+0x44>
   22108:	00100693          	li	a3,1
   2210c:	00b67a63          	bgeu	a2,a1,22120 <__hidden___udivsi3+0x28>
   22110:	00c05863          	blez	a2,22120 <__hidden___udivsi3+0x28>
   22114:	00161613          	sll	a2,a2,0x1
   22118:	00169693          	sll	a3,a3,0x1
   2211c:	feb66ae3          	bltu	a2,a1,22110 <__hidden___udivsi3+0x18>
   22120:	00000513          	li	a0,0
   22124:	00c5e663          	bltu	a1,a2,22130 <__hidden___udivsi3+0x38>
   22128:	40c585b3          	sub	a1,a1,a2
   2212c:	00d56533          	or	a0,a0,a3
   22130:	0016d693          	srl	a3,a3,0x1
   22134:	00165613          	srl	a2,a2,0x1
   22138:	fe0696e3          	bnez	a3,22124 <__hidden___udivsi3+0x2c>
   2213c:	00008067          	ret

00022140 <__umodsi3>:
   22140:	00008293          	mv	t0,ra
   22144:	fb5ff0ef          	jal	220f8 <__hidden___udivsi3>
   22148:	00058513          	mv	a0,a1
   2214c:	00028067          	jr	t0
   22150:	40a00533          	neg	a0,a0
   22154:	00b04863          	bgtz	a1,22164 <__umodsi3+0x24>
   22158:	40b005b3          	neg	a1,a1
   2215c:	f9dff06f          	j	220f8 <__hidden___udivsi3>
   22160:	40b005b3          	neg	a1,a1
   22164:	00008293          	mv	t0,ra
   22168:	f91ff0ef          	jal	220f8 <__hidden___udivsi3>
   2216c:	40a00533          	neg	a0,a0
   22170:	00028067          	jr	t0

00022174 <__modsi3>:
   22174:	00008293          	mv	t0,ra
   22178:	0005ca63          	bltz	a1,2218c <__modsi3+0x18>
   2217c:	00054c63          	bltz	a0,22194 <__modsi3+0x20>
   22180:	f79ff0ef          	jal	220f8 <__hidden___udivsi3>
   22184:	00058513          	mv	a0,a1
   22188:	00028067          	jr	t0
   2218c:	40b005b3          	neg	a1,a1
   22190:	fe0558e3          	bgez	a0,22180 <__modsi3+0xc>
   22194:	40a00533          	neg	a0,a0
   22198:	f61ff0ef          	jal	220f8 <__hidden___udivsi3>
   2219c:	40b00533          	neg	a0,a1
   221a0:	00028067          	jr	t0

000221a4 <__clzsi2>:
   221a4:	000107b7          	lui	a5,0x10
   221a8:	02f57a63          	bgeu	a0,a5,221dc <__clzsi2+0x38>
   221ac:	10053793          	sltiu	a5,a0,256
   221b0:	0017b793          	seqz	a5,a5
   221b4:	00379793          	sll	a5,a5,0x3
   221b8:	02000713          	li	a4,32
   221bc:	40f70733          	sub	a4,a4,a5
   221c0:	00f55533          	srl	a0,a0,a5
   221c4:	00001797          	auipc	a5,0x1
   221c8:	d4078793          	add	a5,a5,-704 # 22f04 <__clz_tab>
   221cc:	00a787b3          	add	a5,a5,a0
   221d0:	0007c503          	lbu	a0,0(a5)
   221d4:	40a70533          	sub	a0,a4,a0
   221d8:	00008067          	ret
   221dc:	010007b7          	lui	a5,0x1000
   221e0:	02f57463          	bgeu	a0,a5,22208 <__clzsi2+0x64>
   221e4:	01000793          	li	a5,16
   221e8:	00f55533          	srl	a0,a0,a5
   221ec:	00001797          	auipc	a5,0x1
   221f0:	d1878793          	add	a5,a5,-744 # 22f04 <__clz_tab>
   221f4:	00a787b3          	add	a5,a5,a0
   221f8:	0007c503          	lbu	a0,0(a5)
   221fc:	01000713          	li	a4,16
   22200:	40a70533          	sub	a0,a4,a0
   22204:	00008067          	ret
   22208:	01800793          	li	a5,24
   2220c:	00f55533          	srl	a0,a0,a5
   22210:	00001797          	auipc	a5,0x1
   22214:	cf478793          	add	a5,a5,-780 # 22f04 <__clz_tab>
   22218:	00a787b3          	add	a5,a5,a0
   2221c:	0007c503          	lbu	a0,0(a5)
   22220:	00800713          	li	a4,8
   22224:	40a70533          	sub	a0,a4,a0
   22228:	00008067          	ret
